
shell.elf:     file format elf32-msp430


Disassembly of section .text:

0000c000 <__watchdog_support>:
    c000:	55 42 20 01 	mov.b	&0x0120,r5	
    c004:	35 d0 08 5a 	bis	#23048,	r5	;#0x5a08
    c008:	82 45 14 02 	mov	r5,	&0x0214	

0000c00c <__init_stack>:
    c00c:	31 40 00 04 	mov	#1024,	r1	;#0x0400

0000c010 <__do_copy_data>:
    c010:	3f 40 14 00 	mov	#20,	r15	;#0x0014
    c014:	0f 93       	tst	r15		
    c016:	08 24       	jz	$+18     	;abs 0xc028
    c018:	92 42 14 02 	mov	&0x0214,&0x0120	
    c01c:	20 01 
    c01e:	2f 83       	decd	r15		
    c020:	9f 4f 88 c9 	mov	-13944(r15),512(r15);0xc988(r15), 0x0200(r15)
    c024:	00 02 
    c026:	f8 23       	jnz	$-14     	;abs 0xc018

0000c028 <__do_clear_bss>:
    c028:	3f 40 00 00 	mov	#0,	r15	;#0x0000
    c02c:	0f 93       	tst	r15		
    c02e:	07 24       	jz	$+16     	;abs 0xc03e
    c030:	92 42 14 02 	mov	&0x0214,&0x0120	
    c034:	20 01 
    c036:	1f 83       	dec	r15		
    c038:	cf 43 14 02 	mov.b	#0,	532(r15);r3 As==00, 0x0214(r15)
    c03c:	f9 23       	jnz	$-12     	;abs 0xc030

0000c03e <main>:
    c03e:	31 50 a6 ff 	add	#-90,	r1	;#0xffa6
    c042:	b2 40 80 5a 	mov	#23168,	&0x0120	;#0x5a80
    c046:	20 01 
    c048:	d2 42 ff 10 	mov.b	&0x10ff,&0x0057	
    c04c:	57 00 
    c04e:	d2 42 fe 10 	mov.b	&0x10fe,&0x0056	
    c052:	56 00 
    c054:	f2 40 41 00 	mov.b	#65,	&0x0022	;#0x0041
    c058:	22 00 
    c05a:	f2 40 40 00 	mov.b	#64,	&0x0021	;#0x0040
    c05e:	21 00 
    c060:	3f 40 80 25 	mov	#9600,	r15	;#0x2580
    c064:	b0 12 5c c7 	call	#0xc75c	
    c068:	3d 40 5a 00 	mov	#90,	r13	;#0x005a
    c06c:	0e 43       	clr	r14		
    c06e:	0f 41       	mov	r1,	r15	
    c070:	b0 12 f0 c7 	call	#0xc7f0	
    c074:	3f 40 83 c8 	mov	#-14205,r15	;#0xc883
    c078:	b0 12 34 c4 	call	#0xc434	
    c07c:	b0 12 2c c6 	call	#0xc62c	
    c080:	7f 90 0d 00 	cmp.b	#13,	r15	;#0x000d
    c084:	21 24       	jz	$+68     	;abs 0xc0c8
    c086:	0b 43       	clr	r11		
    c088:	7f 92       	cmp.b	#8,	r15	;r2 As==11
    c08a:	12 20       	jnz	$+38     	;abs 0xc0b0
    c08c:	0b 93       	tst	r11		
    c08e:	17 24       	jz	$+48     	;abs 0xc0be
    c090:	3b 53       	add	#-1,	r11	;r3 As==11
    c092:	0f 41       	mov	r1,	r15	
    c094:	0f 5b       	add	r11,	r15	
    c096:	cf 43 00 00 	mov.b	#0,	0(r15)	;r3 As==00, 0x0000(r15)
    c09a:	7f 42       	mov.b	#8,	r15	;r2 As==11
    c09c:	b0 12 26 c6 	call	#0xc626	
    c0a0:	7f 40 20 00 	mov.b	#32,	r15	;#0x0020
    c0a4:	b0 12 26 c6 	call	#0xc626	
    c0a8:	7f 42       	mov.b	#8,	r15	;r2 As==11
    c0aa:	b0 12 26 c6 	call	#0xc626	
    c0ae:	07 3c       	jmp	$+16     	;abs 0xc0be
    c0b0:	0e 41       	mov	r1,	r14	
    c0b2:	0e 5b       	add	r11,	r14	
    c0b4:	ce 4f 00 00 	mov.b	r15,	0(r14)	;0x0000(r14)
    c0b8:	1b 53       	inc	r11		
    c0ba:	b0 12 26 c6 	call	#0xc626	
    c0be:	b0 12 2c c6 	call	#0xc62c	
    c0c2:	7f 90 0d 00 	cmp.b	#13,	r15	;#0x000d
    c0c6:	e0 23       	jnz	$-62     	;abs 0xc088
    c0c8:	3f 40 86 c8 	mov	#-14202,r15	;#0xc886
    c0cc:	b0 12 34 c4 	call	#0xc434	
    c0d0:	0e 41       	mov	r1,	r14	
    c0d2:	3f 40 00 02 	mov	#512,	r15	;#0x0200
    c0d6:	b0 12 2c c3 	call	#0xc32c	
    c0da:	3f 90 f1 ff 	cmp	#-15,	r15	;#0xfff1
    c0de:	0c 24       	jz	$+26     	;abs 0xc0f8
    c0e0:	3f 90 f2 ff 	cmp	#-14,	r15	;#0xfff2
    c0e4:	04 24       	jz	$+10     	;abs 0xc0ee
    c0e6:	3f 90 f0 ff 	cmp	#-16,	r15	;#0xfff0
    c0ea:	0f 20       	jnz	$+32     	;abs 0xc10a
    c0ec:	0a 3c       	jmp	$+22     	;abs 0xc102
    c0ee:	3f 40 8a c8 	mov	#-14198,r15	;#0xc88a
    c0f2:	b0 12 34 c4 	call	#0xc434	
    c0f6:	09 3c       	jmp	$+20     	;abs 0xc10a
    c0f8:	3f 40 a9 c8 	mov	#-14167,r15	;#0xc8a9
    c0fc:	b0 12 34 c4 	call	#0xc434	
    c100:	04 3c       	jmp	$+10     	;abs 0xc10a
    c102:	3f 40 ce c8 	mov	#-14130,r15	;#0xc8ce
    c106:	b0 12 34 c4 	call	#0xc434	
    c10a:	3f 40 f1 c8 	mov	#-14095,r15	;#0xc8f1
    c10e:	b0 12 34 c4 	call	#0xc434	
    c112:	aa 3f       	jmp	$-170    	;abs 0xc068

0000c114 <__stop_progExec__>:
    c114:	32 d0 f0 00 	bis	#240,	r2	;#0x00f0
    c118:	fd 3f       	jmp	$-4      	;abs 0xc114

0000c11a <__ctors_end>:
    c11a:	30 40 5a c8 	br	#0xc85a	

0000c11e <shell_cmd_divd>:
    c11e:	0b 12       	push	r11		
    c120:	0a 12       	push	r10		
    c122:	0b 4f       	mov	r15,	r11	
    c124:	f2 e0 41 00 	xor.b	#65,	&0x0021	;#0x0041
    c128:	21 00 
    c12a:	2f 53       	incd	r15		
    c12c:	b0 12 56 c2 	call	#0xc256	
    c130:	0a 4f       	mov	r15,	r10	
    c132:	0f 4b       	mov	r11,	r15	
    c134:	3f 50 12 00 	add	#18,	r15	;#0x0012
    c138:	b0 12 56 c2 	call	#0xc256	
    c13c:	0e 4f       	mov	r15,	r14	
    c13e:	0f 4a       	mov	r10,	r15	
    c140:	b0 12 e8 c1 	call	#0xc1e8	
    c144:	0e 4e       	mov	r14,	r14	
    c146:	0e 12       	push	r14		
    c148:	0f 12       	push	r15		
    c14a:	30 12 5c c8 	push	#-14244	;#0xc85c
    c14e:	b0 12 fc c4 	call	#0xc4fc	
    c152:	31 50 06 00 	add	#6,	r1	;#0x0006
    c156:	f2 e0 41 00 	xor.b	#65,	&0x0021	;#0x0041
    c15a:	21 00 
    c15c:	0f 43       	clr	r15		
    c15e:	3a 41       	pop	r10		
    c160:	3b 41       	pop	r11		
    c162:	30 41       	ret			

0000c164 <shell_cmd_argt>:
    c164:	0b 12       	push	r11		
    c166:	0a 12       	push	r10		
    c168:	0a 4f       	mov	r15,	r10	
    c16a:	3f 40 64 c8 	mov	#-14236,r15	;#0xc864
    c16e:	b0 12 34 c4 	call	#0xc434	
    c172:	ca 93 00 00 	tst.b	0(r10)		;0x0000(r10)
    c176:	12 24       	jz	$+38     	;abs 0xc19c
    c178:	0b 43       	clr	r11		
    c17a:	0e 4b       	mov	r11,	r14	
    c17c:	0e 5e       	rla	r14		
    c17e:	0e 5e       	rla	r14		
    c180:	0e 5e       	rla	r14		
    c182:	0e 5e       	rla	r14		
    c184:	2e 53       	incd	r14		
    c186:	0e 5a       	add	r10,	r14	
    c188:	0e 12       	push	r14		
    c18a:	30 12 72 c8 	push	#-14222	;#0xc872
    c18e:	b0 12 fc c4 	call	#0xc4fc	
    c192:	21 52       	add	#4,	r1	;r2 As==10
    c194:	1b 53       	inc	r11		
    c196:	6f 4a       	mov.b	@r10,	r15	
    c198:	0b 9f       	cmp	r15,	r11	
    c19a:	ef 3b       	jl	$-32     	;abs 0xc17a
    c19c:	0f 43       	clr	r15		
    c19e:	3a 41       	pop	r10		
    c1a0:	3b 41       	pop	r11		
    c1a2:	30 41       	ret			

0000c1a4 <shell_cmd_help>:
    c1a4:	0b 12       	push	r11		
    c1a6:	0a 12       	push	r10		
    c1a8:	c2 93 00 02 	tst.b	&0x0200	
    c1ac:	13 24       	jz	$+40     	;abs 0xc1d4
    c1ae:	3b 40 04 02 	mov	#516,	r11	;#0x0204
    c1b2:	0a 43       	clr	r10		
    c1b4:	2b 12       	push	@r11		
    c1b6:	1b 12 fe ff 	push	-2(r11)	;0xfffe(r11)
    c1ba:	30 12 7a c8 	push	#-14214	;#0xc87a
    c1be:	b0 12 fc c4 	call	#0xc4fc	
    c1c2:	31 50 06 00 	add	#6,	r1	;#0x0006
    c1c6:	1a 53       	inc	r10		
    c1c8:	3b 50 06 00 	add	#6,	r11	;#0x0006
    c1cc:	5f 42 00 02 	mov.b	&0x0200,r15	
    c1d0:	0a 9f       	cmp	r15,	r10	
    c1d2:	f0 3b       	jl	$-30     	;abs 0xc1b4
    c1d4:	0f 43       	clr	r15		
    c1d6:	3a 41       	pop	r10		
    c1d8:	3b 41       	pop	r11		
    c1da:	30 41       	ret			

0000c1dc <shell_process>:
    c1dc:	0e 4f       	mov	r15,	r14	
    c1de:	3f 40 00 02 	mov	#512,	r15	;#0x0200
    c1e2:	b0 12 2c c3 	call	#0xc32c	
    c1e6:	30 41       	ret			

0000c1e8 <divd>:
    c1e8:	0f 4f       	mov	r15,	r15	
    c1ea:	0d 43       	clr	r13		

0000c1ec <_cyc>:
    c1ec:	0f 8e       	sub	r14,	r15	
    c1ee:	1d 53       	inc	r13		
    c1f0:	0f 9e       	cmp	r14,	r15	
    c1f2:	fc 37       	jge	$-6      	;abs 0xc1ec
    c1f4:	0e 4f       	mov	r15,	r14	
    c1f6:	0f 4d       	mov	r13,	r15	
    c1f8:	30 41       	ret			

0000c1fa <shell_str_len>:
    c1fa:	0e 4f       	mov	r15,	r14	
    c1fc:	0f 43       	clr	r15		
    c1fe:	01 3c       	jmp	$+4      	;abs 0xc202
    c200:	0f 4c       	mov	r12,	r15	
    c202:	0c 4f       	mov	r15,	r12	
    c204:	1c 53       	inc	r12		
    c206:	0d 4e       	mov	r14,	r13	
    c208:	0d 5f       	add	r15,	r13	
    c20a:	cd 93 00 00 	tst.b	0(r13)		;0x0000(r13)
    c20e:	f8 23       	jnz	$-14     	;abs 0xc200
    c210:	30 41       	ret			

0000c212 <shell_str_cmp>:
    c212:	0b 12       	push	r11		
    c214:	0a 12       	push	r10		
    c216:	09 12       	push	r9		
    c218:	0c 9d       	cmp	r13,	r12	
    c21a:	14 38       	jl	$+42     	;abs 0xc244
    c21c:	0b 43       	clr	r11		
    c21e:	08 3c       	jmp	$+18     	;abs 0xc230
    c220:	09 4f       	mov	r15,	r9	
    c222:	09 5b       	add	r11,	r9	
    c224:	0a 4e       	mov	r14,	r10	
    c226:	0a 5b       	add	r11,	r10	
    c228:	e9 9a 00 00 	cmp.b	@r10,	0(r9)	;0x0000(r9)
    c22c:	0f 20       	jnz	$+32     	;abs 0xc24c
    c22e:	1b 53       	inc	r11		
    c230:	0b 9d       	cmp	r13,	r11	
    c232:	f6 3b       	jl	$-18     	;abs 0xc220
    c234:	0d 9c       	cmp	r12,	r13	
    c236:	08 34       	jge	$+18     	;abs 0xc248
    c238:	0b 5e       	add	r14,	r11	
    c23a:	fb 90 20 00 	cmp.b	#32,	0(r11)	;#0x0020, 0x0000(r11)
    c23e:	00 00 
    c240:	05 20       	jnz	$+12     	;abs 0xc24c
    c242:	02 3c       	jmp	$+6      	;abs 0xc248
    c244:	1f 43       	mov	#1,	r15	;r3 As==01
    c246:	03 3c       	jmp	$+8      	;abs 0xc24e
    c248:	0f 43       	clr	r15		
    c24a:	01 3c       	jmp	$+4      	;abs 0xc24e
    c24c:	2f 43       	mov	#2,	r15	;r3 As==10
    c24e:	39 41       	pop	r9		
    c250:	3a 41       	pop	r10		
    c252:	3b 41       	pop	r11		
    c254:	30 41       	ret			

0000c256 <shell_parse_int>:
    c256:	0d 43       	clr	r13		
    c258:	11 3c       	jmp	$+36     	;abs 0xc27c
    c25a:	1f 53       	inc	r15		
    c25c:	4e 4c       	mov.b	r12,	r14	
    c25e:	7e 50 d0 ff 	add.b	#-48,	r14	;#0xffd0
    c262:	7e 90 0a 00 	cmp.b	#10,	r14	;#0x000a
    c266:	0d 2c       	jc	$+28     	;abs 0xc282
    c268:	0d 5d       	rla	r13		
    c26a:	0e 4d       	mov	r13,	r14	
    c26c:	0e 5e       	rla	r14		
    c26e:	0e 5e       	rla	r14		
    c270:	0d 5e       	add	r14,	r13	
    c272:	4e 4c       	mov.b	r12,	r14	
    c274:	8e 11       	sxt	r14		
    c276:	3e 50 d0 ff 	add	#-48,	r14	;#0xffd0
    c27a:	0d 5e       	add	r14,	r13	
    c27c:	6c 4f       	mov.b	@r15,	r12	
    c27e:	4c 93       	tst.b	r12		
    c280:	ec 23       	jnz	$-38     	;abs 0xc25a
    c282:	0f 4d       	mov	r13,	r15	
    c284:	30 41       	ret			

0000c286 <shell_arg_parser>:
    c286:	0b 12       	push	r11		
    c288:	0a 12       	push	r10		
    c28a:	09 12       	push	r9		
    c28c:	08 12       	push	r8		
    c28e:	07 12       	push	r7		
    c290:	06 12       	push	r6		
    c292:	05 12       	push	r5		
    c294:	0a 43       	clr	r10		
    c296:	0c 43       	clr	r12		
    c298:	0b 43       	clr	r11		
    c29a:	08 4e       	mov	r14,	r8	
    c29c:	38 53       	add	#-1,	r8	;r3 As==11
    c29e:	35 3c       	jmp	$+108    	;abs 0xc30a
    c2a0:	3a 90 06 00 	cmp	#6,	r10	;#0x0006
    c2a4:	38 34       	jge	$+114    	;abs 0xc316
    c2a6:	09 4f       	mov	r15,	r9	
    c2a8:	09 5b       	add	r11,	r9	
    c2aa:	f9 90 20 00 	cmp.b	#32,	0(r9)	;#0x0020, 0x0000(r9)
    c2ae:	00 00 
    c2b0:	02 24       	jz	$+6      	;abs 0xc2b6
    c2b2:	0b 98       	cmp	r8,	r11	
    c2b4:	29 20       	jnz	$+84     	;abs 0xc308
    c2b6:	0b 98       	cmp	r8,	r11	
    c2b8:	01 20       	jnz	$+4      	;abs 0xc2bc
    c2ba:	0b 4e       	mov	r14,	r11	
    c2bc:	0c 93       	tst	r12		
    c2be:	23 24       	jz	$+72     	;abs 0xc306
    c2c0:	07 4b       	mov	r11,	r7	
    c2c2:	07 8c       	sub	r12,	r7	
    c2c4:	37 90 10 00 	cmp	#16,	r7	;#0x0010
    c2c8:	28 34       	jge	$+82     	;abs 0xc31a
    c2ca:	09 43       	clr	r9		
    c2cc:	37 53       	add	#-1,	r7	;r3 As==11
    c2ce:	05 4f       	mov	r15,	r5	
    c2d0:	05 5c       	add	r12,	r5	
    c2d2:	0d 3c       	jmp	$+28     	;abs 0xc2ee
    c2d4:	06 45       	mov	r5,	r6	
    c2d6:	06 59       	add	r9,	r6	
    c2d8:	0c 4a       	mov	r10,	r12	
    c2da:	0c 5c       	rla	r12		
    c2dc:	0c 5c       	rla	r12		
    c2de:	0c 5c       	rla	r12		
    c2e0:	0c 5c       	rla	r12		
    c2e2:	0c 5d       	add	r13,	r12	
    c2e4:	0c 59       	add	r9,	r12	
    c2e6:	dc 46 01 00 	mov.b	1(r6),	2(r12)	;0x0001(r6), 0x0002(r12)
    c2ea:	02 00 
    c2ec:	19 53       	inc	r9		
    c2ee:	09 97       	cmp	r7,	r9	
    c2f0:	f1 3b       	jl	$-28     	;abs 0xc2d4
    c2f2:	0c 4a       	mov	r10,	r12	
    c2f4:	0c 5c       	rla	r12		
    c2f6:	0c 5c       	rla	r12		
    c2f8:	0c 5c       	rla	r12		
    c2fa:	0c 5c       	rla	r12		
    c2fc:	0c 5d       	add	r13,	r12	
    c2fe:	0c 59       	add	r9,	r12	
    c300:	cc 43 02 00 	mov.b	#0,	2(r12)	;r3 As==00, 0x0002(r12)
    c304:	1a 53       	inc	r10		
    c306:	0c 4b       	mov	r11,	r12	
    c308:	1b 53       	inc	r11		
    c30a:	0b 9e       	cmp	r14,	r11	
    c30c:	c9 3b       	jl	$-108    	;abs 0xc2a0
    c30e:	cd 4a 00 00 	mov.b	r10,	0(r13)	;0x0000(r13)
    c312:	0f 43       	clr	r15		
    c314:	03 3c       	jmp	$+8      	;abs 0xc31c
    c316:	1f 43       	mov	#1,	r15	;r3 As==01
    c318:	01 3c       	jmp	$+4      	;abs 0xc31c
    c31a:	2f 43       	mov	#2,	r15	;r3 As==10
    c31c:	35 41       	pop	r5		
    c31e:	36 41       	pop	r6		
    c320:	37 41       	pop	r7		
    c322:	38 41       	pop	r8		
    c324:	39 41       	pop	r9		
    c326:	3a 41       	pop	r10		
    c328:	3b 41       	pop	r11		
    c32a:	30 41       	ret			

0000c32c <shell_process_cmds>:
    c32c:	0b 12       	push	r11		
    c32e:	0a 12       	push	r10		
    c330:	09 12       	push	r9		
    c332:	08 12       	push	r8		
    c334:	07 12       	push	r7		
    c336:	06 12       	push	r6		
    c338:	31 50 ae ff 	add	#-82,	r1	;#0xffae
    c33c:	0b 4f       	mov	r15,	r11	
    c33e:	08 4e       	mov	r14,	r8	
    c340:	09 4f       	mov	r15,	r9	
    c342:	0a 43       	clr	r10		
    c344:	27 3c       	jmp	$+80     	;abs 0xc394
    c346:	0f 48       	mov	r8,	r15	
    c348:	b0 12 fa c1 	call	#0xc1fa	
    c34c:	07 4f       	mov	r15,	r7	
    c34e:	16 49 02 00 	mov	2(r9),	r6	;0x0002(r9)
    c352:	0f 46       	mov	r6,	r15	
    c354:	b0 12 fa c1 	call	#0xc1fa	
    c358:	0c 47       	mov	r7,	r12	
    c35a:	0d 4f       	mov	r15,	r13	
    c35c:	0e 48       	mov	r8,	r14	
    c35e:	0f 46       	mov	r6,	r15	
    c360:	b0 12 12 c2 	call	#0xc212	
    c364:	39 50 06 00 	add	#6,	r9	;#0x0006
    c368:	0f 93       	tst	r15		
    c36a:	13 20       	jnz	$+40     	;abs 0xc392
    c36c:	0d 41       	mov	r1,	r13	
    c36e:	0e 47       	mov	r7,	r14	
    c370:	0f 48       	mov	r8,	r15	
    c372:	b0 12 86 c2 	call	#0xc286	
    c376:	1f 93       	cmp	#1,	r15	;r3 As==01
    c378:	13 24       	jz	$+40     	;abs 0xc3a0
    c37a:	2f 93       	cmp	#2,	r15	;r3 As==10
    c37c:	14 24       	jz	$+42     	;abs 0xc3a6
    c37e:	0e 4a       	mov	r10,	r14	
    c380:	1e 53       	inc	r14		
    c382:	0d 4e       	mov	r14,	r13	
    c384:	0d 5d       	rla	r13		
    c386:	0e 5d       	add	r13,	r14	
    c388:	0e 5e       	rla	r14		
    c38a:	0e 5b       	add	r11,	r14	
    c38c:	0f 41       	mov	r1,	r15	
    c38e:	ae 12       	call	@r14		
    c390:	0c 3c       	jmp	$+26     	;abs 0xc3aa
    c392:	1a 53       	inc	r10		
    c394:	6f 4b       	mov.b	@r11,	r15	
    c396:	0a 9f       	cmp	r15,	r10	
    c398:	d6 3b       	jl	$-82     	;abs 0xc346
    c39a:	3f 40 f2 ff 	mov	#-14,	r15	;#0xfff2
    c39e:	05 3c       	jmp	$+12     	;abs 0xc3aa
    c3a0:	3f 40 f0 ff 	mov	#-16,	r15	;#0xfff0
    c3a4:	02 3c       	jmp	$+6      	;abs 0xc3aa
    c3a6:	3f 40 f1 ff 	mov	#-15,	r15	;#0xfff1
    c3aa:	31 50 52 00 	add	#82,	r1	;#0x0052
    c3ae:	36 41       	pop	r6		
    c3b0:	37 41       	pop	r7		
    c3b2:	38 41       	pop	r8		
    c3b4:	39 41       	pop	r9		
    c3b6:	3a 41       	pop	r10		
    c3b8:	3b 41       	pop	r11		
    c3ba:	30 41       	ret			

0000c3bc <_xtoa>:
    c3bc:	0b 12       	push	r11		
    c3be:	0a 12       	push	r10		
    c3c0:	09 12       	push	r9		
    c3c2:	08 12       	push	r8		
    c3c4:	07 12       	push	r7		
    c3c6:	0a 4e       	mov	r14,	r10	
    c3c8:	0b 4f       	mov	r15,	r11	
    c3ca:	07 4d       	mov	r13,	r7	
    c3cc:	0e 93       	tst	r14		
    c3ce:	04 20       	jnz	$+10     	;abs 0xc3d8
    c3d0:	0b 93       	tst	r11		
    c3d2:	1f 24       	jz	$+64     	;abs 0xc412
    c3d4:	01 3c       	jmp	$+4      	;abs 0xc3d8
    c3d6:	27 52       	add	#4,	r7	;r2 As==10
    c3d8:	1b 97 02 00 	cmp	2(r7),	r11	;0x0002(r7)
    c3dc:	fc 2b       	jnc	$-6      	;abs 0xc3d6
    c3de:	02 20       	jnz	$+6      	;abs 0xc3e4
    c3e0:	2a 97       	cmp	@r7,	r10	
    c3e2:	f9 2b       	jnc	$-12     	;abs 0xc3d6
    c3e4:	38 47       	mov	@r7+,	r8	
    c3e6:	39 47       	mov	@r7+,	r9	
    c3e8:	7f 40 30 00 	mov.b	#48,	r15	;#0x0030
    c3ec:	03 3c       	jmp	$+8      	;abs 0xc3f4
    c3ee:	5f 53       	inc.b	r15		
    c3f0:	0a 88       	sub	r8,	r10	
    c3f2:	0b 79       	subc	r9,	r11	
    c3f4:	0b 99       	cmp	r9,	r11	
    c3f6:	04 28       	jnc	$+10     	;abs 0xc400
    c3f8:	09 9b       	cmp	r11,	r9	
    c3fa:	f9 2b       	jnc	$-12     	;abs 0xc3ee
    c3fc:	0a 98       	cmp	r8,	r10	
    c3fe:	f7 2f       	jc	$-16     	;abs 0xc3ee
    c400:	b0 12 26 c6 	call	#0xc626	
    c404:	18 f3       	and	#1,	r8	;r3 As==01
    c406:	09 f3       	and	#0,	r9	;r3 As==00
    c408:	08 93       	tst	r8		
    c40a:	07 20       	jnz	$+16     	;abs 0xc41a
    c40c:	09 93       	tst	r9		
    c40e:	ea 27       	jz	$-42     	;abs 0xc3e4
    c410:	04 3c       	jmp	$+10     	;abs 0xc41a
    c412:	7f 40 30 00 	mov.b	#48,	r15	;#0x0030
    c416:	b0 12 26 c6 	call	#0xc626	
    c41a:	37 41       	pop	r7		
    c41c:	38 41       	pop	r8		
    c41e:	39 41       	pop	r9		
    c420:	3a 41       	pop	r10		
    c422:	3b 41       	pop	r11		
    c424:	30 41       	ret			

0000c426 <_puth>:
    c426:	3f f0 0f 00 	and	#15,	r15	;#0x000f
    c42a:	5f 4f 78 c9 	mov.b	-13960(r15),r15	;0xc978(r15)
    c42e:	b0 12 26 c6 	call	#0xc626	
    c432:	30 41       	ret			

0000c434 <cio_print>:
    c434:	0b 12       	push	r11		
    c436:	0b 4f       	mov	r15,	r11	
    c438:	02 3c       	jmp	$+6      	;abs 0xc43e
    c43a:	b0 12 26 c6 	call	#0xc626	
    c43e:	7f 4b       	mov.b	@r11+,	r15	
    c440:	4f 93       	tst.b	r15		
    c442:	fb 23       	jnz	$-8      	;abs 0xc43a
    c444:	3b 41       	pop	r11		
    c446:	30 41       	ret			

0000c448 <cio_printi>:
    c448:	0b 12       	push	r11		
    c44a:	0a 12       	push	r10		
    c44c:	09 12       	push	r9		
    c44e:	31 50 e0 ff 	add	#-32,	r1	;#0xffe0
    c452:	0b 4f       	mov	r15,	r11	
    c454:	0f 93       	tst	r15		
    c456:	06 24       	jz	$+14     	;abs 0xc464
    c458:	09 41       	mov	r1,	r9	
    c45a:	39 50 1e 00 	add	#30,	r9	;#0x001e
    c45e:	3a 40 0f 00 	mov	#15,	r10	;#0x000f
    c462:	18 3c       	jmp	$+50     	;abs 0xc494
    c464:	7f 40 30 00 	mov.b	#48,	r15	;#0x0030
    c468:	b0 12 26 c6 	call	#0xc626	
    c46c:	24 3c       	jmp	$+74     	;abs 0xc4b6
    c46e:	3e 40 0a 00 	mov	#10,	r14	;#0x000a
    c472:	0f 4b       	mov	r11,	r15	
    c474:	b0 12 c6 c7 	call	#0xc7c6	
    c478:	3f 50 30 00 	add	#48,	r15	;#0x0030
    c47c:	89 4f 00 00 	mov	r15,	0(r9)	;0x0000(r9)
    c480:	3e 40 0a 00 	mov	#10,	r14	;#0x000a
    c484:	0f 4b       	mov	r11,	r15	
    c486:	b0 12 94 c7 	call	#0xc794	
    c48a:	0b 4f       	mov	r15,	r11	
    c48c:	3a 53       	add	#-1,	r10	;r3 As==11
    c48e:	29 83       	decd	r9		
    c490:	0a 93       	tst	r10		
    c492:	02 24       	jz	$+6      	;abs 0xc498
    c494:	1b 93       	cmp	#1,	r11	;r3 As==01
    c496:	eb 37       	jge	$-40     	;abs 0xc46e
    c498:	09 4a       	mov	r10,	r9	
    c49a:	0b 43       	clr	r11		
    c49c:	07 3c       	jmp	$+16     	;abs 0xc4ac
    c49e:	0f 4a       	mov	r10,	r15	
    c4a0:	0f 5f       	rla	r15		
    c4a2:	0f 51       	add	r1,	r15	
    c4a4:	0f 5b       	add	r11,	r15	
    c4a6:	6f 4f       	mov.b	@r15,	r15	
    c4a8:	b0 12 26 c6 	call	#0xc626	
    c4ac:	19 53       	inc	r9		
    c4ae:	2b 53       	incd	r11		
    c4b0:	39 90 10 00 	cmp	#16,	r9	;#0x0010
    c4b4:	f4 23       	jnz	$-22     	;abs 0xc49e
    c4b6:	31 50 20 00 	add	#32,	r1	;#0x0020
    c4ba:	39 41       	pop	r9		
    c4bc:	3a 41       	pop	r10		
    c4be:	3b 41       	pop	r11		
    c4c0:	30 41       	ret			

0000c4c2 <cio_printb>:
    c4c2:	0b 12       	push	r11		
    c4c4:	0a 12       	push	r10		
    c4c6:	0a 4f       	mov	r15,	r10	
    c4c8:	0b 4e       	mov	r14,	r11	
    c4ca:	12 3c       	jmp	$+38     	;abs 0xc4f0
    c4cc:	0d 4a       	mov	r10,	r13	
    c4ce:	4e 4b       	mov.b	r11,	r14	
    c4d0:	7e f0 0f 00 	and.b	#15,	r14	;#0x000f
    c4d4:	4e 93       	tst.b	r14		
    c4d6:	03 24       	jz	$+8      	;abs 0xc4de
    c4d8:	0d 11       	rra	r13		
    c4da:	7e 53       	add.b	#-1,	r14	;r3 As==11
    c4dc:	fb 3f       	jmp	$-8      	;abs 0xc4d4
    c4de:	1d f3       	and	#1,	r13	;r3 As==01
    c4e0:	03 24       	jz	$+8      	;abs 0xc4e8
    c4e2:	7f 40 31 00 	mov.b	#49,	r15	;#0x0031
    c4e6:	02 3c       	jmp	$+6      	;abs 0xc4ec
    c4e8:	7f 40 30 00 	mov.b	#48,	r15	;#0x0030
    c4ec:	b0 12 26 c6 	call	#0xc626	
    c4f0:	3b 53       	add	#-1,	r11	;r3 As==11
    c4f2:	0b 93       	tst	r11		
    c4f4:	eb 37       	jge	$-40     	;abs 0xc4cc
    c4f6:	3a 41       	pop	r10		
    c4f8:	3b 41       	pop	r11		
    c4fa:	30 41       	ret			

0000c4fc <cio_printf>:
    c4fc:	0b 12       	push	r11		
    c4fe:	0a 12       	push	r10		
    c500:	09 12       	push	r9		
    c502:	08 12       	push	r8		
    c504:	0b 41       	mov	r1,	r11	
    c506:	3b 50 0a 00 	add	#10,	r11	;#0x000a
    c50a:	3a 4b       	mov	@r11+,	r10	
    c50c:	84 3c       	jmp	$+266    	;abs 0xc616
    c50e:	7f 90 25 00 	cmp.b	#37,	r15	;#0x0025
    c512:	7e 20       	jnz	$+254    	;abs 0xc610
    c514:	5f 4a 01 00 	mov.b	1(r10),	r15	;0x0001(r10)
    c518:	2a 53       	incd	r10		
    c51a:	7f 90 6e 00 	cmp.b	#110,	r15	;#0x006e
    c51e:	3e 24       	jz	$+126    	;abs 0xc59c
    c520:	7f 90 6f 00 	cmp.b	#111,	r15	;#0x006f
    c524:	10 34       	jge	$+34     	;abs 0xc546
    c526:	7f 90 69 00 	cmp.b	#105,	r15	;#0x0069
    c52a:	23 24       	jz	$+72     	;abs 0xc572
    c52c:	7f 90 6a 00 	cmp.b	#106,	r15	;#0x006a
    c530:	06 34       	jge	$+14     	;abs 0xc53e
    c532:	4f 93       	tst.b	r15		
    c534:	73 24       	jz	$+232    	;abs 0xc61c
    c536:	7f 90 63 00 	cmp.b	#99,	r15	;#0x0063
    c53a:	6b 20       	jnz	$+216    	;abs 0xc612
    c53c:	13 3c       	jmp	$+40     	;abs 0xc564
    c53e:	7f 90 6c 00 	cmp.b	#108,	r15	;#0x006c
    c542:	67 20       	jnz	$+208    	;abs 0xc612
    c544:	2b 3c       	jmp	$+88     	;abs 0xc59c
    c546:	7f 90 75 00 	cmp.b	#117,	r15	;#0x0075
    c54a:	13 24       	jz	$+40     	;abs 0xc572
    c54c:	7f 90 78 00 	cmp.b	#120,	r15	;#0x0078
    c550:	43 24       	jz	$+136    	;abs 0xc5d8
    c552:	7f 90 73 00 	cmp.b	#115,	r15	;#0x0073
    c556:	5d 20       	jnz	$+188    	;abs 0xc612
    c558:	09 4b       	mov	r11,	r9	
    c55a:	29 53       	incd	r9		
    c55c:	2f 4b       	mov	@r11,	r15	
    c55e:	b0 12 34 c4 	call	#0xc434	
    c562:	05 3c       	jmp	$+12     	;abs 0xc56e
    c564:	09 4b       	mov	r11,	r9	
    c566:	29 53       	incd	r9		
    c568:	6f 4b       	mov.b	@r11,	r15	
    c56a:	b0 12 26 c6 	call	#0xc626	
    c56e:	0b 49       	mov	r9,	r11	
    c570:	52 3c       	jmp	$+166    	;abs 0xc616
    c572:	09 4b       	mov	r11,	r9	
    c574:	29 53       	incd	r9		
    c576:	2b 4b       	mov	@r11,	r11	
    c578:	7f 90 69 00 	cmp.b	#105,	r15	;#0x0069
    c57c:	08 20       	jnz	$+18     	;abs 0xc58e
    c57e:	0b 93       	tst	r11		
    c580:	06 34       	jge	$+14     	;abs 0xc58e
    c582:	3b e3       	inv	r11		
    c584:	1b 53       	inc	r11		
    c586:	7f 40 2d 00 	mov.b	#45,	r15	;#0x002d
    c58a:	b0 12 26 c6 	call	#0xc626	
    c58e:	3d 40 64 c9 	mov	#-13980,r13	;#0xc964
    c592:	0e 4b       	mov	r11,	r14	
    c594:	0f 43       	clr	r15		
    c596:	b0 12 bc c3 	call	#0xc3bc	
    c59a:	e9 3f       	jmp	$-44     	;abs 0xc56e
    c59c:	08 4b       	mov	r11,	r8	
    c59e:	28 52       	add	#4,	r8	;r2 As==10
    c5a0:	29 4b       	mov	@r11,	r9	
    c5a2:	1b 4b 02 00 	mov	2(r11),	r11	;0x0002(r11)
    c5a6:	7f 90 6c 00 	cmp.b	#108,	r15	;#0x006c
    c5aa:	0e 20       	jnz	$+30     	;abs 0xc5c8
    c5ac:	0b 93       	tst	r11		
    c5ae:	0c 34       	jge	$+26     	;abs 0xc5c8
    c5b0:	0c 49       	mov	r9,	r12	
    c5b2:	0d 4b       	mov	r11,	r13	
    c5b4:	3c e3       	inv	r12		
    c5b6:	3d e3       	inv	r13		
    c5b8:	1c 53       	inc	r12		
    c5ba:	0d 63       	adc	r13		
    c5bc:	09 4c       	mov	r12,	r9	
    c5be:	0b 4d       	mov	r13,	r11	
    c5c0:	7f 40 2d 00 	mov.b	#45,	r15	;#0x002d
    c5c4:	b0 12 26 c6 	call	#0xc626	
    c5c8:	3d 40 50 c9 	mov	#-14000,r13	;#0xc950
    c5cc:	0e 49       	mov	r9,	r14	
    c5ce:	0f 4b       	mov	r11,	r15	
    c5d0:	b0 12 bc c3 	call	#0xc3bc	
    c5d4:	0b 48       	mov	r8,	r11	
    c5d6:	1f 3c       	jmp	$+64     	;abs 0xc616
    c5d8:	09 4b       	mov	r11,	r9	
    c5da:	29 53       	incd	r9		
    c5dc:	2b 4b       	mov	@r11,	r11	
    c5de:	0f 4b       	mov	r11,	r15	
    c5e0:	8f 10       	swpb	r15		
    c5e2:	8f 11       	sxt	r15		
    c5e4:	0f 11       	rra	r15		
    c5e6:	0f 11       	rra	r15		
    c5e8:	0f 11       	rra	r15		
    c5ea:	0f 11       	rra	r15		
    c5ec:	b0 12 26 c4 	call	#0xc426	
    c5f0:	0f 4b       	mov	r11,	r15	
    c5f2:	8f 10       	swpb	r15		
    c5f4:	8f 11       	sxt	r15		
    c5f6:	b0 12 26 c4 	call	#0xc426	
    c5fa:	0f 4b       	mov	r11,	r15	
    c5fc:	0f 11       	rra	r15		
    c5fe:	0f 11       	rra	r15		
    c600:	0f 11       	rra	r15		
    c602:	0f 11       	rra	r15		
    c604:	b0 12 26 c4 	call	#0xc426	
    c608:	0f 4b       	mov	r11,	r15	
    c60a:	b0 12 26 c4 	call	#0xc426	
    c60e:	af 3f       	jmp	$-160    	;abs 0xc56e
    c610:	1a 53       	inc	r10		
    c612:	b0 12 26 c6 	call	#0xc626	
    c616:	6f 4a       	mov.b	@r10,	r15	
    c618:	4f 93       	tst.b	r15		
    c61a:	79 23       	jnz	$-268    	;abs 0xc50e
    c61c:	38 41       	pop	r8		
    c61e:	39 41       	pop	r9		
    c620:	3a 41       	pop	r10		
    c622:	3b 41       	pop	r11		
    c624:	30 41       	ret			

0000c626 <cio_printc>:
    c626:	b0 12 72 c7 	call	#0xc772	
    c62a:	30 41       	ret			

0000c62c <cio_getc>:
    c62c:	b0 12 86 c7 	call	#0xc786	
    c630:	30 41       	ret			

0000c632 <serial_clk_init>:
    c632:	f2 d0 06 00 	bis.b	#6,	&0x0026	;#0x0006
    c636:	26 00 
    c638:	f2 d0 06 00 	bis.b	#6,	&0x0041	;#0x0006
    c63c:	41 00 
    c63e:	f2 d0 80 ff 	bis.b	#-128,	&0x0061	;#0xff80
    c642:	61 00 
    c644:	3e 90 00 12 	cmp	#4608,	r14	;#0x1200
    c648:	04 20       	jnz	$+10     	;abs 0xc652
    c64a:	3f 90 7a 00 	cmp	#122,	r15	;#0x007a
    c64e:	67 20       	jnz	$+208    	;abs 0xc71e
    c650:	07 3c       	jmp	$+16     	;abs 0xc660
    c652:	3e 90 00 24 	cmp	#9216,	r14	;#0x2400
    c656:	63 20       	jnz	$+200    	;abs 0xc71e
    c658:	3f 90 f4 00 	cmp	#244,	r15	;#0x00f4
    c65c:	60 20       	jnz	$+194    	;abs 0xc71e
    c65e:	2a 3c       	jmp	$+86     	;abs 0xc6b4
    c660:	3d 90 00 84 	cmp	#-31744,r13	;#0x8400
    c664:	21 24       	jz	$+68     	;abs 0xc6a8
    c666:	3d 90 01 84 	cmp	#-31743,r13	;#0x8401
    c66a:	07 2c       	jc	$+16     	;abs 0xc67a
    c66c:	3d 90 80 25 	cmp	#9600,	r13	;#0x2580
    c670:	38 24       	jz	$+114    	;abs 0xc6e2
    c672:	3d 90 00 4b 	cmp	#19200,	r13	;#0x4b00
    c676:	35 20       	jnz	$+108    	;abs 0xc6e2
    c678:	0a 3c       	jmp	$+22     	;abs 0xc68e
    c67a:	3d 90 00 c2 	cmp	#-15872,r13	;#0xc200
    c67e:	42 24       	jz	$+134    	;abs 0xc704
    c680:	3d 90 00 e1 	cmp	#-7936,	r13	;#0xe100
    c684:	39 24       	jz	$+116    	;abs 0xc6f8
    c686:	3d 90 00 96 	cmp	#-27136,r13	;#0x9600
    c68a:	2b 20       	jnz	$+88     	;abs 0xc6e2
    c68c:	07 3c       	jmp	$+16     	;abs 0xc69c
    c68e:	f2 40 1a 00 	mov.b	#26,	&0x0062	;#0x001a
    c692:	62 00 
    c694:	f2 40 11 00 	mov.b	#17,	&0x0064	;#0x0011
    c698:	64 00 
    c69a:	5a 3c       	jmp	$+182    	;abs 0xc750
    c69c:	f2 40 0d 00 	mov.b	#13,	&0x0062	;#0x000d
    c6a0:	62 00 
    c6a2:	d2 43 64 00 	mov.b	#1,	&0x0064	;r3 As==01
    c6a6:	54 3c       	jmp	$+170    	;abs 0xc750
    c6a8:	e2 43 62 00 	mov.b	#2,	&0x0062	;r3 As==10
    c6ac:	f2 40 27 00 	mov.b	#39,	&0x0064	;#0x0027
    c6b0:	64 00 
    c6b2:	4e 3c       	jmp	$+158    	;abs 0xc750
    c6b4:	3d 90 00 84 	cmp	#-31744,r13	;#0x8400
    c6b8:	25 24       	jz	$+76     	;abs 0xc704
    c6ba:	3d 90 01 84 	cmp	#-31743,r13	;#0x8401
    c6be:	07 2c       	jc	$+16     	;abs 0xc6ce
    c6c0:	3d 90 80 25 	cmp	#9600,	r13	;#0x2580
    c6c4:	25 24       	jz	$+76     	;abs 0xc710
    c6c6:	3d 90 00 4b 	cmp	#19200,	r13	;#0x4b00
    c6ca:	22 20       	jnz	$+70     	;abs 0xc710
    c6cc:	0a 3c       	jmp	$+22     	;abs 0xc6e2
    c6ce:	3d 90 00 c2 	cmp	#-15872,r13	;#0xc200
    c6d2:	12 24       	jz	$+38     	;abs 0xc6f8
    c6d4:	3d 90 00 e1 	cmp	#-7936,	r13	;#0xe100
    c6d8:	08 24       	jz	$+18     	;abs 0xc6ea
    c6da:	3d 90 00 96 	cmp	#-27136,r13	;#0x9600
    c6de:	18 20       	jnz	$+50     	;abs 0xc710
    c6e0:	d6 3f       	jmp	$-82     	;abs 0xc68e
    c6e2:	f2 40 34 00 	mov.b	#52,	&0x0062	;#0x0034
    c6e6:	62 00 
    c6e8:	d5 3f       	jmp	$-84     	;abs 0xc694
    c6ea:	f2 40 11 00 	mov.b	#17,	&0x0062	;#0x0011
    c6ee:	62 00 
    c6f0:	f2 40 61 00 	mov.b	#97,	&0x0064	;#0x0061
    c6f4:	64 00 
    c6f6:	2c 3c       	jmp	$+90     	;abs 0xc750
    c6f8:	f2 42 62 00 	mov.b	#8,	&0x0062	;r2 As==11
    c6fc:	f2 40 b1 ff 	mov.b	#-79,	&0x0064	;#0xffb1
    c700:	64 00 
    c702:	26 3c       	jmp	$+78     	;abs 0xc750
    c704:	e2 42 62 00 	mov.b	#4,	&0x0062	;r2 As==10
    c708:	f2 40 3b 00 	mov.b	#59,	&0x0064	;#0x003b
    c70c:	64 00 
    c70e:	20 3c       	jmp	$+66     	;abs 0xc750
    c710:	f2 40 68 00 	mov.b	#104,	&0x0062	;#0x0068
    c714:	62 00 
    c716:	f2 40 31 00 	mov.b	#49,	&0x0064	;#0x0031
    c71a:	64 00 
    c71c:	19 3c       	jmp	$+52     	;abs 0xc750
    c71e:	3d 90 00 4b 	cmp	#19200,	r13	;#0x4b00
    c722:	0a 24       	jz	$+22     	;abs 0xc738
    c724:	3d 90 00 e1 	cmp	#-7936,	r13	;#0xe100
    c728:	0e 24       	jz	$+30     	;abs 0xc746
    c72a:	f2 40 06 00 	mov.b	#6,	&0x0062	;#0x0006
    c72e:	62 00 
    c730:	f2 40 81 ff 	mov.b	#-127,	&0x0064	;#0xff81
    c734:	64 00 
    c736:	0c 3c       	jmp	$+26     	;abs 0xc750
    c738:	f2 40 03 00 	mov.b	#3,	&0x0062	;#0x0003
    c73c:	62 00 
    c73e:	f2 40 41 00 	mov.b	#65,	&0x0064	;#0x0041
    c742:	64 00 
    c744:	05 3c       	jmp	$+12     	;abs 0xc750
    c746:	d2 43 62 00 	mov.b	#1,	&0x0062	;r3 As==01
    c74a:	f2 40 0f 00 	mov.b	#15,	&0x0064	;#0x000f
    c74e:	64 00 
    c750:	c2 43 63 00 	mov.b	#0,	&0x0063	;r3 As==00
    c754:	f2 f0 fe ff 	and.b	#-2,	&0x0061	;#0xfffe
    c758:	61 00 
    c75a:	30 41       	ret			

0000c75c <serial_init>:
    c75c:	0d 4f       	mov	r15,	r13	
    c75e:	3e 40 40 42 	mov	#16960,	r14	;#0x4240
    c762:	3f 40 0f 00 	mov	#15,	r15	;#0x000f
    c766:	b0 12 32 c6 	call	#0xc632	
    c76a:	30 41       	ret			

0000c76c <serial_send>:
    c76c:	c2 4f 67 00 	mov.b	r15,	&0x0067	
    c770:	30 41       	ret			

0000c772 <serial_send_blocking>:
    c772:	5e 42 03 00 	mov.b	&0x0003,r14	
    c776:	2e f3       	and	#2,	r14	;r3 As==10
    c778:	fc 27       	jz	$-6      	;abs 0xc772
    c77a:	c2 4f 67 00 	mov.b	r15,	&0x0067	
    c77e:	30 41       	ret			

0000c780 <serial_recv>:
    c780:	5f 42 66 00 	mov.b	&0x0066,r15	
    c784:	30 41       	ret			

0000c786 <serial_recv_blocking>:
    c786:	5f 42 03 00 	mov.b	&0x0003,r15	
    c78a:	1f f3       	and	#1,	r15	;r3 As==01
    c78c:	fc 27       	jz	$-6      	;abs 0xc786
    c78e:	5f 42 66 00 	mov.b	&0x0066,r15	
    c792:	30 41       	ret			

0000c794 <__divhi3>:
    c794:	0d 43       	clr	r13		
    c796:	0f 93       	tst	r15		
    c798:	04 34       	jge	$+10     	;abs 0xc7a2
    c79a:	3d 40 03 00 	mov	#3,	r13	;#0x0003
    c79e:	3f e3       	inv	r15		
    c7a0:	1f 53       	inc	r15		
    c7a2:	0e 93       	tst	r14		
    c7a4:	03 34       	jge	$+8      	;abs 0xc7ac
    c7a6:	5d e3       	xor.b	#1,	r13	;r3 As==01
    c7a8:	3e e3       	inv	r14		
    c7aa:	1e 53       	inc	r14		
    c7ac:	0d 12       	push	r13		
    c7ae:	b0 12 ce c7 	call	#0xc7ce	
    c7b2:	3d 41       	pop	r13		
    c7b4:	6d b3       	bit.b	#2,	r13	;r3 As==10
    c7b6:	02 24       	jz	$+6      	;abs 0xc7bc
    c7b8:	3e e3       	inv	r14		
    c7ba:	1e 53       	inc	r14		
    c7bc:	5d b3       	bit.b	#1,	r13	;r3 As==01
    c7be:	02 24       	jz	$+6      	;abs 0xc7c4
    c7c0:	3f e3       	inv	r15		
    c7c2:	1f 53       	inc	r15		
    c7c4:	30 41       	ret			

0000c7c6 <__modhi3>:
    c7c6:	b0 12 94 c7 	call	#0xc794	
    c7ca:	0f 4e       	mov	r14,	r15	
    c7cc:	30 41       	ret			

0000c7ce <__udivhi3>:
    c7ce:	7c 40 10 00 	mov.b	#16,	r12	;#0x0010
    c7d2:	0d 4e       	mov	r14,	r13	
    c7d4:	0e 43       	clr	r14		
    c7d6:	0f 5f       	rla	r15		
    c7d8:	0e 6e       	rlc	r14		
    c7da:	0e 9d       	cmp	r13,	r14	
    c7dc:	02 28       	jnc	$+6      	;abs 0xc7e2
    c7de:	0e 8d       	sub	r13,	r14	
    c7e0:	1f d3       	bis	#1,	r15	;r3 As==01
    c7e2:	1c 83       	dec	r12		
    c7e4:	f8 23       	jnz	$-14     	;abs 0xc7d6
    c7e6:	30 41       	ret			

0000c7e8 <__umodhi3>:
    c7e8:	b0 12 ce c7 	call	#0xc7ce	
    c7ec:	0f 4e       	mov	r14,	r15	
    c7ee:	30 41       	ret			

0000c7f0 <memset>:
    c7f0:	0b 12       	push	r11		
    c7f2:	0a 12       	push	r10		
    c7f4:	09 12       	push	r9		
    c7f6:	08 12       	push	r8		
    c7f8:	3d 90 06 00 	cmp	#6,	r13	;#0x0006
    c7fc:	09 2c       	jc	$+20     	;abs 0xc810
    c7fe:	0c 4f       	mov	r15,	r12	
    c800:	04 3c       	jmp	$+10     	;abs 0xc80a
    c802:	cc 4e 00 00 	mov.b	r14,	0(r12)	;0x0000(r12)
    c806:	1c 53       	inc	r12		
    c808:	3d 53       	add	#-1,	r13	;r3 As==11
    c80a:	0d 93       	tst	r13		
    c80c:	fa 23       	jnz	$-10     	;abs 0xc802
    c80e:	20 3c       	jmp	$+66     	;abs 0xc850
    c810:	4e 4e       	mov.b	r14,	r14	
    c812:	4b 4e       	mov.b	r14,	r11	
    c814:	0b 93       	tst	r11		
    c816:	03 24       	jz	$+8      	;abs 0xc81e
    c818:	0c 4b       	mov	r11,	r12	
    c81a:	8c 10       	swpb	r12		
    c81c:	0b dc       	bis	r12,	r11	
    c81e:	1f b3       	bit	#1,	r15	;r3 As==01
    c820:	06 24       	jz	$+14     	;abs 0xc82e
    c822:	3d 53       	add	#-1,	r13	;r3 As==11
    c824:	cf 4e 00 00 	mov.b	r14,	0(r15)	;0x0000(r15)
    c828:	09 4f       	mov	r15,	r9	
    c82a:	19 53       	inc	r9		
    c82c:	01 3c       	jmp	$+4      	;abs 0xc830
    c82e:	09 4f       	mov	r15,	r9	
    c830:	0c 4d       	mov	r13,	r12	
    c832:	12 c3       	clrc			
    c834:	0c 10       	rrc	r12		
    c836:	0a 49       	mov	r9,	r10	
    c838:	08 4c       	mov	r12,	r8	
    c83a:	8a 4b 00 00 	mov	r11,	0(r10)	;0x0000(r10)
    c83e:	2a 53       	incd	r10		
    c840:	38 53       	add	#-1,	r8	;r3 As==11
    c842:	fb 23       	jnz	$-8      	;abs 0xc83a
    c844:	0c 5c       	rla	r12		
    c846:	0c 59       	add	r9,	r12	
    c848:	1d f3       	and	#1,	r13	;r3 As==01
    c84a:	02 24       	jz	$+6      	;abs 0xc850
    c84c:	cc 4e 00 00 	mov.b	r14,	0(r12)	;0x0000(r12)
    c850:	38 41       	pop	r8		
    c852:	39 41       	pop	r9		
    c854:	3a 41       	pop	r10		
    c856:	3b 41       	pop	r11		
    c858:	30 41       	ret			

0000c85a <_unexpected_>:
    c85a:	00 13       	reti			

Disassembly of section .rodata:

0000c85c <_dv-0xf4>:
    c85c:	25 69       	addc	@r9,	r5	
    c85e:	20 25       	jz	$+578    	;abs 0xcaa0
    c860:	69 0a       	.word	0x0a69;	????	
    c862:	0d 00       	.word	0x000d;	????	
    c864:	61 72       	subc.b	#4,	r1	;r2 As==10
    c866:	67 73       	subc.b	#2,	r7	;r3 As==10
    c868:	20 67       	addc	@r7,	r0	
    c86a:	69 76       	subc.b	@r6,	r9	
    c86c:	65 6e       	addc.b	@r14,	r5	
    c86e:	3a 0a       	.word	0x0a3a;	????	
    c870:	0d 00       	.word	0x000d;	????	
    c872:	20 2d       	jc	$+578    	;abs 0xcab4
    c874:	20 25       	jz	$+578    	;abs 0xcab6
    c876:	73 0a       	.word	0x0a73;	????	
    c878:	0d 00       	.word	0x000d;	????	
    c87a:	25 73       	subc	#2,	r5	;r3 As==10
    c87c:	3a 20       	jnz	$+118    	;abs 0xc8f2
    c87e:	25 73       	subc	#2,	r5	;r3 As==10
    c880:	0a 0d       	.word	0x0d0a;	????	
    c882:	00 24       	jz	$+2      	;abs 0xc884
    c884:	20 00       	.word	0x0020;	????	
    c886:	0a 0a       	.word	0x0a0a;	????	
    c888:	0d 00       	.word	0x000d;	????	
    c88a:	45 52       	add.b	r2,	r5	
    c88c:	52 4f 52 2c 	mov.b	11346(r15),r2	;0x2c52(r15)
    c890:	20 75       	subc	@r5,	r0	
    c892:	6e 6b       	addc.b	@r11,	r14	
    c894:	6e 6f       	addc.b	@r15,	r14	
    c896:	77 6e       	addc.b	@r14+,	r7	
    c898:	20 63       	addc	#2,	r0	;r3 As==10
    c89a:	6f 6d       	addc.b	@r13,	r15	
    c89c:	6d 61       	addc.b	@r1,	r13	
    c89e:	6e 64       	addc.b	@r4,	r14	
    c8a0:	20 67       	addc	@r7,	r0	
    c8a2:	69 76       	subc.b	@r6,	r9	
    c8a4:	65 6e       	addc.b	@r14,	r5	
    c8a6:	0a 0d       	.word	0x0d0a;	????	
    c8a8:	00 45       	br	r5		
    c8aa:	52 52 4f 52 	add.b	&0x524f,r2	
    c8ae:	2c 20       	jnz	$+90     	;abs 0xc908
    c8b0:	61 6e       	addc.b	@r14,	r1	
    c8b2:	20 61       	addc	@r1,	r0	
    c8b4:	72 67       	addc.b	@r7+,	r2	
    c8b6:	75 65       	addc.b	@r5+,	r5	
    c8b8:	6d 65       	addc.b	@r5,	r13	
    c8ba:	6e 74       	subc.b	@r4,	r14	
    c8bc:	20 69       	addc	@r9,	r0	
    c8be:	73 20       	jnz	$+232    	;abs 0xc9a6
    c8c0:	74 6f       	addc.b	@r15+,	r4	
    c8c2:	6f 20       	jnz	$+224    	;abs 0xc9a2
    c8c4:	6c 65       	addc.b	@r5,	r12	
    c8c6:	6e 67       	addc.b	@r7,	r14	
    c8c8:	74 68       	addc.b	@r8+,	r4	
    c8ca:	79 0a       	.word	0x0a79;	????	
    c8cc:	0d 00       	.word	0x000d;	????	
    c8ce:	45 52       	add.b	r2,	r5	
    c8d0:	52 4f 52 2c 	mov.b	11346(r15),r2	;0x2c52(r15)
    c8d4:	20 74       	subc	@r4,	r0	
    c8d6:	6f 6f       	addc.b	@r15,	r15	
    c8d8:	20 6d       	addc	@r13,	r0	
    c8da:	61 6e       	addc.b	@r14,	r1	
    c8dc:	79 20       	jnz	$+244    	;abs 0xc9d0
    c8de:	61 72       	subc.b	#4,	r1	;r2 As==10
    c8e0:	67 75       	subc.b	@r5,	r7	
    c8e2:	65 6d       	addc.b	@r13,	r5	
    c8e4:	65 6e       	addc.b	@r14,	r5	
    c8e6:	74 73       	subc.b	#-1,	r4	;r3 As==11
    c8e8:	20 67       	addc	@r7,	r0	
    c8ea:	69 76       	subc.b	@r6,	r9	
    c8ec:	65 6e       	addc.b	@r14,	r5	
    c8ee:	0a 0d       	.word	0x0d0a;	????	
    c8f0:	00 0a       	.word	0x0a00;	????	
    c8f2:	00 68       	addc	r8,	r0	
    c8f4:	65 6c       	addc.b	@r12,	r5	
    c8f6:	70 00       	.word	0x0070;	????	
    c8f8:	6c 69       	addc.b	@r9,	r12	
    c8fa:	73 74       	.word	0x7473;	????	Illegal as 2-op instr
    c8fc:	20 61       	addc	@r1,	r0	
    c8fe:	76 61       	addc.b	@r1+,	r6	
    c900:	69 6c       	addc.b	@r12,	r9	
    c902:	61 62       	addc.b	#4,	r1	;r2 As==10
    c904:	6c 65       	addc.b	@r5,	r12	
    c906:	20 63       	addc	#2,	r0	;r3 As==10
    c908:	6f 6d       	addc.b	@r13,	r15	
    c90a:	6d 61       	addc.b	@r1,	r13	
    c90c:	6e 64       	addc.b	@r4,	r14	
    c90e:	73 00       	.word	0x0073;	????	
    c910:	61 72       	subc.b	#4,	r1	;r2 As==10
    c912:	67 73       	subc.b	#2,	r7	;r3 As==10
    c914:	00 70       	subc	r0,	r0	
    c916:	72 69       	addc.b	@r9+,	r2	
    c918:	6e 74       	subc.b	@r4,	r14	
    c91a:	20 62       	addc	#4,	r0	;r2 As==10
    c91c:	61 63       	addc.b	#2,	r1	;r3 As==10
    c91e:	6b 20       	jnz	$+216    	;abs 0xc9f6
    c920:	67 69       	addc.b	@r9,	r7	
    c922:	76 65       	addc.b	@r5+,	r6	
    c924:	6e 20       	jnz	$+222    	;abs 0xca02
    c926:	61 72       	subc.b	#4,	r1	;r2 As==10
    c928:	67 75       	subc.b	@r5,	r7	
    c92a:	6d 65       	addc.b	@r5,	r13	
    c92c:	6e 74       	subc.b	@r4,	r14	
    c92e:	73 00       	.word	0x0073;	????	
    c930:	64 69       	addc.b	@r9,	r4	
    c932:	76 64       	addc.b	@r4+,	r6	
    c934:	00 64       	addc	r4,	r0	
    c936:	69 76       	subc.b	@r6,	r9	
    c938:	69 64       	addc.b	@r4,	r9	
    c93a:	65 20       	jnz	$+204    	;abs 0xca06
    c93c:	61 20       	jnz	$+196    	;abs 0xca00
    c93e:	6e 75       	subc.b	@r5,	r14	
    c940:	6d 62       	addc.b	#4,	r13	;r2 As==10
    c942:	65 72       	subc.b	#4,	r5	;r2 As==10
    c944:	20 62       	addc	#4,	r0	;r2 As==10
    c946:	79 20       	jnz	$+244    	;abs 0xca3a
    c948:	61 6e       	addc.b	@r14,	r1	
    c94a:	6f 74       	subc.b	@r4,	r15	
    c94c:	68 65       	addc.b	@r5,	r8	
    c94e:	72 00       	.word	0x0072;	????	

0000c950 <_dv>:
    c950:	00 ca       	bic	r10,	r0	
    c952:	9a 3b       	jl	$-202    	;abs 0xc888
    c954:	00 e1       	xor	r1,	r0	
    c956:	f5 05       	.word	0x05f5;	????	
    c958:	80 96 98 00 	cmp	r6,	152(r0)	;PC rel. 0xc9f2
    c95c:	40 42       	br	r2		
    c95e:	0f 00       	.word	0x000f;	????	
    c960:	a0 86 01 00 	sub	@r6,	1(r0)	;PC rel. 0xc963
    c964:	10 27       	jz	$-478    	;abs 0xc786
    c966:	00 00       	.word	0x0000;	????	
    c968:	e8 03       	.word	0x03e8;	????	
    c96a:	00 00       	.word	0x0000;	????	
    c96c:	64 00       	.word	0x0064;	????	
    c96e:	00 00       	.word	0x0000;	????	
    c970:	0a 00       	.word	0x000a;	????	
    c972:	00 00       	.word	0x0000;	????	
    c974:	01 00       	.word	0x0001;	????	
	...

0000c978 <hex.1308>:
    c978:	30 31       	jn	$+610    	;abs 0xcbda
    c97a:	32 33       	jn	$-410    	;abs 0xc7e0
    c97c:	34 35       	jge	$+618    	;abs 0xcbe6
    c97e:	36 37       	jge	$-402    	;abs 0xc7ec
    c980:	38 39       	jl	$+626    	;abs 0xcbf2
    c982:	41 42       	mov.b	r2,	r1	
    c984:	43 44       	.word	0x4443;	????	Illegal as 2-op instr
    c986:	45 46       	mov.b	r6,	r5	

Disassembly of section .data:

00000200 <__data_start>:
 200:	03 00       	.word	0x0003;	????	
 202:	f3 c8       	bic.b	@r8+,	#1	;r3 As==01
 204:	f8 c8 a4 c1 	bic.b	@r8+,	-15964(r8);0xc1a4(r8)
 208:	10 c9 15 c9 	bic	-14059(r9),r0	;0xc915(r9)
 20c:	64 c1       	bic.b	@r1,	r4	
 20e:	30 c9       	bic	@r9+,	r0	
 210:	35 c9       	bic	@r9+,	r5	
 212:	1e c1       	Address 0x0000000000000214 is out of bounds.
bic	-1(r1),	r14	;0xffff(r1)

Disassembly of section .noinit:

00000214 <__wdt_clear_value>:
	...

Disassembly of section .vectors:

0000ffe0 <__ivtbl_16>:
    ffe0:	1a c1 1a c1 	bic	-16102(r1),r10	;0xc11a(r1)
    ffe4:	1a c1 1a c1 	bic	-16102(r1),r10	;0xc11a(r1)
    ffe8:	1a c1 1a c1 	bic	-16102(r1),r10	;0xc11a(r1)
    ffec:	1a c1 1a c1 	bic	-16102(r1),r10	;0xc11a(r1)
    fff0:	1a c1 1a c1 	bic	-16102(r1),r10	;0xc11a(r1)
    fff4:	1a c1 1a c1 	bic	-16102(r1),r10	;0xc11a(r1)
    fff8:	1a c1 1a c1 	bic	-16102(r1),r10	;0xc11a(r1)
    fffc:	1a c1 00 c0 	bic	-16384(r1),r10	;0xc000(r1)

Disassembly of section .debug_aranges:

00000000 <.debug_aranges>:
   0:	10 00       	.word	0x0010;	????	
   2:	00 00       	.word	0x0000;	????	
   4:	02 00       	.word	0x0002;	????	
   6:	00 00       	.word	0x0000;	????	
   8:	00 00       	.word	0x0000;	????	
   a:	02 00       	.word	0x0002;	????	
   c:	e8 c1 12 00 	bic.b	@r1,	18(r8)	;0x0012(r8)
  10:	00 00       	.word	0x0000;	????	
  12:	00 00       	.word	0x0000;	????	
  14:	10 00       	.word	0x0010;	????	
  16:	00 00       	.word	0x0000;	????	
  18:	02 00       	.word	0x0002;	????	
  1a:	81 00       	.word	0x0081;	????	
  1c:	00 00       	.word	0x0000;	????	
  1e:	02 00       	.word	0x0002;	????	
  20:	fa c1 c2 01 	bic.b	@r1+,	450(r10);0x01c2(r10)
  24:	00 00       	.word	0x0000;	????	
  26:	00 00       	.word	0x0000;	????	
  28:	10 00       	.word	0x0010;	????	
  2a:	00 00       	.word	0x0000;	????	
  2c:	02 00       	.word	0x0002;	????	
  2e:	c0 03       	.word	0x03c0;	????	
  30:	00 00       	.word	0x0000;	????	
  32:	02 00       	.word	0x0002;	????	
  34:	bc c3 6a 02 	bic	#-1,	618(r12);r3 As==11, 0x026a(r12)
  38:	00 00       	.word	0x0000;	????	
  3a:	00 00       	.word	0x0000;	????	
  3c:	10 00       	.word	0x0010;	????	
  3e:	00 00       	.word	0x0000;	????	
  40:	02 00       	.word	0x0002;	????	
  42:	14 06       	.word	0x0614;	????	
  44:	00 00       	.word	0x0000;	????	
  46:	02 00       	.word	0x0002;	????	
  48:	26 c6       	bic	@r6,	r6	
  4a:	0c 00       	.word	0x000c;	????	
  4c:	00 00       	.word	0x0000;	????	
  4e:	00 00       	.word	0x0000;	????	
  50:	10 00       	.word	0x0010;	????	
  52:	00 00       	.word	0x0000;	????	
  54:	02 00       	.word	0x0002;	????	
  56:	72 06       	.word	0x0672;	????	
  58:	00 00       	.word	0x0000;	????	
  5a:	02 00       	.word	0x0002;	????	
  5c:	32 c6       	bic	@r6+,	r2	
  5e:	62 01       	.word	0x0162;	????	
  60:	00 00       	.word	0x0000;	????	
  62:	00 00       	.word	0x0000;	????	
  64:	10 00       	.word	0x0010;	????	
  66:	00 00       	.word	0x0000;	????	
  68:	02 00       	.word	0x0002;	????	
  6a:	39 08       	.word	0x0839;	????	
  6c:	00 00       	.word	0x0000;	????	
  6e:	02 00       	.word	0x0002;	????	
  70:	94 c7 3a 00 	bic	58(r7),	0(r4)	;0x003a(r7), 0x0000(r4)
  74:	00 00 
  76:	00 00       	.word	0x0000;	????	
  78:	10 00       	.word	0x0010;	????	
  7a:	00 00       	.word	0x0000;	????	
  7c:	02 00       	.word	0x0002;	????	
  7e:	c1 08       	.word	0x08c1;	????	
  80:	00 00       	.word	0x0000;	????	
  82:	02 00       	.word	0x0002;	????	
  84:	ce c7 22 00 	bic.b	r7,	34(r14)	;0x0022(r14)
  88:	00 00       	.word	0x0000;	????	
  8a:	00 00       	.word	0x0000;	????	
  8c:	10 00       	.word	0x0010;	????	
  8e:	00 00       	.word	0x0000;	????	
  90:	02 00       	.word	0x0002;	????	
  92:	49 09       	.word	0x0949;	????	
  94:	00 00       	.word	0x0000;	????	
  96:	02 00       	.word	0x0002;	????	
  98:	f0 c7 6a 00 	bic.b	@r7+,	106(r0)	;PC rel. 0x0104
  9c:	00 00       	.word	0x0000;	????	
  9e:	00 00       	.word	0x0000;	????	
  a0:	10 00       	.word	0x0010;	????	
  a2:	00 00       	.word	0x0000;	????	
  a4:	02 00       	.word	0x0002;	????	
  a6:	47 0a       	.word	0x0a47;	????	
  a8:	00 00       	.word	0x0000;	????	
  aa:	02 00       	.word	0x0002;	????	
  ac:	00 c0       	bic	r0,	r0	
  ae:	0c 00       	.word	0x000c;	????	
  b0:	00 00       	.word	0x0000;	????	
  b2:	00 00       	.word	0x0000;	????	
  b4:	10 00       	.word	0x0010;	????	
  b6:	00 00       	.word	0x0000;	????	
  b8:	02 00       	.word	0x0002;	????	
  ba:	b6 0a       	.word	0x0ab6;	????	
  bc:	00 00       	.word	0x0000;	????	
  be:	02 00       	.word	0x0002;	????	
  c0:	0c c0       	bic	r0,	r12	
  c2:	04 00       	.word	0x0004;	????	
  c4:	00 00       	.word	0x0000;	????	
  c6:	00 00       	.word	0x0000;	????	
  c8:	10 00       	.word	0x0010;	????	
  ca:	00 00       	.word	0x0000;	????	
  cc:	02 00       	.word	0x0002;	????	
  ce:	25 0b       	.word	0x0b25;	????	
  d0:	00 00       	.word	0x0000;	????	
  d2:	02 00       	.word	0x0002;	????	
  d4:	10 c0 18 00 	bic	24(r0),	r0	;PC rel. 0x00ee
  d8:	00 00       	.word	0x0000;	????	
  da:	00 00       	.word	0x0000;	????	
  dc:	10 00       	.word	0x0010;	????	
  de:	00 00       	.word	0x0000;	????	
  e0:	02 00       	.word	0x0002;	????	
  e2:	94 0b       	.word	0x0b94;	????	
  e4:	00 00       	.word	0x0000;	????	
  e6:	02 00       	.word	0x0002;	????	
  e8:	28 c0       	bic	@r0,	r8	
  ea:	16 00       	.word	0x0016;	????	
  ec:	00 00       	.word	0x0000;	????	
  ee:	00 00       	.word	0x0000;	????	
  f0:	10 00       	.word	0x0010;	????	
  f2:	00 00       	.word	0x0000;	????	
  f4:	02 00       	.word	0x0002;	????	
  f6:	03 0c       	.word	0x0c03;	????	
  f8:	00 00       	.word	0x0000;	????	
  fa:	02 00       	.word	0x0002;	????	
  fc:	14 c1 06 00 	bic	6(r1),	r4	;0x0006(r1)
 100:	00 00       	.word	0x0000;	????	
 102:	00 00       	.word	0x0000;	????	
 104:	10 00       	.word	0x0010;	????	
 106:	00 00       	.word	0x0000;	????	
 108:	02 00       	.word	0x0002;	????	
 10a:	72 0c       	.word	0x0c72;	????	
 10c:	00 00       	.word	0x0000;	????	
 10e:	02 00       	.word	0x0002;	????	
 110:	5a c8 02 00 	bic.b	2(r8),	r10	;0x0002(r8)
 114:	00 00       	.word	0x0000;	????	
	...

Disassembly of section .debug_info:

00000000 <.debug_info>:
   0:	7d 00       	.word	0x007d;	????	
   2:	00 00       	.word	0x0000;	????	
   4:	02 00       	.word	0x0002;	????	
   6:	00 00       	.word	0x0000;	????	
   8:	00 00       	.word	0x0000;	????	
   a:	02 01       	.word	0x0102;	????	
   c:	00 00       	.word	0x0000;	????	
   e:	00 00       	.word	0x0000;	????	
  10:	e8 c1 fa c1 	bic.b	@r1,	-15878(r8);0xc1fa(r8)
  14:	64 69       	addc.b	@r9,	r4	
  16:	76 64       	addc.b	@r4+,	r6	
  18:	2e 53       	incd	r14		
  1a:	00 2f       	jc	$-510    	;abs 0xfe1c
  1c:	55 73       	subc.b	#1,	r5	;r3 As==01
  1e:	65 72       	subc.b	#4,	r5	;r2 As==10
  20:	73 2f       	jc	$-280    	;abs 0xff08
  22:	6f 6c       	addc.b	@r12,	r15	
  24:	69 76       	subc.b	@r6,	r9	
  26:	65 72       	subc.b	#4,	r5	;r2 As==10
  28:	73 61       	.word	0x6173;	????	Illegal as 2-op instr
  2a:	6e 63       	addc.b	#2,	r14	;r3 As==10
  2c:	68 65       	addc.b	@r5,	r8	
  2e:	7a 2f       	jc	$-266    	;abs 0xff24
  30:	44 6f       	addc.b	r15,	r4	
  32:	63 75       	.word	0x7563;	????	Illegal as 2-op instr
  34:	6d 65       	addc.b	@r5,	r13	
  36:	6e 74       	subc.b	@r4,	r14	
  38:	73 2f       	jc	$-280    	;abs 0xff20
  3a:	53 63       	.word	0x6353;	????	Illegal as 2-op instr
  3c:	68 6f       	addc.b	@r15,	r8	
  3e:	6f 6c       	addc.b	@r12,	r15	
  40:	2f 43       	mov	#2,	r15	;r3 As==10
  42:	53 20       	jnz	$+168    	;abs 0xea
  44:	32 32       	jn	$-922    	;abs 0xfcaa
  46:	33 30       	jn	$+104    	;abs 0xae
  48:	20 2d       	jc	$+578    	;abs 0x28a
  4a:	20 43       	br	#2		;r3 As==10
  4c:	6f 6d       	addc.b	@r13,	r15	
  4e:	70 75       	subc.b	@r5+,	r0	
  50:	74 65       	addc.b	@r5+,	r4	
  52:	72 20       	jnz	$+230    	;abs 0x138
  54:	4f 72       	subc.b	r2,	r15	
  56:	67 61       	addc.b	@r1,	r7	
  58:	6e 69       	addc.b	@r9,	r14	
  5a:	7a 61       	addc.b	@r1+,	r10	
  5c:	74 69       	addc.b	@r9+,	r4	
  5e:	6f 6e       	addc.b	@r14,	r15	
  60:	20 61       	addc	@r1,	r0	
  62:	6e 64       	addc.b	@r4,	r14	
  64:	20 41       	br	@r1		
  66:	73 73       	.word	0x7373;	????	Illegal as 2-op instr
  68:	65 6d       	addc.b	@r13,	r5	
  6a:	62 6c       	addc.b	@r12,	r2	
  6c:	79 2f       	jc	$-268    	;abs 0xff60
  6e:	61 31       	jn	$+708    	;abs 0x332
  70:	00 47       	br	r7		
  72:	4e 55       	add.b	r5,	r14	
  74:	20 41       	br	@r1		
  76:	53 20       	jnz	$+168    	;abs 0x11e
  78:	32 2e       	jc	$-922    	;abs 0xfcde
  7a:	32 31       	jn	$+614    	;abs 0x2e0
  7c:	2e 31       	jn	$+606    	;abs 0x2da
  7e:	00 01       	.word	0x0100;	????	
  80:	80 3b       	jl	$-254    	;abs 0xff82
  82:	03 00       	.word	0x0003;	????	
  84:	00 02       	.word	0x0200;	????	
  86:	00 14       	.word	0x1400;	????	
  88:	00 00       	.word	0x0000;	????	
  8a:	00 02       	.word	0x0200;	????	
  8c:	01 25       	jz	$+516    	;abs 0x290
  8e:	00 00       	.word	0x0000;	????	
  90:	00 01       	.word	0x0100;	????	
  92:	9d 00       	.word	0x009d;	????	
  94:	00 00       	.word	0x0000;	????	
  96:	19 01       	.word	0x0119;	????	
  98:	00 00       	.word	0x0000;	????	
  9a:	fa c1 bc c3 	bic.b	@r1+,	-15428(r10);0xc3bc(r10)
  9e:	3a 00       	.word	0x003a;	????	
  a0:	00 00       	.word	0x0000;	????	
  a2:	02 10       	rrc	r2		
  a4:	02 3d       	jmp	$+518    	;abs 0x2aa
  a6:	38 00       	.word	0x0038;	????	
  a8:	00 00       	.word	0x0000;	????	
  aa:	03 76       	.word	0x7603;	????	Illegal as 2-op instr
  ac:	61 6c       	addc.b	@r12,	r1	
  ae:	00 02       	.word	0x0200;	????	
  b0:	41 38       	jl	$+132    	;abs 0x134
  b2:	00 00       	.word	0x0000;	????	
  b4:	00 02       	.word	0x0200;	????	
  b6:	23 00       	.word	0x0023;	????	
  b8:	00 04       	.word	0x0400;	????	
  ba:	4f 00       	.word	0x004f;	????	
  bc:	00 00       	.word	0x0000;	????	
  be:	48 00       	.word	0x0048;	????	
  c0:	00 00       	.word	0x0000;	????	
  c2:	05 48       	mov	r8,	r5	
  c4:	00 00       	.word	0x0000;	????	
  c6:	00 0e       	.word	0x0e00;	????	
  c8:	00 06       	.word	0x0600;	????	
  ca:	02 07       	.word	0x0702;	????	
  cc:	ec 02       	.word	0x02ec;	????	
  ce:	00 00       	.word	0x0000;	????	
  d0:	06 01       	.word	0x0106;	????	
  d2:	06 92       	cmp	r2,	r6	
  d4:	00 00       	.word	0x0000;	????	
  d6:	00 07       	.word	0x0700;	????	
  d8:	d9 00       	.word	0x00d9;	????	
  da:	00 00       	.word	0x0000;	????	
  dc:	02 42       	mov	r2,	r2	
  de:	21 00       	.word	0x0021;	????	
  e0:	00 00       	.word	0x0000;	????	
  e2:	02 52       	rla	r2		
  e4:	02 47       	mov	r7,	r2	
  e6:	86 00       	.word	0x0086;	????	
  e8:	00 00       	.word	0x0000;	????	
  ea:	08 97       	cmp	r7,	r8	
  ec:	00 00       	.word	0x0000;	????	
  ee:	00 02       	.word	0x0200;	????	
  f0:	4b 86       	sub.b	r6,	r11	
  f2:	00 00       	.word	0x0000;	????	
  f4:	00 02       	.word	0x0200;	????	
  f6:	23 00       	.word	0x0023;	????	
  f8:	08 84       	sub	r4,	r8	
  fa:	00 00       	.word	0x0000;	????	
  fc:	00 02       	.word	0x0200;	????	
  fe:	50 8d 00 00 	sub.b	0(r13),	r0	;0x0000(r13)
 102:	00 02       	.word	0x0200;	????	
 104:	23 02       	.word	0x0223;	????	
 106:	00 06       	.word	0x0600;	????	
 108:	01 08       	.word	0x0801;	????	
 10a:	89 00       	.word	0x0089;	????	
 10c:	00 00       	.word	0x0000;	????	
 10e:	04 56       	add	r6,	r4	
 110:	00 00       	.word	0x0000;	????	
 112:	00 9d       	cmp	r13,	r0	
 114:	00 00       	.word	0x0000;	????	
 116:	00 05       	.word	0x0500;	????	
 118:	48 00       	.word	0x0048;	????	
 11a:	00 00       	.word	0x0000;	????	
 11c:	04 00       	.word	0x0004;	????	
 11e:	07 7a       	subc	r10,	r7	
 120:	00 00       	.word	0x0000;	????	
 122:	00 02       	.word	0x0200;	????	
 124:	51 61 00 00 	addc.b	0(r1),	r1	;0x0000(r1)
 128:	00 02       	.word	0x0200;	????	
 12a:	06 02       	.word	0x0206;	????	
 12c:	56 db 00 00 	bis.b	0(r11),	r6	;0x0000(r11)
 130:	00 03       	.word	0x0300;	????	
 132:	63 6d       	.word	0x6d63;	????	Illegal as 2-op instr
 134:	64 00       	.word	0x0064;	????	
 136:	02 5a       	add	r10,	r2	
 138:	db 00       	.word	0x00db;	????	
 13a:	00 00       	.word	0x0000;	????	
 13c:	02 23       	jnz	$-506    	;abs 0xff42
 13e:	00 08       	.word	0x0800;	????	
 140:	e7 00       	.word	0x00e7;	????	
 142:	00 00       	.word	0x0000;	????	
 144:	02 5f       	add	r15,	r2	
 146:	db 00       	.word	0x00db;	????	
 148:	00 00       	.word	0x0000;	????	
 14a:	02 23       	jnz	$-506    	;abs 0xff50
 14c:	02 08       	.word	0x0802;	????	
 14e:	ec 00       	.word	0x00ec;	????	
 150:	00 00       	.word	0x0000;	????	
 152:	02 64       	addc	r4,	r2	
 154:	03 01       	.word	0x0103;	????	
 156:	00 00       	.word	0x0000;	????	
 158:	02 23       	jnz	$-506    	;abs 0xff5e
 15a:	04 00       	.word	0x0004;	????	
 15c:	09 02       	.word	0x0209;	????	
 15e:	e1 00       	.word	0x00e1;	????	
 160:	00 00       	.word	0x0000;	????	
 162:	0a 4f       	mov	r15,	r10	
 164:	00 00       	.word	0x0000;	????	
 166:	00 0b       	.word	0x0b00;	????	
 168:	01 f6       	and	r6,	r1	
 16a:	00 00       	.word	0x0000;	????	
 16c:	00 f6       	and	r6,	r0	
 16e:	00 00       	.word	0x0000;	????	
 170:	00 0c       	.word	0x0c00;	????	
 172:	fd 00       	.word	0x00fd;	????	
 174:	00 00       	.word	0x0000;	????	
 176:	00 0d       	.word	0x0d00;	????	
 178:	02 05       	.word	0x0502;	????	
 17a:	69 6e       	addc.b	@r14,	r9	
 17c:	74 00       	.word	0x0074;	????	
 17e:	09 02       	.word	0x0209;	????	
 180:	9d 00       	.word	0x009d;	????	
 182:	00 00       	.word	0x0000;	????	
 184:	09 02       	.word	0x0209;	????	
 186:	e6 00       	.word	0x00e6;	????	
 188:	00 00       	.word	0x0000;	????	
 18a:	07 cf       	bic	r15,	r7	
 18c:	00 00       	.word	0x0000;	????	
 18e:	00 02       	.word	0x0200;	????	
 190:	65 a8       	dadd.b	@r8,	r5	
 192:	00 00       	.word	0x0000;	????	
 194:	00 02       	.word	0x0200;	????	
 196:	02 02       	.word	0x0202;	????	
 198:	6a 39       	jl	$+726    	;abs 0x46e
 19a:	01 00       	.word	0x0001;	????	
 19c:	00 08       	.word	0x0800;	????	
 19e:	97 00       	.word	0x0097;	????	
 1a0:	00 00       	.word	0x0000;	????	
 1a2:	02 6e       	addc	r14,	r2	
 1a4:	86 00       	.word	0x0086;	????	
 1a6:	00 00       	.word	0x0000;	????	
 1a8:	02 23       	jnz	$-506    	;abs 0xffae
 1aa:	00 08       	.word	0x0800;	????	
 1ac:	06 00       	.word	0x0006;	????	
 1ae:	00 00       	.word	0x0000;	????	
 1b0:	02 73       	sbc	r2		
 1b2:	39 01       	.word	0x0139;	????	
 1b4:	00 00       	.word	0x0000;	????	
 1b6:	02 23       	jnz	$-506    	;abs 0xffbc
 1b8:	02 00       	.word	0x0002;	????	
 1ba:	04 09       	.word	0x0904;	????	
 1bc:	01 00       	.word	0x0001;	????	
 1be:	00 48       	br	r8		
 1c0:	01 00       	.word	0x0001;	????	
 1c2:	00 0e       	.word	0x0e00;	????	
 1c4:	48 00       	.word	0x0048;	????	
 1c6:	00 00       	.word	0x0000;	????	
 1c8:	00 07       	.word	0x0700;	????	
 1ca:	00 00       	.word	0x0000;	????	
 1cc:	00 00       	.word	0x0000;	????	
 1ce:	02 74       	subc	r4,	r2	
 1d0:	14 01       	.word	0x0114;	????	
 1d2:	00 00       	.word	0x0000;	????	
 1d4:	0f 01       	.word	0x010f;	????	
 1d6:	b7 00       	.word	0x00b7;	????	
 1d8:	00 00       	.word	0x0000;	????	
 1da:	01 16       	.word	0x1601;	????	
 1dc:	01 f6       	and	r6,	r1	
 1de:	00 00       	.word	0x0000;	????	
 1e0:	00 fa       	and	r10,	r0	
 1e2:	c1 12       	.word	0x12c1;	????	
 1e4:	c2 02       	.word	0x02c2;	????	
 1e6:	71 02       	.word	0x0271;	????	
 1e8:	88 01       	.word	0x0188;	????	
 1ea:	00 00       	.word	0x0000;	????	
 1ec:	10 73       	subc	#1,	r0	;r3 As==01
 1ee:	74 72       	subc.b	#8,	r4	;r2 As==11
 1f0:	00 01       	.word	0x0100;	????	
 1f2:	16 88 01 00 	sub	1(r8),	r6	;0x0001(r8)
 1f6:	00 00       	.word	0x0000;	????	
 1f8:	00 00       	.word	0x0000;	????	
 1fa:	00 11       	rra	r0		
 1fc:	69 00       	.word	0x0069;	????	
 1fe:	01 18       	.word	0x1801;	????	
 200:	f6 00       	.word	0x00f6;	????	
 202:	00 00       	.word	0x0000;	????	
 204:	12 00       	.word	0x0012;	????	
 206:	00 00       	.word	0x0000;	????	
 208:	00 09       	.word	0x0900;	????	
 20a:	02 4f       	mov	r15,	r2	
 20c:	00 00       	.word	0x0000;	????	
 20e:	00 12       	push	r0		
 210:	01 67       	addc	r7,	r1	
 212:	00 00       	.word	0x0000;	????	
 214:	00 01       	.word	0x0100;	????	
 216:	1f 01       	.word	0x011f;	????	
 218:	f6 00       	.word	0x00f6;	????	
 21a:	00 00       	.word	0x0000;	????	
 21c:	12 c2 56 c2 	bic	&0xc256,r2	
 220:	33 00       	.word	0x0033;	????	
 222:	00 00       	.word	0x0000;	????	
 224:	eb 01       	.word	0x01eb;	????	
 226:	00 00       	.word	0x0000;	????	
 228:	13 14       	.word	0x1413;	????	
 22a:	01 00       	.word	0x0001;	????	
 22c:	00 01       	.word	0x0100;	????	
 22e:	1f 88 01 00 	sub	1(r8),	r15	;0x0001(r8)
 232:	00 57       	add	r7,	r0	
 234:	00 00       	.word	0x0000;	????	
 236:	00 14       	.word	0x1400;	????	
 238:	ad 00       	.word	0x00ad;	????	
 23a:	00 00       	.word	0x0000;	????	
 23c:	01 1f       	.word	0x1f01;	????	
 23e:	88 01       	.word	0x0188;	????	
 240:	00 00       	.word	0x0000;	????	
 242:	01 5e       	add	r14,	r1	
 244:	14 c5 00 00 	bic	0(r5),	r4	;0x0000(r5)
 248:	00 01       	.word	0x0100;	????	
 24a:	1f f6 00 00 	and	0(r6),	r15	;0x0000(r6)
 24e:	00 01       	.word	0x0100;	????	
 250:	5d 14       	.word	0x145d;	????	
 252:	ca 00       	.word	0x00ca;	????	
 254:	00 00       	.word	0x0000;	????	
 256:	01 1f       	.word	0x1f01;	????	
 258:	f6 00       	.word	0x00f6;	????	
 25a:	00 00       	.word	0x0000;	????	
 25c:	01 5c       	add	r12,	r1	
 25e:	11 69 00 01 	addc	256(r9),r1	;0x0100(r9)
 262:	21 f6       	and	@r6,	r1	
 264:	00 00       	.word	0x0000;	????	
 266:	00 70       	subc	r0,	r0	
 268:	00 00       	.word	0x0000;	????	
 26a:	00 00       	.word	0x0000;	????	
 26c:	0f 01       	.word	0x010f;	????	
 26e:	04 01       	.word	0x0104;	????	
 270:	00 00       	.word	0x0000;	????	
 272:	01 32       	jn	$-1020   	;abs 0xfe76
 274:	01 f6       	and	r6,	r1	
 276:	00 00       	.word	0x0000;	????	
 278:	00 56       	add	r6,	r0	
 27a:	c2 86 c2 02 	sub.b	r6,	&0x02c2	
 27e:	71 02       	.word	0x0271;	????	
 280:	3c 02       	.word	0x023c;	????	
 282:	00 00       	.word	0x0000;	????	
 284:	10 73       	subc	#1,	r0	;r3 As==01
 286:	74 72       	subc.b	#8,	r4	;r2 As==11
 288:	00 01       	.word	0x0100;	????	
 28a:	32 88       	sub	@r8+,	r2	
 28c:	01 00       	.word	0x0001;	????	
 28e:	00 7b       	subc	r11,	r0	
 290:	00 00       	.word	0x0000;	????	
 292:	00 11       	rra	r0		
 294:	76 61       	addc.b	@r1+,	r6	
 296:	6c 00       	.word	0x006c;	????	
 298:	01 35       	jge	$+516    	;abs 0x49c
 29a:	f6 00       	.word	0x00f6;	????	
 29c:	00 00       	.word	0x0000;	????	
 29e:	86 00       	.word	0x0086;	????	
 2a0:	00 00       	.word	0x0000;	????	
 2a2:	11 69 00 01 	addc	256(r9),r1	;0x0100(r9)
 2a6:	36 f6       	and	@r6+,	r6	
 2a8:	00 00       	.word	0x0000;	????	
 2aa:	00 a0       	dadd	r0,	r0	
 2ac:	00 00       	.word	0x0000;	????	
 2ae:	00 11       	rra	r0		
 2b0:	63 00       	.word	0x0063;	????	
 2b2:	01 38       	jl	$+4      	;abs 0x2b6
 2b4:	4f 00       	.word	0x004f;	????	
 2b6:	00 00       	.word	0x0000;	????	
 2b8:	ac 00       	.word	0x00ac;	????	
 2ba:	00 00       	.word	0x0000;	????	
 2bc:	00 12       	push	r0		
 2be:	01 14       	.word	0x1401;	????	
 2c0:	00 00       	.word	0x0000;	????	
 2c2:	00 01       	.word	0x0100;	????	
 2c4:	44 01       	.word	0x0144;	????	
 2c6:	f6 00       	.word	0x00f6;	????	
 2c8:	00 00       	.word	0x0000;	????	
 2ca:	86 c2 2c c3 	bic	r2,	-15572(r6);0xc32c(r6)
 2ce:	c6 00       	.word	0x00c6;	????	
 2d0:	00 00       	.word	0x0000;	????	
 2d2:	b7 02       	.word	0x02b7;	????	
 2d4:	00 00       	.word	0x0000;	????	
 2d6:	13 0b       	.word	0x0b13;	????	
 2d8:	00 00       	.word	0x0000;	????	
 2da:	00 01       	.word	0x0100;	????	
 2dc:	44 88       	sub.b	r8,	r4	
 2de:	01 00       	.word	0x0001;	????	
 2e0:	00 0a       	.word	0x0a00;	????	
 2e2:	01 00       	.word	0x0001;	????	
 2e4:	00 15       	.word	0x1500;	????	
 2e6:	6c 65       	addc.b	@r5,	r12	
 2e8:	6e 00       	.word	0x006e;	????	
 2ea:	01 44       	mov	r4,	r1	
 2ec:	f6 00       	.word	0x00f6;	????	
 2ee:	00 00       	.word	0x0000;	????	
 2f0:	01 5e       	add	r14,	r1	
 2f2:	14 84 00 00 	sub	0(r4),	r4	;0x0000(r4)
 2f6:	00 01       	.word	0x0100;	????	
 2f8:	44 fd       	and.b	r13,	r4	
 2fa:	00 00       	.word	0x0000;	????	
 2fc:	00 01       	.word	0x0100;	????	
 2fe:	5d 11 69 00 	rra.b	105(r13)	;0x0069(r13)
 302:	01 46       	mov	r6,	r1	
 304:	f6 00       	.word	0x00f6;	????	
 306:	00 00       	.word	0x0000;	????	
 308:	23 01       	.word	0x0123;	????	
 30a:	00 00       	.word	0x0000;	????	
 30c:	11 6a 00 01 	addc	256(r10),r1	;0x0100(r10)
 310:	47 f6       	and.b	r6,	r7	
 312:	00 00       	.word	0x0000;	????	
 314:	00 36       	jge	$-1022   	;abs 0xff16
 316:	01 00       	.word	0x0001;	????	
 318:	00 16       	.word	0x1600;	????	
 31a:	75 00       	.word	0x0075;	????	
 31c:	00 00       	.word	0x0000;	????	
 31e:	01 48       	mov	r8,	r1	
 320:	f6 00       	.word	0x00f6;	????	
 322:	00 00       	.word	0x0000;	????	
 324:	41 01       	.word	0x0141;	????	
 326:	00 00       	.word	0x0000;	????	
 328:	16 b2 00 00 	bit	&0x0000,r6	
 32c:	00 01       	.word	0x0100;	????	
 32e:	49 f6       	and.b	r6,	r9	
 330:	00 00       	.word	0x0000;	????	
 332:	00 5b       	add	r11,	r0	
 334:	01 00       	.word	0x0001;	????	
 336:	00 00       	.word	0x0000;	????	
 338:	12 01       	.word	0x0112;	????	
 33a:	f1 00       	.word	0x00f1;	????	
 33c:	00 00       	.word	0x0000;	????	
 33e:	01 68       	addc	r8,	r1	
 340:	01 f6       	and	r6,	r1	
 342:	00 00       	.word	0x0000;	????	
 344:	00 2c       	jc	$+2      	;abs 0x346
 346:	c3 bc       	bit.b	r12,	#1	;r3 As==01
 348:	c3 6e       	addc.b	r14,	#1	;r3 As==01
 34a:	01 00       	.word	0x0001;	????	
 34c:	00 38       	jl	$+2      	;abs 0x34e
 34e:	03 00       	.word	0x0003;	????	
 350:	00 13       	reti			
 352:	06 00       	.word	0x0006;	????	
 354:	00 00       	.word	0x0000;	????	
 356:	01 68       	addc	r8,	r1	
 358:	38 03       	.word	0x0338;	????	
 35a:	00 00       	.word	0x0000;	????	
 35c:	b3 01       	.word	0x01b3;	????	
 35e:	00 00       	.word	0x0000;	????	
 360:	13 0b       	.word	0x0b13;	????	
 362:	00 00       	.word	0x0000;	????	
 364:	00 01       	.word	0x0100;	????	
 366:	68 88       	sub.b	@r8,	r8	
 368:	01 00       	.word	0x0001;	????	
 36a:	00 c5       	bic	r5,	r0	
 36c:	01 00       	.word	0x0001;	????	
 36e:	00 11       	rra	r0		
 370:	69 00       	.word	0x0069;	????	
 372:	01 6a       	addc	r10,	r1	
 374:	f6 00       	.word	0x00f6;	????	
 376:	00 00       	.word	0x0000;	????	
 378:	d7 01       	.word	0x01d7;	????	
 37a:	00 00       	.word	0x0000;	????	
 37c:	11 72 65 74 	subc	&0x7465,r1	
 380:	00 01       	.word	0x0100;	????	
 382:	6b f6       	and.b	@r6,	r11	
 384:	00 00       	.word	0x0000;	????	
 386:	00 ea       	xor	r10,	r0	
 388:	01 00       	.word	0x0001;	????	
 38a:	00 16       	.word	0x1600;	????	
 38c:	a5 00       	.word	0x00a5;	????	
 38e:	00 00       	.word	0x0000;	????	
 390:	01 6c       	addc	r12,	r1	
 392:	f6 00       	.word	0x00f6;	????	
 394:	00 00       	.word	0x0000;	????	
 396:	03 02       	.word	0x0203;	????	
 398:	00 00       	.word	0x0000;	????	
 39a:	16 5a 00 00 	add	0(r10),	r6	;0x0000(r10)
 39e:	00 01       	.word	0x0100;	????	
 3a0:	6d f6       	and.b	@r6,	r13	
 3a2:	00 00       	.word	0x0000;	????	
 3a4:	00 15       	.word	0x1500;	????	
 3a6:	02 00       	.word	0x0002;	????	
 3a8:	00 17       	.word	0x1700;	????	
 3aa:	84 00       	.word	0x0084;	????	
 3ac:	00 00       	.word	0x0000;	????	
 3ae:	01 6f       	addc	r15,	r1	
 3b0:	9d 00       	.word	0x009d;	????	
 3b2:	00 00       	.word	0x0000;	????	
 3b4:	03 91       	.word	0x9103;	????	Illegal as 2-op instr
 3b6:	a0 7f 00 09 	subc	@r15,	2304(r0);PC rel. 0x0cb8
 3ba:	02 48       	mov	r8,	r2	
 3bc:	01 00       	.word	0x0001;	????	
 3be:	00 00       	.word	0x0000;	????	
 3c0:	50 02       	.word	0x0250;	????	
 3c2:	00 00       	.word	0x0000;	????	
 3c4:	02 00       	.word	0x0002;	????	
 3c6:	4c 01       	.word	0x014c;	????	
 3c8:	00 00       	.word	0x0000;	????	
 3ca:	02 01       	.word	0x0102;	????	
 3cc:	25 00       	.word	0x0025;	????	
 3ce:	00 00       	.word	0x0000;	????	
 3d0:	01 d9       	bis	r9,	r1	
 3d2:	01 00       	.word	0x0001;	????	
 3d4:	00 5e       	add	r14,	r0	
 3d6:	01 00       	.word	0x0001;	????	
 3d8:	00 bc       	bit	r12,	r0	
 3da:	c3 26       	jz	$-632    	;abs 0x162
 3dc:	c6 3c       	jmp	$+398    	;abs 0x56a
 3de:	01 00       	.word	0x0001;	????	
 3e0:	00 02       	.word	0x0200;	????	
 3e2:	f2 01       	.word	0x01f2;	????	
 3e4:	00 00       	.word	0x0000;	????	
 3e6:	02 28       	jnc	$+6      	;abs 0x3ec
 3e8:	2c 00       	.word	0x002c;	????	
 3ea:	00 00       	.word	0x0000;	????	
 3ec:	03 02       	.word	0x0203;	????	
 3ee:	a3 01       	.word	0x01a3;	????	
 3f0:	00 00       	.word	0x0000;	????	
 3f2:	02 f9       	and	r9,	r2	
 3f4:	01 00       	.word	0x0001;	????	
 3f6:	00 02       	.word	0x0200;	????	
 3f8:	66 21       	jnz	$+718    	;abs 0x6c6
 3fa:	00 00       	.word	0x0000;	????	
 3fc:	00 04       	.word	0x0400;	????	
 3fe:	c0 01       	.word	0x01c0;	????	
 400:	00 00       	.word	0x0000;	????	
 402:	01 59       	add	r9,	r1	
 404:	01 bc       	bit	r12,	r1	
 406:	c3 26       	jz	$-632    	;abs 0x18e
 408:	c4 2e       	jc	$-630    	;abs 0x192
 40a:	02 00       	.word	0x0002;	????	
 40c:	00 87       	sub	r7,	r0	
 40e:	00 00       	.word	0x0000;	????	
 410:	00 05       	.word	0x0500;	????	
 412:	78 00       	.word	0x0078;	????	
 414:	01 59       	add	r9,	r1	
 416:	87 00       	.word	0x0087;	????	
 418:	00 00       	.word	0x0000;	????	
 41a:	62 02       	.word	0x0262;	????	
 41c:	00 00       	.word	0x0000;	????	
 41e:	05 64       	addc	r4,	r5	
 420:	70 00       	.word	0x0070;	????	
 422:	01 59       	add	r9,	r1	
 424:	8e 00       	.word	0x008e;	????	
 426:	00 00       	.word	0x0000;	????	
 428:	7e 02       	.word	0x027e;	????	
 42a:	00 00       	.word	0x0000;	????	
 42c:	06 63       	adc	r6		
 42e:	00 01       	.word	0x0100;	????	
 430:	5b 99 00 00 	cmp.b	0(r9),	r11	;0x0000(r9)
 434:	00 90       	cmp	r0,	r0	
 436:	02 00       	.word	0x0002;	????	
 438:	00 06       	.word	0x0600;	????	
 43a:	64 00       	.word	0x0064;	????	
 43c:	01 5c       	add	r12,	r1	
 43e:	87 00       	.word	0x0087;	????	
 440:	00 00       	.word	0x0000;	????	
 442:	a4 02       	.word	0x02a4;	????	
 444:	00 00       	.word	0x0000;	????	
 446:	00 07       	.word	0x0700;	????	
 448:	04 07       	.word	0x0704;	????	
 44a:	e7 02       	.word	0x02e7;	????	
 44c:	00 00       	.word	0x0000;	????	
 44e:	08 02       	.word	0x0208;	????	
 450:	94 00       	.word	0x0094;	????	
 452:	00 00       	.word	0x0000;	????	
 454:	09 87       	sub	r7,	r9	
 456:	00 00       	.word	0x0000;	????	
 458:	00 07       	.word	0x0700;	????	
 45a:	01 06       	.word	0x0601;	????	
 45c:	92 00       	.word	0x0092;	????	
 45e:	00 00       	.word	0x0000;	????	
 460:	0a d3       	bis	#0,	r10	;r3 As==00
 462:	01 00       	.word	0x0001;	????	
 464:	00 01       	.word	0x0100;	????	
 466:	53 01       	.word	0x0153;	????	
 468:	26 c4       	bic	@r4,	r6	
 46a:	34 c4       	bic	@r4+,	r4	
 46c:	02 71       	subc	r1,	r2	
 46e:	02 d0       	bis	r0,	r2	
 470:	00 00       	.word	0x0000;	????	
 472:	00 05       	.word	0x0500;	????	
 474:	6e 00       	.word	0x006e;	????	
 476:	01 53       	add	#0,	r1	;r3 As==00
 478:	d0 00       	.word	0x00d0;	????	
 47a:	00 00       	.word	0x0000;	????	
 47c:	bc 02       	.word	0x02bc;	????	
 47e:	00 00       	.word	0x0000;	????	
 480:	0b 68       	addc	r8,	r11	
 482:	65 78       	subc.b	@r8,	r5	
 484:	00 01       	.word	0x0100;	????	
 486:	55 e7 00 00 	xor.b	0(r7),	r5	;0x0000(r7)
 48a:	00 03       	.word	0x0300;	????	
 48c:	03 78       	.word	0x7803;	????	Illegal as 2-op instr
 48e:	c9 00       	.word	0x00c9;	????	
 490:	07 02       	.word	0x0207;	????	
 492:	07 ec       	xor	r12,	r7	
 494:	02 00       	.word	0x0002;	????	
 496:	00 0c       	.word	0x0c00;	????	
 498:	99 00       	.word	0x0099;	????	
 49a:	00 00       	.word	0x0000;	????	
 49c:	e7 00       	.word	0x00e7;	????	
 49e:	00 00       	.word	0x0000;	????	
 4a0:	0d d0       	bis	r0,	r13	
 4a2:	00 00       	.word	0x0000;	????	
 4a4:	00 0f       	.word	0x0f00;	????	
 4a6:	00 09       	.word	0x0900;	????	
 4a8:	d7 00       	.word	0x00d7;	????	
 4aa:	00 00       	.word	0x0000;	????	
 4ac:	0e 01       	.word	0x010e;	????	
 4ae:	e8 01       	.word	0x01e8;	????	
 4b0:	00 00       	.word	0x0000;	????	
 4b2:	01 18       	.word	0x1801;	????	
 4b4:	01 34       	jge	$+4      	;abs 0x4b8
 4b6:	c4 48 c4 c7 	mov.b	r8,	-14396(r4);0xc7c4(r4)
 4ba:	02 00       	.word	0x0002;	????	
 4bc:	00 1e       	.word	0x1e00;	????	
 4be:	01 00       	.word	0x0001;	????	
 4c0:	00 0f       	.word	0x0f00;	????	
 4c2:	0f 00       	.word	0x000f;	????	
 4c4:	00 00       	.word	0x0000;	????	
 4c6:	01 18       	.word	0x1801;	????	
 4c8:	1e 01       	.word	0x011e;	????	
 4ca:	00 00       	.word	0x0000;	????	
 4cc:	db 02       	.word	0x02db;	????	
 4ce:	00 00       	.word	0x0000;	????	
 4d0:	06 69       	addc	r9,	r6	
 4d2:	00 01       	.word	0x0100;	????	
 4d4:	1a 24       	jz	$+54     	;abs 0x50a
 4d6:	01 00       	.word	0x0001;	????	
 4d8:	00 e6       	xor	r6,	r0	
 4da:	02 00       	.word	0x0002;	????	
 4dc:	00 00       	.word	0x0000;	????	
 4de:	08 02       	.word	0x0208;	????	
 4e0:	99 00       	.word	0x0099;	????	
 4e2:	00 00       	.word	0x0000;	????	
 4e4:	10 02       	.word	0x0210;	????	
 4e6:	05 69       	addc	r9,	r5	
 4e8:	6e 74       	subc.b	@r4,	r14	
 4ea:	00 0e       	.word	0x0e00;	????	
 4ec:	01 b5       	bit	r5,	r1	
 4ee:	01 00       	.word	0x0001;	????	
 4f0:	00 01       	.word	0x0100;	????	
 4f2:	21 01       	.word	0x0121;	????	
 4f4:	48 c4       	bic.b	r4,	r8	
 4f6:	c2 c4 f2 02 	bic.b	r4,	&0x02f2	
 4fa:	00 00       	.word	0x0000;	????	
 4fc:	76 01       	.word	0x0176;	????	
 4fe:	00 00       	.word	0x0000;	????	
 500:	05 6e       	addc	r14,	r5	
 502:	00 01       	.word	0x0100;	????	
 504:	21 24       	jz	$+68     	;abs 0x548
 506:	01 00       	.word	0x0001;	????	
 508:	00 1e       	.word	0x1e00;	????	
 50a:	03 00       	.word	0x0003;	????	
 50c:	00 11       	rra	r0		
 50e:	01 02       	.word	0x0201;	????	
 510:	00 00       	.word	0x0000;	????	
 512:	01 23       	jnz	$-508    	;abs 0x316
 514:	76 01       	.word	0x0176;	????	
 516:	00 00       	.word	0x0000;	????	
 518:	02 91       	cmp	r1,	r2	
 51a:	58 06       	.word	0x0658;	????	
 51c:	69 00       	.word	0x0069;	????	
 51e:	01 24       	jz	$+4      	;abs 0x522
 520:	24 01       	.word	0x0124;	????	
 522:	00 00       	.word	0x0000;	????	
 524:	45 03       	.word	0x0345;	????	
 526:	00 00       	.word	0x0000;	????	
 528:	06 6a       	addc	r10,	r6	
 52a:	00 01       	.word	0x0100;	????	
 52c:	25 24       	jz	$+76     	;abs 0x578
 52e:	01 00       	.word	0x0001;	????	
 530:	00 50       	rla	r0		
 532:	03 00       	.word	0x0003;	????	
 534:	00 00       	.word	0x0000;	????	
 536:	0c 24       	jz	$+26     	;abs 0x550
 538:	01 00       	.word	0x0001;	????	
 53a:	00 86       	sub	r6,	r0	
 53c:	01 00       	.word	0x0001;	????	
 53e:	00 0d       	.word	0x0d00;	????	
 540:	d0 00       	.word	0x00d0;	????	
 542:	00 00       	.word	0x0000;	????	
 544:	0f 00       	.word	0x000f;	????	
 546:	0e 01       	.word	0x010e;	????	
 548:	53 01       	.word	0x0153;	????	
 54a:	00 00       	.word	0x0000;	????	
 54c:	01 36       	jge	$-1020   	;abs 0x150
 54e:	01 c2       	bic	r2,	r1	
 550:	c4 fc c4 5d 	and.b	r12,	24004(r4);0x5dc4(r4)
 554:	03 00       	.word	0x0003;	????	
 556:	00 c5       	bic	r5,	r0	
 558:	01 00       	.word	0x0001;	????	
 55a:	00 05       	.word	0x0500;	????	
 55c:	6e 00       	.word	0x006e;	????	
 55e:	01 36       	jge	$-1020   	;abs 0x162
 560:	24 01       	.word	0x0124;	????	
 562:	00 00       	.word	0x0000;	????	
 564:	79 03       	.word	0x0379;	????	
 566:	00 00       	.word	0x0000;	????	
 568:	0f ce       	bic	r14,	r15	
 56a:	01 00       	.word	0x0001;	????	
 56c:	00 01       	.word	0x0100;	????	
 56e:	36 24       	jz	$+110    	;abs 0x5dc
 570:	01 00       	.word	0x0001;	????	
 572:	00 8b       	sub	r11,	r0	
 574:	03 00       	.word	0x0003;	????	
 576:	00 06       	.word	0x0600;	????	
 578:	69 00       	.word	0x0069;	????	
 57a:	01 38       	jl	$+4      	;abs 0x57e
 57c:	24 01       	.word	0x0124;	????	
 57e:	00 00       	.word	0x0000;	????	
 580:	96 03       	.word	0x0396;	????	
 582:	00 00       	.word	0x0000;	????	
 584:	00 0e       	.word	0x0e00;	????	
 586:	01 98       	cmp	r8,	r1	
 588:	01 00       	.word	0x0001;	????	
 58a:	00 01       	.word	0x0100;	????	
 58c:	6a 01       	.word	0x016a;	????	
 58e:	fc c4 26 c6 	bic.b	@r4+,	-14810(r12);0xc626(r12)
 592:	a8 03       	.word	0x03a8;	????	
 594:	00 00       	.word	0x0000;	????	
 596:	28 02       	.word	0x0228;	????	
 598:	00 00       	.word	0x0000;	????	
 59a:	0f e1       	xor	r1,	r15	
 59c:	01 00       	.word	0x0001;	????	
 59e:	00 01       	.word	0x0100;	????	
 5a0:	6a 1e       	.word	0x1e6a;	????	
 5a2:	01 00       	.word	0x0001;	????	
 5a4:	00 d4       	bis	r4,	r0	
 5a6:	03 00       	.word	0x0003;	????	
 5a8:	00 12       	push	r0		
 5aa:	06 63       	adc	r6		
 5ac:	00 01       	.word	0x0100;	????	
 5ae:	6c 99       	cmp.b	@r9,	r12	
 5b0:	00 00       	.word	0x0000;	????	
 5b2:	00 09       	.word	0x0900;	????	
 5b4:	04 00       	.word	0x0004;	????	
 5b6:	00 06       	.word	0x0600;	????	
 5b8:	69 00       	.word	0x0069;	????	
 5ba:	01 6d       	addc	r13,	r1	
 5bc:	24 01       	.word	0x0124;	????	
 5be:	00 00       	.word	0x0000;	????	
 5c0:	76 04       	.word	0x0476;	????	
 5c2:	00 00       	.word	0x0000;	????	
 5c4:	06 6e       	addc	r14,	r6	
 5c6:	00 01       	.word	0x0100;	????	
 5c8:	6e 28       	jnc	$+222    	;abs 0x6a6
 5ca:	02 00       	.word	0x0002;	????	
 5cc:	00 98       	cmp	r8,	r0	
 5ce:	04 00       	.word	0x0004;	????	
 5d0:	00 06       	.word	0x0600;	????	
 5d2:	61 00       	.word	0x0061;	????	
 5d4:	01 70       	subc	r0,	r1	
 5d6:	32 00       	.word	0x0032;	????	
 5d8:	00 00       	.word	0x0000;	????	
 5da:	c3 04       	.word	0x04c3;	????	
 5dc:	00 00       	.word	0x0000;	????	
 5de:	13 c6       	.word	0xc613;	????	Illegal as 2-op instr
 5e0:	01 00       	.word	0x0001;	????	
 5e2:	00 01       	.word	0x0100;	????	
 5e4:	95 12 c6 00 	call	198(r5)	;0x00c6(r5)
 5e8:	07 04       	.word	0x0407;	????	
 5ea:	05 2b       	jnc	$-500    	;abs 0x3f6
 5ec:	03 00       	.word	0x0003;	????	
 5ee:	00 0c       	.word	0x0c00;	????	
 5f0:	87 00       	.word	0x0087;	????	
 5f2:	00 00       	.word	0x0000;	????	
 5f4:	3f 02       	.word	0x023f;	????	
 5f6:	00 00       	.word	0x0000;	????	
 5f8:	0d d0       	bis	r0,	r13	
 5fa:	00 00       	.word	0x0000;	????	
 5fc:	00 09       	.word	0x0900;	????	
 5fe:	00 0b       	.word	0x0b00;	????	
 600:	5f 64 76 00 	addc.b	118(r4),r15	;0x0076(r4)
 604:	01 44       	mov	r4,	r1	
 606:	4e 02       	.word	0x024e;	????	
 608:	00 00       	.word	0x0000;	????	
 60a:	03 03       	.word	0x0303;	????	
 60c:	50 c9 09 2f 	bic.b	12041(r9),r0	;0x2f09(r9)
 610:	02 00       	.word	0x0002;	????	
 612:	00 00       	.word	0x0000;	????	
 614:	5a 00       	.word	0x005a;	????	
 616:	00 00       	.word	0x0000;	????	
 618:	02 00       	.word	0x0002;	????	
 61a:	4c 02       	.word	0x024c;	????	
 61c:	00 00       	.word	0x0000;	????	
 61e:	02 01       	.word	0x0102;	????	
 620:	25 00       	.word	0x0025;	????	
 622:	00 00       	.word	0x0000;	????	
 624:	01 1c       	.word	0x1c01;	????	
 626:	02 00       	.word	0x0002;	????	
 628:	00 5e       	add	r14,	r0	
 62a:	01 00       	.word	0x0001;	????	
 62c:	00 26       	jz	$-1022   	;abs 0x22e
 62e:	c6 32       	jn	$-626    	;abs 0x3bc
 630:	c6 a5 02 00 	dadd.b	r5,	2(r6)	;0x0002(r6)
 634:	00 02       	.word	0x0200;	????	
 636:	01 11       	rra	r1		
 638:	02 00       	.word	0x0002;	????	
 63a:	00 01       	.word	0x0100;	????	
 63c:	17 01       	.word	0x0117;	????	
 63e:	26 c6       	bic	@r6,	r6	
 640:	2c c6       	bic	@r6,	r12	
 642:	02 71       	subc	r1,	r2	
 644:	02 43       	clr	r2		
 646:	00 00       	.word	0x0000;	????	
 648:	00 03       	.word	0x0300;	????	
 64a:	63 00       	.word	0x0063;	????	
 64c:	01 17       	.word	0x1701;	????	
 64e:	43 00       	.word	0x0043;	????	
 650:	00 00       	.word	0x0000;	????	
 652:	14 05       	.word	0x0514;	????	
 654:	00 00       	.word	0x0000;	????	
 656:	00 04       	.word	0x0400;	????	
 658:	01 06       	.word	0x0601;	????	
 65a:	92 00       	.word	0x0092;	????	
 65c:	00 00       	.word	0x0000;	????	
 65e:	05 01       	.word	0x0105;	????	
 660:	08 02       	.word	0x0208;	????	
 662:	00 00       	.word	0x0000;	????	
 664:	01 1c       	.word	0x1c01;	????	
 666:	43 00       	.word	0x0043;	????	
 668:	00 00       	.word	0x0000;	????	
 66a:	2c c6       	bic	@r6,	r12	
 66c:	32 c6       	bic	@r6+,	r2	
 66e:	02 71       	subc	r1,	r2	
 670:	02 00       	.word	0x0002;	????	
 672:	c3 01       	.word	0x01c3;	????	
 674:	00 00       	.word	0x0000;	????	
 676:	02 00       	.word	0x0002;	????	
 678:	a6 02       	.word	0x02a6;	????	
 67a:	00 00       	.word	0x0000;	????	
 67c:	02 01       	.word	0x0102;	????	
 67e:	25 00       	.word	0x0025;	????	
 680:	00 00       	.word	0x0000;	????	
 682:	01 40       	mov	r0,	r1	
 684:	02 00       	.word	0x0002;	????	
 686:	00 6c       	addc	r12,	r0	
 688:	02 00       	.word	0x0002;	????	
 68a:	00 32       	jn	$-1022   	;abs 0x28c
 68c:	c6 94 c7 e6 	cmp.b	r4,	-6457(r6);0xe6c7(r6)
 690:	02 00       	.word	0x0002;	????	
 692:	00 02       	.word	0x0200;	????	
 694:	02 07       	.word	0x0702;	????	
 696:	ec 02       	.word	0x02ec;	????	
 698:	00 00       	.word	0x0000;	????	
 69a:	02 01       	.word	0x0102;	????	
 69c:	06 8b       	sub	r11,	r6	
 69e:	00 00       	.word	0x0000;	????	
 6a0:	00 03       	.word	0x0300;	????	
 6a2:	02 05       	.word	0x0502;	????	
 6a4:	69 6e       	addc.b	@r14,	r9	
 6a6:	74 00       	.word	0x0074;	????	
 6a8:	02 04       	.word	0x0402;	????	
 6aa:	05 2b       	jnc	$-500    	;abs 0x4b6
 6ac:	03 00       	.word	0x0003;	????	
 6ae:	00 02       	.word	0x0200;	????	
 6b0:	08 05       	.word	0x0508;	????	
 6b2:	26 03       	.word	0x0326;	????	
 6b4:	00 00       	.word	0x0000;	????	
 6b6:	02 01       	.word	0x0102;	????	
 6b8:	08 89       	sub	r9,	r8	
 6ba:	00 00       	.word	0x0000;	????	
 6bc:	00 02       	.word	0x0200;	????	
 6be:	04 07       	.word	0x0704;	????	
 6c0:	e7 02       	.word	0x02e7;	????	
 6c2:	00 00       	.word	0x0000;	????	
 6c4:	02 08       	.word	0x0802;	????	
 6c6:	07 e2       	xor	r2,	r7	
 6c8:	02 00       	.word	0x0002;	????	
 6ca:	00 04       	.word	0x0400;	????	
 6cc:	01 d2       	bis	r2,	r1	
 6ce:	02 00       	.word	0x0002;	????	
 6d0:	00 01       	.word	0x0100;	????	
 6d2:	2a 01       	.word	0x012a;	????	
 6d4:	32 c6       	bic	@r6+,	r2	
 6d6:	5c c7 02 71 	bic.b	28930(r7),r12	;0x7102(r7)
 6da:	02 8d       	sub	r13,	r2	
 6dc:	00 00       	.word	0x0000;	????	
 6de:	00 05       	.word	0x0500;	????	
 6e0:	2b 02       	.word	0x022b;	????	
 6e2:	00 00       	.word	0x0000;	????	
 6e4:	01 2a       	jnc	$-1020   	;abs 0x2e8
 6e6:	36 00       	.word	0x0036;	????	
 6e8:	00 00       	.word	0x0000;	????	
 6ea:	06 5e       	add	r14,	r6	
 6ec:	93 02       	.word	0x0293;	????	
 6ee:	5f 93       	cmp.b	#1,	r15	;r3 As==01
 6f0:	02 05       	.word	0x0502;	????	
 6f2:	c9 02       	.word	0x02c9;	????	
 6f4:	00 00       	.word	0x0000;	????	
 6f6:	01 2a       	jnc	$-1020   	;abs 0x2fa
 6f8:	21 00       	.word	0x0021;	????	
 6fa:	00 00       	.word	0x0000;	????	
 6fc:	01 5d       	add	r13,	r1	
 6fe:	00 04       	.word	0x0400;	????	
 700:	01 1a       	.word	0x1a01;	????	
 702:	03 00       	.word	0x0003;	????	
 704:	00 01       	.word	0x0100;	????	
 706:	25 01       	.word	0x0125;	????	
 708:	5c c7 6c c7 	bic.b	-14484(r7),r12	;0xc76c(r7)
 70c:	02 71       	subc	r1,	r2	
 70e:	02 b1       	bit	r1,	r2	
 710:	00 00       	.word	0x0000;	????	
 712:	00 06       	.word	0x0600;	????	
 714:	c9 02       	.word	0x02c9;	????	
 716:	00 00       	.word	0x0000;	????	
 718:	01 25       	jz	$+516    	;abs 0x91c
 71a:	21 00       	.word	0x0021;	????	
 71c:	00 00       	.word	0x0000;	????	
 71e:	1f 05       	.word	0x051f;	????	
 720:	00 00       	.word	0x0000;	????	
 722:	00 04       	.word	0x0400;	????	
 724:	01 a7       	dadd	r7,	r1	
 726:	02 00       	.word	0x0002;	????	
 728:	00 01       	.word	0x0100;	????	
 72a:	5d 01       	.word	0x015d;	????	
 72c:	6c c7       	bic.b	@r7,	r12	
 72e:	72 c7       	bic.b	@r7+,	r2	
 730:	02 71       	subc	r1,	r2	
 732:	02 d3       	bis	#0,	r2	;r3 As==00
 734:	00 00       	.word	0x0000;	????	
 736:	00 05       	.word	0x0500;	????	
 738:	c4 02       	.word	0x02c4;	????	
 73a:	00 00       	.word	0x0000;	????	
 73c:	01 5d       	add	r13,	r1	
 73e:	44 00       	.word	0x0044;	????	
 740:	00 00       	.word	0x0000;	????	
 742:	01 5f       	add	r15,	r1	
 744:	00 04       	.word	0x0400;	????	
 746:	01 3f       	jmp	$-508    	;abs 0x54a
 748:	03 00       	.word	0x0003;	????	
 74a:	00 01       	.word	0x0100;	????	
 74c:	62 01       	.word	0x0162;	????	
 74e:	72 c7       	bic.b	@r7+,	r2	
 750:	80 c7 02 71 	bic	r7,	28930(r0);PC rel. 0x7854
 754:	02 f5       	and	r5,	r2	
 756:	00 00       	.word	0x0000;	????	
 758:	00 05       	.word	0x0500;	????	
 75a:	c4 02       	.word	0x02c4;	????	
 75c:	00 00       	.word	0x0000;	????	
 75e:	01 62       	addc	r2,	r1	
 760:	44 00       	.word	0x0044;	????	
 762:	00 00       	.word	0x0000;	????	
 764:	01 5f       	add	r15,	r1	
 766:	00 07       	.word	0x0700;	????	
 768:	01 34       	jge	$+4      	;abs 0x76c
 76a:	02 00       	.word	0x0002;	????	
 76c:	00 01       	.word	0x0100;	????	
 76e:	68 44       	mov.b	@r4,	r8	
 770:	00 00       	.word	0x0000;	????	
 772:	00 80       	sub	r0,	r0	
 774:	c7 86 c7 02 	sub.b	r6,	711(r7)	;0x02c7(r7)
 778:	71 02       	.word	0x0271;	????	
 77a:	07 01       	.word	0x0107;	????	
 77c:	05 03       	.word	0x0305;	????	
 77e:	00 00       	.word	0x0000;	????	
 780:	01 6d       	addc	r13,	r1	
 782:	44 00       	.word	0x0044;	????	
 784:	00 00       	.word	0x0000;	????	
 786:	86 c7 94 c7 	bic	r7,	-14444(r6);0xc794(r6)
 78a:	02 71       	subc	r1,	r2	
 78c:	02 08       	.word	0x0802;	????	
 78e:	56 03       	.word	0x0356;	????	
 790:	00 00       	.word	0x0000;	????	
 792:	02 a0       	dadd	r0,	r2	
 794:	54 03       	.word	0x0354;	????	
 796:	00 00       	.word	0x0000;	????	
 798:	2c 01       	.word	0x012c;	????	
 79a:	00 00       	.word	0x0000;	????	
 79c:	01 01       	.word	0x0101;	????	
 79e:	09 44       	mov	r4,	r9	
 7a0:	00 00       	.word	0x0000;	????	
 7a2:	00 0a       	.word	0x0a00;	????	
 7a4:	be 02       	.word	0x02be;	????	
 7a6:	00 00       	.word	0x0000;	????	
 7a8:	02 e4       	xor	r4,	r2	
 7aa:	01 bc       	bit	r12,	r1	
 7ac:	02 00       	.word	0x0002;	????	
 7ae:	00 2c       	jc	$+2      	;abs 0x7b0
 7b0:	01 00       	.word	0x0001;	????	
 7b2:	00 01       	.word	0x0100;	????	
 7b4:	01 0a       	.word	0x0a01;	????	
 7b6:	b5 02       	.word	0x02b5;	????	
 7b8:	00 00       	.word	0x0000;	????	
 7ba:	02 e6       	xor	r6,	r2	
 7bc:	01 b3       	bit	#0,	r1	;r3 As==00
 7be:	02 00       	.word	0x0002;	????	
 7c0:	00 2c       	jc	$+2      	;abs 0x7c2
 7c2:	01 00       	.word	0x0001;	????	
 7c4:	00 01       	.word	0x0100;	????	
 7c6:	01 0a       	.word	0x0a01;	????	
 7c8:	63 02       	.word	0x0263;	????	
 7ca:	00 00       	.word	0x0000;	????	
 7cc:	02 b3       	bit	#0,	r2	;r3 As==00
 7ce:	02 61       	addc	r1,	r2	
 7d0:	02 00       	.word	0x0002;	????	
 7d2:	00 2c       	jc	$+2      	;abs 0x7d4
 7d4:	01 00       	.word	0x0001;	????	
 7d6:	00 01       	.word	0x0100;	????	
 7d8:	01 0a       	.word	0x0a01;	????	
 7da:	5d 03       	.word	0x035d;	????	
 7dc:	00 00       	.word	0x0000;	????	
 7de:	02 b5       	bit	r5,	r2	
 7e0:	02 5b       	add	r11,	r2	
 7e2:	03 00       	.word	0x0003;	????	
 7e4:	00 2c       	jc	$+2      	;abs 0x7e6
 7e6:	01 00       	.word	0x0001;	????	
 7e8:	00 01       	.word	0x0100;	????	
 7ea:	01 0a       	.word	0x0a01;	????	
 7ec:	67 03       	.word	0x0367;	????	
 7ee:	00 00       	.word	0x0000;	????	
 7f0:	02 b7       	bit	r7,	r2	
 7f2:	02 65       	addc	r5,	r2	
 7f4:	03 00       	.word	0x0003;	????	
 7f6:	00 2c       	jc	$+2      	;abs 0x7f8
 7f8:	01 00       	.word	0x0001;	????	
 7fa:	00 01       	.word	0x0100;	????	
 7fc:	01 0a       	.word	0x0a01;	????	
 7fe:	36 03       	.word	0x0336;	????	
 800:	00 00       	.word	0x0000;	????	
 802:	02 b9       	bit	r9,	r2	
 804:	02 34       	jge	$+6      	;abs 0x80a
 806:	03 00       	.word	0x0003;	????	
 808:	00 2c       	jc	$+2      	;abs 0x80a
 80a:	01 00       	.word	0x0001;	????	
 80c:	00 01       	.word	0x0100;	????	
 80e:	01 0a       	.word	0x0a01;	????	
 810:	57 02       	.word	0x0257;	????	
 812:	00 00       	.word	0x0000;	????	
 814:	02 bd       	bit	r13,	r2	
 816:	02 55       	add	r5,	r2	
 818:	02 00       	.word	0x0002;	????	
 81a:	00 af       	dadd	r15,	r0	
 81c:	01 00       	.word	0x0001;	????	
 81e:	00 01       	.word	0x0100;	????	
 820:	01 0b       	.word	0x0b01;	????	
 822:	2c 01       	.word	0x012c;	????	
 824:	00 00       	.word	0x0000;	????	
 826:	0a fb       	and	r11,	r10	
 828:	02 00       	.word	0x0002;	????	
 82a:	00 02       	.word	0x0200;	????	
 82c:	bf 02       	.word	0x02bf;	????	
 82e:	f9 02       	.word	0x02f9;	????	
 830:	00 00       	.word	0x0000;	????	
 832:	2c 01       	.word	0x012c;	????	
 834:	00 00       	.word	0x0000;	????	
 836:	01 01       	.word	0x0101;	????	
 838:	00 84       	sub	r4,	r0	
 83a:	00 00       	.word	0x0000;	????	
 83c:	00 02       	.word	0x0200;	????	
 83e:	00 50       	rla	r0		
 840:	03 00       	.word	0x0003;	????	
 842:	00 02       	.word	0x0200;	????	
 844:	01 05       	.word	0x0501;	????	
 846:	04 00       	.word	0x0004;	????	
 848:	00 94       	cmp	r4,	r0	
 84a:	c7 ce c7 2e 	bic.b	r14,	11975(r7);0x2ec7(r7)
 84e:	2e 2f       	jc	$-418    	;abs 0x6ac
 850:	2e 2e       	jc	$-930    	;abs 0x4ae
 852:	2f 2e       	jc	$-928    	;abs 0x4b2
 854:	2e 2f       	jc	$-418    	;abs 0x6b2
 856:	2e 2e       	jc	$-930    	;abs 0x4b4
 858:	2f 67       	addc	@r7,	r15	
 85a:	63 63       	.word	0x6363;	????	Illegal as 2-op instr
 85c:	2f 6c       	addc	@r12,	r15	
 85e:	69 62       	addc.b	#4,	r9	;r2 As==10
 860:	67 63       	addc.b	#2,	r7	;r3 As==10
 862:	63 2f       	jc	$-312    	;abs 0x72a
 864:	2e 2e       	jc	$-930    	;abs 0x4c2
 866:	2f 67       	addc	@r7,	r15	
 868:	63 63       	.word	0x6363;	????	Illegal as 2-op instr
 86a:	2f 63       	addc	#2,	r15	;r3 As==10
 86c:	6f 6e       	addc.b	@r14,	r15	
 86e:	66 69       	addc.b	@r9,	r6	
 870:	67 2f       	jc	$-304    	;abs 0x740
 872:	6d 73       	subc.b	#2,	r13	;r3 As==10
 874:	70 34       	jge	$+226    	;abs 0x956
 876:	33 30       	jn	$+104    	;abs 0x8de
 878:	2f 6c       	addc	@r12,	r15	
 87a:	69 62       	addc.b	#4,	r9	;r2 As==10
 87c:	67 63       	addc.b	#2,	r7	;r3 As==10
 87e:	63 2e       	jc	$-824    	;abs 0x546
 880:	53 00       	.word	0x0053;	????	
 882:	2f 55       	add	@r5,	r15	
 884:	73 65       	.word	0x6573;	????	Illegal as 2-op instr
 886:	72 73       	subc.b	#-1,	r2	;r3 As==11
 888:	2f 72       	subc	#4,	r15	;r2 As==10
 88a:	77 65       	addc.b	@r5+,	r7	
 88c:	73 73       	.word	0x7373;	????	Illegal as 2-op instr
 88e:	65 6c       	addc.b	@r12,	r5	
 890:	73 2f       	jc	$-280    	;abs 0x778
 892:	6d 73       	subc.b	#2,	r13	;r3 As==10
 894:	70 67       	addc.b	@r7+,	r0	
 896:	63 63       	.word	0x6363;	????	Illegal as 2-op instr
 898:	2f 42       	mov	#4,	r15	;r2 As==10
 89a:	55 49 4c 44 	mov.b	17484(r9),r5	;0x444c(r9)
 89e:	2f 67       	addc	@r7,	r15	
 8a0:	63 63       	.word	0x6363;	????	Illegal as 2-op instr
 8a2:	2f 6d       	addc	@r13,	r15	
 8a4:	73 70       	.word	0x7073;	????	Illegal as 2-op instr
 8a6:	34 33       	jn	$-406    	;abs 0x710
 8a8:	30 2f       	jc	$-414    	;abs 0x70a
 8aa:	6c 69       	addc.b	@r9,	r12	
 8ac:	62 67       	addc.b	@r7,	r2	
 8ae:	63 63       	.word	0x6363;	????	Illegal as 2-op instr
 8b0:	00 47       	br	r7		
 8b2:	4e 55       	add.b	r5,	r14	
 8b4:	20 41       	br	@r1		
 8b6:	53 20       	jnz	$+168    	;abs 0x95e
 8b8:	32 2e       	jc	$-922    	;abs 0x51e
 8ba:	32 31       	jn	$+614    	;abs 0xb20
 8bc:	2e 31       	jn	$+606    	;abs 0xb1a
 8be:	00 01       	.word	0x0100;	????	
 8c0:	80 84 00 00 	sub	r4,	0(r0)	;PC rel. 0x08c2
 8c4:	00 02       	.word	0x0200;	????	
 8c6:	00 64       	addc	r4,	r0	
 8c8:	03 00       	.word	0x0003;	????	
 8ca:	00 02       	.word	0x0200;	????	
 8cc:	01 81       	sub	r1,	r1	
 8ce:	04 00       	.word	0x0004;	????	
 8d0:	00 ce       	bic	r14,	r0	
 8d2:	c7 f0 c7 2e 	and.b	r0,	11975(r7);0x2ec7(r7)
 8d6:	2e 2f       	jc	$-418    	;abs 0x734
 8d8:	2e 2e       	jc	$-930    	;abs 0x536
 8da:	2f 2e       	jc	$-928    	;abs 0x53a
 8dc:	2e 2f       	jc	$-418    	;abs 0x73a
 8de:	2e 2e       	jc	$-930    	;abs 0x53c
 8e0:	2f 67       	addc	@r7,	r15	
 8e2:	63 63       	.word	0x6363;	????	Illegal as 2-op instr
 8e4:	2f 6c       	addc	@r12,	r15	
 8e6:	69 62       	addc.b	#4,	r9	;r2 As==10
 8e8:	67 63       	addc.b	#2,	r7	;r3 As==10
 8ea:	63 2f       	jc	$-312    	;abs 0x7b2
 8ec:	2e 2e       	jc	$-930    	;abs 0x54a
 8ee:	2f 67       	addc	@r7,	r15	
 8f0:	63 63       	.word	0x6363;	????	Illegal as 2-op instr
 8f2:	2f 63       	addc	#2,	r15	;r3 As==10
 8f4:	6f 6e       	addc.b	@r14,	r15	
 8f6:	66 69       	addc.b	@r9,	r6	
 8f8:	67 2f       	jc	$-304    	;abs 0x7c8
 8fa:	6d 73       	subc.b	#2,	r13	;r3 As==10
 8fc:	70 34       	jge	$+226    	;abs 0x9de
 8fe:	33 30       	jn	$+104    	;abs 0x966
 900:	2f 6c       	addc	@r12,	r15	
 902:	69 62       	addc.b	#4,	r9	;r2 As==10
 904:	67 63       	addc.b	#2,	r7	;r3 As==10
 906:	63 2e       	jc	$-824    	;abs 0x5ce
 908:	53 00       	.word	0x0053;	????	
 90a:	2f 55       	add	@r5,	r15	
 90c:	73 65       	.word	0x6573;	????	Illegal as 2-op instr
 90e:	72 73       	subc.b	#-1,	r2	;r3 As==11
 910:	2f 72       	subc	#4,	r15	;r2 As==10
 912:	77 65       	addc.b	@r5+,	r7	
 914:	73 73       	.word	0x7373;	????	Illegal as 2-op instr
 916:	65 6c       	addc.b	@r12,	r5	
 918:	73 2f       	jc	$-280    	;abs 0x800
 91a:	6d 73       	subc.b	#2,	r13	;r3 As==10
 91c:	70 67       	addc.b	@r7+,	r0	
 91e:	63 63       	.word	0x6363;	????	Illegal as 2-op instr
 920:	2f 42       	mov	#4,	r15	;r2 As==10
 922:	55 49 4c 44 	mov.b	17484(r9),r5	;0x444c(r9)
 926:	2f 67       	addc	@r7,	r15	
 928:	63 63       	.word	0x6363;	????	Illegal as 2-op instr
 92a:	2f 6d       	addc	@r13,	r15	
 92c:	73 70       	.word	0x7073;	????	Illegal as 2-op instr
 92e:	34 33       	jn	$-406    	;abs 0x798
 930:	30 2f       	jc	$-414    	;abs 0x792
 932:	6c 69       	addc.b	@r9,	r12	
 934:	62 67       	addc.b	@r7,	r2	
 936:	63 63       	.word	0x6363;	????	Illegal as 2-op instr
 938:	00 47       	br	r7		
 93a:	4e 55       	add.b	r5,	r14	
 93c:	20 41       	br	@r1		
 93e:	53 20       	jnz	$+168    	;abs 0x9e6
 940:	32 2e       	jc	$-922    	;abs 0x5a6
 942:	32 31       	jn	$+614    	;abs 0xba8
 944:	2e 31       	jn	$+606    	;abs 0xba2
 946:	00 01       	.word	0x0100;	????	
 948:	80 fa 00 00 	and	r10,	0(r0)	;PC rel. 0x094a
 94c:	00 02       	.word	0x0200;	????	
 94e:	00 78       	subc	r8,	r0	
 950:	03 00       	.word	0x0003;	????	
 952:	00 02       	.word	0x0200;	????	
 954:	01 25       	jz	$+516    	;abs 0xb58
 956:	00 00       	.word	0x0000;	????	
 958:	00 01       	.word	0x0100;	????	
 95a:	cc 03       	.word	0x03cc;	????	
 95c:	00 00       	.word	0x0000;	????	
 95e:	9c 03       	.word	0x039c;	????	
 960:	00 00       	.word	0x0000;	????	
 962:	f0 c7 5a c8 	bic.b	@r7+,	-14246(r0);PC rel. 0xd1be
 966:	f2 04       	.word	0x04f2;	????	
 968:	00 00       	.word	0x0000;	????	
 96a:	02 01       	.word	0x0102;	????	
 96c:	06 8b       	sub	r11,	r6	
 96e:	00 00       	.word	0x0000;	????	
 970:	00 03       	.word	0x0300;	????	
 972:	02 05       	.word	0x0502;	????	
 974:	69 6e       	addc.b	@r14,	r9	
 976:	74 00       	.word	0x0074;	????	
 978:	02 04       	.word	0x0402;	????	
 97a:	05 2b       	jnc	$-500    	;abs 0x786
 97c:	03 00       	.word	0x0003;	????	
 97e:	00 02       	.word	0x0200;	????	
 980:	08 05       	.word	0x0508;	????	
 982:	26 03       	.word	0x0326;	????	
 984:	00 00       	.word	0x0000;	????	
 986:	02 01       	.word	0x0102;	????	
 988:	08 89       	sub	r9,	r8	
 98a:	00 00       	.word	0x0000;	????	
 98c:	00 02       	.word	0x0200;	????	
 98e:	02 07       	.word	0x0702;	????	
 990:	ec 02       	.word	0x02ec;	????	
 992:	00 00       	.word	0x0000;	????	
 994:	02 04       	.word	0x0402;	????	
 996:	07 e7       	xor	r7,	r7	
 998:	02 00       	.word	0x0002;	????	
 99a:	00 02       	.word	0x0200;	????	
 99c:	08 07       	.word	0x0708;	????	
 99e:	e2 02       	.word	0x02e2;	????	
 9a0:	00 00       	.word	0x0000;	????	
 9a2:	04 8e       	sub	r14,	r4	
 9a4:	03 00       	.word	0x0003;	????	
 9a6:	00 02       	.word	0x0200;	????	
 9a8:	30 3d       	jmp	$+610    	;abs 0xc0a
 9aa:	00 00       	.word	0x0000;	????	
 9ac:	00 02       	.word	0x0200;	????	
 9ae:	02 07       	.word	0x0702;	????	
 9b0:	7b 03       	.word	0x037b;	????	
 9b2:	00 00       	.word	0x0000;	????	
 9b4:	04 de       	bis	r14,	r4	
 9b6:	03 00       	.word	0x0003;	????	
 9b8:	00 02       	.word	0x0200;	????	
 9ba:	32 44       	mov	@r4+,	r2	
 9bc:	00 00       	.word	0x0000;	????	
 9be:	00 02       	.word	0x0200;	????	
 9c0:	01 06       	.word	0x0601;	????	
 9c2:	92 00       	.word	0x0092;	????	
 9c4:	00 00       	.word	0x0000;	????	
 9c6:	04 6f       	addc	r15,	r4	
 9c8:	03 00       	.word	0x0003;	????	
 9ca:	00 03       	.word	0x0300;	????	
 9cc:	d4 44 00 00 	mov.b	0(r4),	1280(r4);0x0000(r4), 0x0500(r4)
 9d0:	00 05 
 9d2:	01 95       	cmp	r5,	r1	
 9d4:	03 00       	.word	0x0003;	????	
 9d6:	00 01       	.word	0x0100;	????	
 9d8:	39 01       	.word	0x0139;	????	
 9da:	f5 00       	.word	0x00f5;	????	
 9dc:	00 00       	.word	0x0000;	????	
 9de:	f0 c7 5a c8 	bic.b	@r7+,	-14246(r0);PC rel. 0xd23a
 9e2:	2a 05       	.word	0x052a;	????	
 9e4:	00 00       	.word	0x0000;	????	
 9e6:	f5 00       	.word	0x00f5;	????	
 9e8:	00 00       	.word	0x0000;	????	
 9ea:	06 76       	subc	r6,	r6	
 9ec:	03 00       	.word	0x0003;	????	
 9ee:	00 01       	.word	0x0100;	????	
 9f0:	3a f5       	and	@r5+,	r10	
 9f2:	00 00       	.word	0x0000;	????	
 9f4:	00 01       	.word	0x0100;	????	
 9f6:	5f 07       	.word	0x075f;	????	
 9f8:	63 30       	jn	$+200    	;abs 0xac0
 9fa:	00 01       	.word	0x0100;	????	
 9fc:	3b 28       	jnc	$+120    	;abs 0xa74
 9fe:	00 00       	.word	0x0000;	????	
 a00:	00 56       	add	r6,	r0	
 a02:	05 00       	.word	0x0005;	????	
 a04:	00 08       	.word	0x0800;	????	
 a06:	e4 03       	.word	0x03e4;	????	
 a08:	00 00       	.word	0x0000;	????	
 a0a:	01 3c       	jmp	$+4      	;abs 0xa0e
 a0c:	7d 00       	.word	0x007d;	????	
 a0e:	00 00       	.word	0x0000;	????	
 a10:	61 05       	.word	0x0561;	????	
 a12:	00 00       	.word	0x0000;	????	
 a14:	09 74       	subc	r4,	r9	
 a16:	00 01       	.word	0x0100;	????	
 a18:	3f 7d       	subc	@r13+,	r15	
 a1a:	00 00       	.word	0x0000;	????	
 a1c:	00 6c       	addc	r12,	r0	
 a1e:	05 00       	.word	0x0005;	????	
 a20:	00 09       	.word	0x0900;	????	
 a22:	63 00       	.word	0x0063;	????	
 a24:	01 41       	mov	r1,	r1	
 a26:	6b 00       	.word	0x006b;	????	
 a28:	00 00       	.word	0x0000;	????	
 a2a:	be 05       	.word	0x05be;	????	
 a2c:	00 00       	.word	0x0000;	????	
 a2e:	09 64       	addc	r4,	r9	
 a30:	73 74       	.word	0x7473;	????	Illegal as 2-op instr
 a32:	00 01       	.word	0x0100;	????	
 a34:	43 f7       	.word	0xf743;	????	Illegal as 2-op instr
 a36:	00 00       	.word	0x0000;	????	
 a38:	00 c9       	bic	r9,	r0	
 a3a:	05 00       	.word	0x0005;	????	
 a3c:	00 00       	.word	0x0000;	????	
 a3e:	0a 02       	.word	0x020a;	????	
 a40:	0b 02       	.word	0x020b;	????	
 a42:	59 00       	.word	0x0059;	????	
 a44:	00 00       	.word	0x0000;	????	
 a46:	00 6b       	addc	r11,	r0	
 a48:	00 00       	.word	0x0000;	????	
 a4a:	00 02       	.word	0x0200;	????	
 a4c:	00 14       	.word	0x1400;	????	
 a4e:	04 00       	.word	0x0004;	????	
 a50:	00 02       	.word	0x0200;	????	
 a52:	01 d8       	bis	r8,	r1	
 a54:	05 00       	.word	0x0005;	????	
 a56:	00 00       	.word	0x0000;	????	
 a58:	c0 0c       	.word	0x0cc0;	????	
 a5a:	c0 2e       	jc	$-638    	;abs 0x7dc
 a5c:	2e 2f       	jc	$-418    	;abs 0x8ba
 a5e:	2e 2e       	jc	$-930    	;abs 0x6bc
 a60:	2f 2e       	jc	$-928    	;abs 0x6c0
 a62:	2e 2f       	jc	$-418    	;abs 0x8c0
 a64:	67 63       	addc.b	#2,	r7	;r3 As==10
 a66:	63 2f       	jc	$-312    	;abs 0x92e
 a68:	67 63       	addc.b	#2,	r7	;r3 As==10
 a6a:	63 2f       	jc	$-312    	;abs 0x932
 a6c:	63 6f       	.word	0x6f63;	????	Illegal as 2-op instr
 a6e:	6e 66       	addc.b	@r6,	r14	
 a70:	69 67       	addc.b	@r7,	r9	
 a72:	2f 6d       	addc	@r13,	r15	
 a74:	73 70       	.word	0x7073;	????	Illegal as 2-op instr
 a76:	34 33       	jn	$-406    	;abs 0x8e0
 a78:	30 2f       	jc	$-414    	;abs 0x8da
 a7a:	63 72       	.word	0x7263;	????	Illegal as 2-op instr
 a7c:	74 30       	jn	$+234    	;abs 0xb66
 a7e:	2e 53       	incd	r14		
 a80:	00 2f       	jc	$-510    	;abs 0x882
 a82:	55 73       	subc.b	#1,	r5	;r3 As==01
 a84:	65 72       	subc.b	#4,	r5	;r2 As==10
 a86:	73 2f       	jc	$-280    	;abs 0x96e
 a88:	72 77       	subc.b	@r7+,	r2	
 a8a:	65 73       	subc.b	#2,	r5	;r3 As==10
 a8c:	73 65       	.word	0x6573;	????	Illegal as 2-op instr
 a8e:	6c 73       	subc.b	#2,	r12	;r3 As==10
 a90:	2f 6d       	addc	@r13,	r15	
 a92:	73 70       	.word	0x7073;	????	Illegal as 2-op instr
 a94:	67 63       	addc.b	#2,	r7	;r3 As==10
 a96:	63 2f       	jc	$-312    	;abs 0x95e
 a98:	42 55       	add.b	r5,	r2	
 a9a:	49 4c       	mov.b	r12,	r9	
 a9c:	44 2f       	jc	$-374    	;abs 0x926
 a9e:	67 63       	addc.b	#2,	r7	;r3 As==10
 aa0:	63 2f       	jc	$-312    	;abs 0x968
 aa2:	67 63       	addc.b	#2,	r7	;r3 As==10
 aa4:	63 00       	.word	0x0063;	????	
 aa6:	47 4e       	mov.b	r14,	r7	
 aa8:	55 20       	jnz	$+172    	;abs 0xb54
 aaa:	41 53       	add.b	#0,	r1	;r3 As==00
 aac:	20 32       	jn	$-958    	;abs 0x6ee
 aae:	2e 32       	jn	$-930    	;abs 0x70c
 ab0:	31 2e       	jc	$-924    	;abs 0x714
 ab2:	31 00       	.word	0x0031;	????	
 ab4:	01 80       	sub	r0,	r1	
 ab6:	6b 00       	.word	0x006b;	????	
 ab8:	00 00       	.word	0x0000;	????	
 aba:	02 00       	.word	0x0002;	????	
 abc:	28 04       	.word	0x0428;	????	
 abe:	00 00       	.word	0x0000;	????	
 ac0:	02 01       	.word	0x0102;	????	
 ac2:	2e 06       	.word	0x062e;	????	
 ac4:	00 00       	.word	0x0000;	????	
 ac6:	0c c0       	bic	r0,	r12	
 ac8:	10 c0 2e 2e 	bic	11822(r0),r0	;PC rel. 0x38f8
 acc:	2f 2e       	jc	$-928    	;abs 0x72c
 ace:	2e 2f       	jc	$-418    	;abs 0x92c
 ad0:	2e 2e       	jc	$-930    	;abs 0x72e
 ad2:	2f 67       	addc	@r7,	r15	
 ad4:	63 63       	.word	0x6363;	????	Illegal as 2-op instr
 ad6:	2f 67       	addc	@r7,	r15	
 ad8:	63 63       	.word	0x6363;	????	Illegal as 2-op instr
 ada:	2f 63       	addc	#2,	r15	;r3 As==10
 adc:	6f 6e       	addc.b	@r14,	r15	
 ade:	66 69       	addc.b	@r9,	r6	
 ae0:	67 2f       	jc	$-304    	;abs 0x9b0
 ae2:	6d 73       	subc.b	#2,	r13	;r3 As==10
 ae4:	70 34       	jge	$+226    	;abs 0xbc6
 ae6:	33 30       	jn	$+104    	;abs 0xb4e
 ae8:	2f 63       	addc	#2,	r15	;r3 As==10
 aea:	72 74       	subc.b	@r4+,	r2	
 aec:	30 2e       	jc	$-926    	;abs 0x74e
 aee:	53 00       	.word	0x0053;	????	
 af0:	2f 55       	add	@r5,	r15	
 af2:	73 65       	.word	0x6573;	????	Illegal as 2-op instr
 af4:	72 73       	subc.b	#-1,	r2	;r3 As==11
 af6:	2f 72       	subc	#4,	r15	;r2 As==10
 af8:	77 65       	addc.b	@r5+,	r7	
 afa:	73 73       	.word	0x7373;	????	Illegal as 2-op instr
 afc:	65 6c       	addc.b	@r12,	r5	
 afe:	73 2f       	jc	$-280    	;abs 0x9e6
 b00:	6d 73       	subc.b	#2,	r13	;r3 As==10
 b02:	70 67       	addc.b	@r7+,	r0	
 b04:	63 63       	.word	0x6363;	????	Illegal as 2-op instr
 b06:	2f 42       	mov	#4,	r15	;r2 As==10
 b08:	55 49 4c 44 	mov.b	17484(r9),r5	;0x444c(r9)
 b0c:	2f 67       	addc	@r7,	r15	
 b0e:	63 63       	.word	0x6363;	????	Illegal as 2-op instr
 b10:	2f 67       	addc	@r7,	r15	
 b12:	63 63       	.word	0x6363;	????	Illegal as 2-op instr
 b14:	00 47       	br	r7		
 b16:	4e 55       	add.b	r5,	r14	
 b18:	20 41       	br	@r1		
 b1a:	53 20       	jnz	$+168    	;abs 0xbc2
 b1c:	32 2e       	jc	$-922    	;abs 0x782
 b1e:	32 31       	jn	$+614    	;abs 0xd84
 b20:	2e 31       	jn	$+606    	;abs 0xd7e
 b22:	00 01       	.word	0x0100;	????	
 b24:	80 6b 00 00 	addc	r11,	0(r0)	;PC rel. 0x0b26
 b28:	00 02       	.word	0x0200;	????	
 b2a:	00 3c       	jmp	$+2      	;abs 0xb2c
 b2c:	04 00       	.word	0x0004;	????	
 b2e:	00 02       	.word	0x0200;	????	
 b30:	01 82       	sub	r2,	r1	
 b32:	06 00       	.word	0x0006;	????	
 b34:	00 10       	rrc	r0		
 b36:	c0 28       	jnc	$+386    	;abs 0xcb8
 b38:	c0 2e       	jc	$-638    	;abs 0x8ba
 b3a:	2e 2f       	jc	$-418    	;abs 0x998
 b3c:	2e 2e       	jc	$-930    	;abs 0x79a
 b3e:	2f 2e       	jc	$-928    	;abs 0x79e
 b40:	2e 2f       	jc	$-418    	;abs 0x99e
 b42:	67 63       	addc.b	#2,	r7	;r3 As==10
 b44:	63 2f       	jc	$-312    	;abs 0xa0c
 b46:	67 63       	addc.b	#2,	r7	;r3 As==10
 b48:	63 2f       	jc	$-312    	;abs 0xa10
 b4a:	63 6f       	.word	0x6f63;	????	Illegal as 2-op instr
 b4c:	6e 66       	addc.b	@r6,	r14	
 b4e:	69 67       	addc.b	@r7,	r9	
 b50:	2f 6d       	addc	@r13,	r15	
 b52:	73 70       	.word	0x7073;	????	Illegal as 2-op instr
 b54:	34 33       	jn	$-406    	;abs 0x9be
 b56:	30 2f       	jc	$-414    	;abs 0x9b8
 b58:	63 72       	.word	0x7263;	????	Illegal as 2-op instr
 b5a:	74 30       	jn	$+234    	;abs 0xc44
 b5c:	2e 53       	incd	r14		
 b5e:	00 2f       	jc	$-510    	;abs 0x960
 b60:	55 73       	subc.b	#1,	r5	;r3 As==01
 b62:	65 72       	subc.b	#4,	r5	;r2 As==10
 b64:	73 2f       	jc	$-280    	;abs 0xa4c
 b66:	72 77       	subc.b	@r7+,	r2	
 b68:	65 73       	subc.b	#2,	r5	;r3 As==10
 b6a:	73 65       	.word	0x6573;	????	Illegal as 2-op instr
 b6c:	6c 73       	subc.b	#2,	r12	;r3 As==10
 b6e:	2f 6d       	addc	@r13,	r15	
 b70:	73 70       	.word	0x7073;	????	Illegal as 2-op instr
 b72:	67 63       	addc.b	#2,	r7	;r3 As==10
 b74:	63 2f       	jc	$-312    	;abs 0xa3c
 b76:	42 55       	add.b	r5,	r2	
 b78:	49 4c       	mov.b	r12,	r9	
 b7a:	44 2f       	jc	$-374    	;abs 0xa04
 b7c:	67 63       	addc.b	#2,	r7	;r3 As==10
 b7e:	63 2f       	jc	$-312    	;abs 0xa46
 b80:	67 63       	addc.b	#2,	r7	;r3 As==10
 b82:	63 00       	.word	0x0063;	????	
 b84:	47 4e       	mov.b	r14,	r7	
 b86:	55 20       	jnz	$+172    	;abs 0xc32
 b88:	41 53       	add.b	#0,	r1	;r3 As==00
 b8a:	20 32       	jn	$-958    	;abs 0x7cc
 b8c:	2e 32       	jn	$-930    	;abs 0x7ea
 b8e:	31 2e       	jc	$-924    	;abs 0x7f2
 b90:	31 00       	.word	0x0031;	????	
 b92:	01 80       	sub	r0,	r1	
 b94:	6b 00       	.word	0x006b;	????	
 b96:	00 00       	.word	0x0000;	????	
 b98:	02 00       	.word	0x0002;	????	
 b9a:	50 04       	.word	0x0450;	????	
 b9c:	00 00       	.word	0x0000;	????	
 b9e:	02 01       	.word	0x0102;	????	
 ba0:	dc 06       	.word	0x06dc;	????	
 ba2:	00 00       	.word	0x0000;	????	
 ba4:	28 c0       	bic	@r0,	r8	
 ba6:	3e c0 2e 2e 	bic	#11822,	r14	;#0x2e2e
 baa:	2f 2e       	jc	$-928    	;abs 0x80a
 bac:	2e 2f       	jc	$-418    	;abs 0xa0a
 bae:	2e 2e       	jc	$-930    	;abs 0x80c
 bb0:	2f 67       	addc	@r7,	r15	
 bb2:	63 63       	.word	0x6363;	????	Illegal as 2-op instr
 bb4:	2f 67       	addc	@r7,	r15	
 bb6:	63 63       	.word	0x6363;	????	Illegal as 2-op instr
 bb8:	2f 63       	addc	#2,	r15	;r3 As==10
 bba:	6f 6e       	addc.b	@r14,	r15	
 bbc:	66 69       	addc.b	@r9,	r6	
 bbe:	67 2f       	jc	$-304    	;abs 0xa8e
 bc0:	6d 73       	subc.b	#2,	r13	;r3 As==10
 bc2:	70 34       	jge	$+226    	;abs 0xca4
 bc4:	33 30       	jn	$+104    	;abs 0xc2c
 bc6:	2f 63       	addc	#2,	r15	;r3 As==10
 bc8:	72 74       	subc.b	@r4+,	r2	
 bca:	30 2e       	jc	$-926    	;abs 0x82c
 bcc:	53 00       	.word	0x0053;	????	
 bce:	2f 55       	add	@r5,	r15	
 bd0:	73 65       	.word	0x6573;	????	Illegal as 2-op instr
 bd2:	72 73       	subc.b	#-1,	r2	;r3 As==11
 bd4:	2f 72       	subc	#4,	r15	;r2 As==10
 bd6:	77 65       	addc.b	@r5+,	r7	
 bd8:	73 73       	.word	0x7373;	????	Illegal as 2-op instr
 bda:	65 6c       	addc.b	@r12,	r5	
 bdc:	73 2f       	jc	$-280    	;abs 0xac4
 bde:	6d 73       	subc.b	#2,	r13	;r3 As==10
 be0:	70 67       	addc.b	@r7+,	r0	
 be2:	63 63       	.word	0x6363;	????	Illegal as 2-op instr
 be4:	2f 42       	mov	#4,	r15	;r2 As==10
 be6:	55 49 4c 44 	mov.b	17484(r9),r5	;0x444c(r9)
 bea:	2f 67       	addc	@r7,	r15	
 bec:	63 63       	.word	0x6363;	????	Illegal as 2-op instr
 bee:	2f 67       	addc	@r7,	r15	
 bf0:	63 63       	.word	0x6363;	????	Illegal as 2-op instr
 bf2:	00 47       	br	r7		
 bf4:	4e 55       	add.b	r5,	r14	
 bf6:	20 41       	br	@r1		
 bf8:	53 20       	jnz	$+168    	;abs 0xca0
 bfa:	32 2e       	jc	$-922    	;abs 0x860
 bfc:	32 31       	jn	$+614    	;abs 0xe62
 bfe:	2e 31       	jn	$+606    	;abs 0xe5c
 c00:	00 01       	.word	0x0100;	????	
 c02:	80 6b 00 00 	addc	r11,	0(r0)	;PC rel. 0x0c04
 c06:	00 02       	.word	0x0200;	????	
 c08:	00 64       	addc	r4,	r0	
 c0a:	04 00       	.word	0x0004;	????	
 c0c:	00 02       	.word	0x0200;	????	
 c0e:	01 36       	jge	$-1020   	;abs 0x812
 c10:	07 00       	.word	0x0007;	????	
 c12:	00 14       	.word	0x1400;	????	
 c14:	c1 1a       	.word	0x1ac1;	????	
 c16:	c1 2e       	jc	$-636    	;abs 0x99a
 c18:	2e 2f       	jc	$-418    	;abs 0xa76
 c1a:	2e 2e       	jc	$-930    	;abs 0x878
 c1c:	2f 2e       	jc	$-928    	;abs 0x87c
 c1e:	2e 2f       	jc	$-418    	;abs 0xa7c
 c20:	67 63       	addc.b	#2,	r7	;r3 As==10
 c22:	63 2f       	jc	$-312    	;abs 0xaea
 c24:	67 63       	addc.b	#2,	r7	;r3 As==10
 c26:	63 2f       	jc	$-312    	;abs 0xaee
 c28:	63 6f       	.word	0x6f63;	????	Illegal as 2-op instr
 c2a:	6e 66       	addc.b	@r6,	r14	
 c2c:	69 67       	addc.b	@r7,	r9	
 c2e:	2f 6d       	addc	@r13,	r15	
 c30:	73 70       	.word	0x7073;	????	Illegal as 2-op instr
 c32:	34 33       	jn	$-406    	;abs 0xa9c
 c34:	30 2f       	jc	$-414    	;abs 0xa96
 c36:	63 72       	.word	0x7263;	????	Illegal as 2-op instr
 c38:	74 30       	jn	$+234    	;abs 0xd22
 c3a:	2e 53       	incd	r14		
 c3c:	00 2f       	jc	$-510    	;abs 0xa3e
 c3e:	55 73       	subc.b	#1,	r5	;r3 As==01
 c40:	65 72       	subc.b	#4,	r5	;r2 As==10
 c42:	73 2f       	jc	$-280    	;abs 0xb2a
 c44:	72 77       	subc.b	@r7+,	r2	
 c46:	65 73       	subc.b	#2,	r5	;r3 As==10
 c48:	73 65       	.word	0x6573;	????	Illegal as 2-op instr
 c4a:	6c 73       	subc.b	#2,	r12	;r3 As==10
 c4c:	2f 6d       	addc	@r13,	r15	
 c4e:	73 70       	.word	0x7073;	????	Illegal as 2-op instr
 c50:	67 63       	addc.b	#2,	r7	;r3 As==10
 c52:	63 2f       	jc	$-312    	;abs 0xb1a
 c54:	42 55       	add.b	r5,	r2	
 c56:	49 4c       	mov.b	r12,	r9	
 c58:	44 2f       	jc	$-374    	;abs 0xae2
 c5a:	67 63       	addc.b	#2,	r7	;r3 As==10
 c5c:	63 2f       	jc	$-312    	;abs 0xb24
 c5e:	67 63       	addc.b	#2,	r7	;r3 As==10
 c60:	63 00       	.word	0x0063;	????	
 c62:	47 4e       	mov.b	r14,	r7	
 c64:	55 20       	jnz	$+172    	;abs 0xd10
 c66:	41 53       	add.b	#0,	r1	;r3 As==00
 c68:	20 32       	jn	$-958    	;abs 0x8aa
 c6a:	2e 32       	jn	$-930    	;abs 0x8c8
 c6c:	31 2e       	jc	$-924    	;abs 0x8d0
 c6e:	31 00       	.word	0x0031;	????	
 c70:	01 80       	sub	r0,	r1	
 c72:	6b 00       	.word	0x006b;	????	
 c74:	00 00       	.word	0x0000;	????	
 c76:	02 00       	.word	0x0002;	????	
 c78:	78 04       	.word	0x0478;	????	
 c7a:	00 00       	.word	0x0000;	????	
 c7c:	02 01       	.word	0x0102;	????	
 c7e:	8b 07       	.word	0x078b;	????	
 c80:	00 00       	.word	0x0000;	????	
 c82:	5a c8 5c c8 	bic.b	-14244(r8),r10	;0xc85c(r8)
 c86:	2e 2e       	jc	$-930    	;abs 0x8e4
 c88:	2f 2e       	jc	$-928    	;abs 0x8e8
 c8a:	2e 2f       	jc	$-418    	;abs 0xae8
 c8c:	2e 2e       	jc	$-930    	;abs 0x8ea
 c8e:	2f 67       	addc	@r7,	r15	
 c90:	63 63       	.word	0x6363;	????	Illegal as 2-op instr
 c92:	2f 67       	addc	@r7,	r15	
 c94:	63 63       	.word	0x6363;	????	Illegal as 2-op instr
 c96:	2f 63       	addc	#2,	r15	;r3 As==10
 c98:	6f 6e       	addc.b	@r14,	r15	
 c9a:	66 69       	addc.b	@r9,	r6	
 c9c:	67 2f       	jc	$-304    	;abs 0xb6c
 c9e:	6d 73       	subc.b	#2,	r13	;r3 As==10
 ca0:	70 34       	jge	$+226    	;abs 0xd82
 ca2:	33 30       	jn	$+104    	;abs 0xd0a
 ca4:	2f 63       	addc	#2,	r15	;r3 As==10
 ca6:	72 74       	subc.b	@r4+,	r2	
 ca8:	30 2e       	jc	$-926    	;abs 0x90a
 caa:	53 00       	.word	0x0053;	????	
 cac:	2f 55       	add	@r5,	r15	
 cae:	73 65       	.word	0x6573;	????	Illegal as 2-op instr
 cb0:	72 73       	subc.b	#-1,	r2	;r3 As==11
 cb2:	2f 72       	subc	#4,	r15	;r2 As==10
 cb4:	77 65       	addc.b	@r5+,	r7	
 cb6:	73 73       	.word	0x7373;	????	Illegal as 2-op instr
 cb8:	65 6c       	addc.b	@r12,	r5	
 cba:	73 2f       	jc	$-280    	;abs 0xba2
 cbc:	6d 73       	subc.b	#2,	r13	;r3 As==10
 cbe:	70 67       	addc.b	@r7+,	r0	
 cc0:	63 63       	.word	0x6363;	????	Illegal as 2-op instr
 cc2:	2f 42       	mov	#4,	r15	;r2 As==10
 cc4:	55 49 4c 44 	mov.b	17484(r9),r5	;0x444c(r9)
 cc8:	2f 67       	addc	@r7,	r15	
 cca:	63 63       	.word	0x6363;	????	Illegal as 2-op instr
 ccc:	2f 67       	addc	@r7,	r15	
 cce:	63 63       	.word	0x6363;	????	Illegal as 2-op instr
 cd0:	00 47       	br	r7		
 cd2:	4e 55       	add.b	r5,	r14	
 cd4:	20 41       	br	@r1		
 cd6:	53 20       	jnz	$+168    	;abs 0xd7e
 cd8:	32 2e       	jc	$-922    	;abs 0x93e
 cda:	32 31       	jn	$+614    	;abs 0xf40
 cdc:	2e 31       	jn	$+606    	;abs 0xf3a
 cde:	00 01       	.word	0x0100;	????	
 ce0:	80 00       	Address 0x0000000000000ce0 is out of bounds.
Address 0x0000000000000ce2 is out of bounds.
and.b	@r15+,	-1(r15)	;0xffff(r15)

Disassembly of section .debug_abbrev:

00000000 <.debug_abbrev>:
   0:	01 11       	rra	r1		
   2:	00 10       	rrc	r0		
   4:	06 11       	rra	r6		
   6:	01 12       	push	r1		
   8:	01 03       	.word	0x0301;	????	
   a:	08 1b       	.word	0x1b08;	????	
   c:	08 25       	jz	$+530    	;abs 0x21e
   e:	08 13       	reti			;return from interupt
  10:	05 00       	.word	0x0005;	????	
  12:	00 00       	.word	0x0000;	????	
  14:	01 11       	rra	r1		
  16:	01 25       	jz	$+516    	;abs 0x21a
  18:	0e 13       	reti			;return from interupt
  1a:	0b 03       	.word	0x030b;	????	
  1c:	0e 1b       	.word	0x1b0e;	????	
  1e:	0e 11       	rra	r14		
  20:	01 12       	push	r1		
  22:	01 10       	rrc	r1		
  24:	06 00       	.word	0x0006;	????	
  26:	00 02       	.word	0x0200;	????	
  28:	13 01       	.word	0x0113;	????	
  2a:	0b 0b       	.word	0x0b0b;	????	
  2c:	3a 0b       	.word	0x0b3a;	????	
  2e:	3b 0b       	.word	0x0b3b;	????	
  30:	01 13       	reti			;return from interupt
  32:	00 00       	.word	0x0000;	????	
  34:	03 0d       	.word	0x0d03;	????	
  36:	00 03       	.word	0x0300;	????	
  38:	08 3a       	jl	$-1006   	;abs 0xfc4a
  3a:	0b 3b       	jl	$-488    	;abs 0xfe52
  3c:	0b 49       	mov	r9,	r11	
  3e:	13 38       	jl	$+40     	;abs 0x66
  40:	0a 00       	.word	0x000a;	????	
  42:	00 04       	.word	0x0400;	????	
  44:	01 01       	.word	0x0101;	????	
  46:	49 13       	.word	0x1349;	????	
  48:	01 13       	reti			;return from interupt
  4a:	00 00       	.word	0x0000;	????	
  4c:	05 21       	jnz	$+524    	;abs 0x258
  4e:	00 49       	br	r9		
  50:	13 2f       	jc	$-472    	;abs 0xfe78
  52:	0b 00       	.word	0x000b;	????	
  54:	00 06       	.word	0x0600;	????	
  56:	24 00       	.word	0x0024;	????	
  58:	0b 0b       	.word	0x0b0b;	????	
  5a:	3e 0b       	.word	0x0b3e;	????	
  5c:	03 0e       	.word	0x0e03;	????	
  5e:	00 00       	.word	0x0000;	????	
  60:	07 16       	.word	0x1607;	????	
  62:	00 03       	.word	0x0300;	????	
  64:	0e 3a       	jl	$-994    	;abs 0xfc82
  66:	0b 3b       	jl	$-488    	;abs 0xfe7e
  68:	0b 49       	mov	r9,	r11	
  6a:	13 00       	.word	0x0013;	????	
  6c:	00 08       	.word	0x0800;	????	
  6e:	0d 00       	.word	0x000d;	????	
  70:	03 0e       	.word	0x0e03;	????	
  72:	3a 0b       	.word	0x0b3a;	????	
  74:	3b 0b       	.word	0x0b3b;	????	
  76:	49 13       	.word	0x1349;	????	
  78:	38 0a       	.word	0x0a38;	????	
  7a:	00 00       	.word	0x0000;	????	
  7c:	09 0f       	.word	0x0f09;	????	
  7e:	00 0b       	.word	0x0b00;	????	
  80:	0b 49       	mov	r9,	r11	
  82:	13 00       	.word	0x0013;	????	
  84:	00 0a       	.word	0x0a00;	????	
  86:	26 00       	.word	0x0026;	????	
  88:	49 13       	.word	0x1349;	????	
  8a:	00 00       	.word	0x0000;	????	
  8c:	0b 15       	.word	0x150b;	????	
  8e:	01 27       	jz	$-508    	;abs 0xfe92
  90:	0c 49       	mov	r9,	r12	
  92:	13 01       	.word	0x0113;	????	
  94:	13 00       	.word	0x0013;	????	
  96:	00 0c       	.word	0x0c00;	????	
  98:	05 00       	.word	0x0005;	????	
  9a:	49 13       	.word	0x1349;	????	
  9c:	00 00       	.word	0x0000;	????	
  9e:	0d 24       	jz	$+28     	;abs 0xba
  a0:	00 0b       	.word	0x0b00;	????	
  a2:	0b 3e       	jmp	$-1000   	;abs 0xfcba
  a4:	0b 03       	.word	0x030b;	????	
  a6:	08 00       	.word	0x0008;	????	
  a8:	00 0e       	.word	0x0e00;	????	
  aa:	21 00       	.word	0x0021;	????	
  ac:	49 13       	.word	0x1349;	????	
  ae:	00 00       	.word	0x0000;	????	
  b0:	0f 2e       	jc	$-992    	;abs 0xfcd0
  b2:	01 3f       	jmp	$-508    	;abs 0xfeb6
  b4:	0c 03       	.word	0x030c;	????	
  b6:	0e 3a       	jl	$-994    	;abs 0xfcd4
  b8:	0b 3b       	jl	$-488    	;abs 0xfed0
  ba:	0b 27       	jz	$-488    	;abs 0xfed2
  bc:	0c 49       	mov	r9,	r12	
  be:	13 11       	rra	#1		;r3 As==01
  c0:	01 12       	push	r1		
  c2:	01 40       	mov	r0,	r1	
  c4:	0a 01       	.word	0x010a;	????	
  c6:	13 00       	.word	0x0013;	????	
  c8:	00 10       	rrc	r0		
  ca:	05 00       	.word	0x0005;	????	
  cc:	03 08       	.word	0x0803;	????	
  ce:	3a 0b       	.word	0x0b3a;	????	
  d0:	3b 0b       	.word	0x0b3b;	????	
  d2:	49 13       	.word	0x1349;	????	
  d4:	02 06       	.word	0x0602;	????	
  d6:	00 00       	.word	0x0000;	????	
  d8:	11 34       	jge	$+36     	;abs 0xfc
  da:	00 03       	.word	0x0300;	????	
  dc:	08 3a       	jl	$-1006   	;abs 0xfcee
  de:	0b 3b       	jl	$-488    	;abs 0xfef6
  e0:	0b 49       	mov	r9,	r11	
  e2:	13 02       	.word	0x0213;	????	
  e4:	06 00       	.word	0x0006;	????	
  e6:	00 12       	push	r0		
  e8:	2e 01       	.word	0x012e;	????	
  ea:	3f 0c       	.word	0x0c3f;	????	
  ec:	03 0e       	.word	0x0e03;	????	
  ee:	3a 0b       	.word	0x0b3a;	????	
  f0:	3b 0b       	.word	0x0b3b;	????	
  f2:	27 0c       	.word	0x0c27;	????	
  f4:	49 13       	.word	0x1349;	????	
  f6:	11 01       	.word	0x0111;	????	
  f8:	12 01       	.word	0x0112;	????	
  fa:	40 06       	.word	0x0640;	????	
  fc:	01 13       	reti			;return from interupt
  fe:	00 00       	.word	0x0000;	????	
 100:	13 05       	.word	0x0513;	????	
 102:	00 03       	.word	0x0300;	????	
 104:	0e 3a       	jl	$-994    	;abs 0xfd22
 106:	0b 3b       	jl	$-488    	;abs 0xff1e
 108:	0b 49       	mov	r9,	r11	
 10a:	13 02       	.word	0x0213;	????	
 10c:	06 00       	.word	0x0006;	????	
 10e:	00 14       	.word	0x1400;	????	
 110:	05 00       	.word	0x0005;	????	
 112:	03 0e       	.word	0x0e03;	????	
 114:	3a 0b       	.word	0x0b3a;	????	
 116:	3b 0b       	.word	0x0b3b;	????	
 118:	49 13       	.word	0x1349;	????	
 11a:	02 0a       	.word	0x0a02;	????	
 11c:	00 00       	.word	0x0000;	????	
 11e:	15 05       	.word	0x0515;	????	
 120:	00 03       	.word	0x0300;	????	
 122:	08 3a       	jl	$-1006   	;abs 0xfd34
 124:	0b 3b       	jl	$-488    	;abs 0xff3c
 126:	0b 49       	mov	r9,	r11	
 128:	13 02       	.word	0x0213;	????	
 12a:	0a 00       	.word	0x000a;	????	
 12c:	00 16       	.word	0x1600;	????	
 12e:	34 00       	.word	0x0034;	????	
 130:	03 0e       	.word	0x0e03;	????	
 132:	3a 0b       	.word	0x0b3a;	????	
 134:	3b 0b       	.word	0x0b3b;	????	
 136:	49 13       	.word	0x1349;	????	
 138:	02 06       	.word	0x0602;	????	
 13a:	00 00       	.word	0x0000;	????	
 13c:	17 34       	jge	$+48     	;abs 0x16c
 13e:	00 03       	.word	0x0300;	????	
 140:	0e 3a       	jl	$-994    	;abs 0xfd5e
 142:	0b 3b       	jl	$-488    	;abs 0xff5a
 144:	0b 49       	mov	r9,	r11	
 146:	13 02       	.word	0x0213;	????	
 148:	0a 00       	.word	0x000a;	????	
 14a:	00 00       	.word	0x0000;	????	
 14c:	01 11       	rra	r1		
 14e:	01 25       	jz	$+516    	;abs 0x352
 150:	0e 13       	reti			;return from interupt
 152:	0b 03       	.word	0x030b;	????	
 154:	0e 1b       	.word	0x1b0e;	????	
 156:	0e 11       	rra	r14		
 158:	01 12       	push	r1		
 15a:	01 10       	rrc	r1		
 15c:	06 00       	.word	0x0006;	????	
 15e:	00 02       	.word	0x0200;	????	
 160:	16 00       	.word	0x0016;	????	
 162:	03 0e       	.word	0x0e03;	????	
 164:	3a 0b       	.word	0x0b3a;	????	
 166:	3b 0b       	.word	0x0b3b;	????	
 168:	49 13       	.word	0x1349;	????	
 16a:	00 00       	.word	0x0000;	????	
 16c:	03 0f       	.word	0x0f03;	????	
 16e:	00 0b       	.word	0x0b00;	????	
 170:	0b 03       	.word	0x030b;	????	
 172:	0e 00       	.word	0x000e;	????	
 174:	00 04       	.word	0x0400;	????	
 176:	2e 01       	.word	0x012e;	????	
 178:	03 0e       	.word	0x0e03;	????	
 17a:	3a 0b       	.word	0x0b3a;	????	
 17c:	3b 0b       	.word	0x0b3b;	????	
 17e:	27 0c       	.word	0x0c27;	????	
 180:	11 01       	.word	0x0111;	????	
 182:	12 01       	.word	0x0112;	????	
 184:	40 06       	.word	0x0640;	????	
 186:	01 13       	reti			;return from interupt
 188:	00 00       	.word	0x0000;	????	
 18a:	05 05       	.word	0x0505;	????	
 18c:	00 03       	.word	0x0300;	????	
 18e:	08 3a       	jl	$-1006   	;abs 0xfda0
 190:	0b 3b       	jl	$-488    	;abs 0xffa8
 192:	0b 49       	mov	r9,	r11	
 194:	13 02       	.word	0x0213;	????	
 196:	06 00       	.word	0x0006;	????	
 198:	00 06       	.word	0x0600;	????	
 19a:	34 00       	.word	0x0034;	????	
 19c:	03 08       	.word	0x0803;	????	
 19e:	3a 0b       	.word	0x0b3a;	????	
 1a0:	3b 0b       	.word	0x0b3b;	????	
 1a2:	49 13       	.word	0x1349;	????	
 1a4:	02 06       	.word	0x0602;	????	
 1a6:	00 00       	.word	0x0000;	????	
 1a8:	07 24       	jz	$+16     	;abs 0x1b8
 1aa:	00 0b       	.word	0x0b00;	????	
 1ac:	0b 3e       	jmp	$-1000   	;abs 0xfdc4
 1ae:	0b 03       	.word	0x030b;	????	
 1b0:	0e 00       	.word	0x000e;	????	
 1b2:	00 08       	.word	0x0800;	????	
 1b4:	0f 00       	.word	0x000f;	????	
 1b6:	0b 0b       	.word	0x0b0b;	????	
 1b8:	49 13       	.word	0x1349;	????	
 1ba:	00 00       	.word	0x0000;	????	
 1bc:	09 26       	jz	$-1004   	;abs 0xfdd0
 1be:	00 49       	br	r9		
 1c0:	13 00       	.word	0x0013;	????	
 1c2:	00 0a       	.word	0x0a00;	????	
 1c4:	2e 01       	.word	0x012e;	????	
 1c6:	03 0e       	.word	0x0e03;	????	
 1c8:	3a 0b       	.word	0x0b3a;	????	
 1ca:	3b 0b       	.word	0x0b3b;	????	
 1cc:	27 0c       	.word	0x0c27;	????	
 1ce:	11 01       	.word	0x0111;	????	
 1d0:	12 01       	.word	0x0112;	????	
 1d2:	40 0a       	.word	0x0a40;	????	
 1d4:	01 13       	reti			;return from interupt
 1d6:	00 00       	.word	0x0000;	????	
 1d8:	0b 34       	jge	$+24     	;abs 0x1f0
 1da:	00 03       	.word	0x0300;	????	
 1dc:	08 3a       	jl	$-1006   	;abs 0xfdee
 1de:	0b 3b       	jl	$-488    	;abs 0xfff6
 1e0:	0b 49       	mov	r9,	r11	
 1e2:	13 02       	.word	0x0213;	????	
 1e4:	0a 00       	.word	0x000a;	????	
 1e6:	00 0c       	.word	0x0c00;	????	
 1e8:	01 01       	.word	0x0101;	????	
 1ea:	49 13       	.word	0x1349;	????	
 1ec:	01 13       	reti			;return from interupt
 1ee:	00 00       	.word	0x0000;	????	
 1f0:	0d 21       	jnz	$+540    	;abs 0x40c
 1f2:	00 49       	br	r9		
 1f4:	13 2f       	jc	$-472    	;abs 0x1c
 1f6:	0b 00       	.word	0x000b;	????	
 1f8:	00 0e       	.word	0x0e00;	????	
 1fa:	2e 01       	.word	0x012e;	????	
 1fc:	3f 0c       	.word	0x0c3f;	????	
 1fe:	03 0e       	.word	0x0e03;	????	
 200:	3a 0b       	.word	0x0b3a;	????	
 202:	3b 0b       	.word	0x0b3b;	????	
 204:	27 0c       	.word	0x0c27;	????	
 206:	11 01       	.word	0x0111;	????	
 208:	12 01       	.word	0x0112;	????	
 20a:	40 06       	.word	0x0640;	????	
 20c:	01 13       	reti			;return from interupt
 20e:	00 00       	.word	0x0000;	????	
 210:	0f 05       	.word	0x050f;	????	
 212:	00 03       	.word	0x0300;	????	
 214:	0e 3a       	jl	$-994    	;abs 0xfe32
 216:	0b 3b       	jl	$-488    	;abs 0x2e
 218:	0b 49       	mov	r9,	r11	
 21a:	13 02       	.word	0x0213;	????	
 21c:	06 00       	.word	0x0006;	????	
 21e:	00 10       	rrc	r0		
 220:	24 00       	.word	0x0024;	????	
 222:	0b 0b       	.word	0x0b0b;	????	
 224:	3e 0b       	.word	0x0b3e;	????	
 226:	03 08       	.word	0x0803;	????	
 228:	00 00       	.word	0x0000;	????	
 22a:	11 34       	jge	$+36     	;abs 0x24e
 22c:	00 03       	.word	0x0300;	????	
 22e:	0e 3a       	jl	$-994    	;abs 0xfe4c
 230:	0b 3b       	jl	$-488    	;abs 0x48
 232:	0b 49       	mov	r9,	r11	
 234:	13 02       	.word	0x0213;	????	
 236:	0a 00       	.word	0x000a;	????	
 238:	00 12       	push	r0		
 23a:	18 00       	.word	0x0018;	????	
 23c:	00 00       	.word	0x0000;	????	
 23e:	13 0a       	.word	0x0a13;	????	
 240:	00 03       	.word	0x0300;	????	
 242:	0e 3a       	jl	$-994    	;abs 0xfe60
 244:	0b 3b       	jl	$-488    	;abs 0x5c
 246:	0b 11       	rra	r11		
 248:	01 00       	.word	0x0001;	????	
 24a:	00 00       	.word	0x0000;	????	
 24c:	01 11       	rra	r1		
 24e:	01 25       	jz	$+516    	;abs 0x452
 250:	0e 13       	reti			;return from interupt
 252:	0b 03       	.word	0x030b;	????	
 254:	0e 1b       	.word	0x1b0e;	????	
 256:	0e 11       	rra	r14		
 258:	01 12       	push	r1		
 25a:	01 10       	rrc	r1		
 25c:	06 00       	.word	0x0006;	????	
 25e:	00 02       	.word	0x0200;	????	
 260:	2e 01       	.word	0x012e;	????	
 262:	3f 0c       	.word	0x0c3f;	????	
 264:	03 0e       	.word	0x0e03;	????	
 266:	3a 0b       	.word	0x0b3a;	????	
 268:	3b 0b       	.word	0x0b3b;	????	
 26a:	27 0c       	.word	0x0c27;	????	
 26c:	11 01       	.word	0x0111;	????	
 26e:	12 01       	.word	0x0112;	????	
 270:	40 0a       	.word	0x0a40;	????	
 272:	01 13       	reti			;return from interupt
 274:	00 00       	.word	0x0000;	????	
 276:	03 05       	.word	0x0503;	????	
 278:	00 03       	.word	0x0300;	????	
 27a:	08 3a       	jl	$-1006   	;abs 0xfe8c
 27c:	0b 3b       	jl	$-488    	;abs 0x94
 27e:	0b 49       	mov	r9,	r11	
 280:	13 02       	.word	0x0213;	????	
 282:	06 00       	.word	0x0006;	????	
 284:	00 04       	.word	0x0400;	????	
 286:	24 00       	.word	0x0024;	????	
 288:	0b 0b       	.word	0x0b0b;	????	
 28a:	3e 0b       	.word	0x0b3e;	????	
 28c:	03 0e       	.word	0x0e03;	????	
 28e:	00 00       	.word	0x0000;	????	
 290:	05 2e       	jc	$-1012   	;abs 0xfe9c
 292:	00 3f       	jmp	$-510    	;abs 0x94
 294:	0c 03       	.word	0x030c;	????	
 296:	0e 3a       	jl	$-994    	;abs 0xfeb4
 298:	0b 3b       	jl	$-488    	;abs 0xb0
 29a:	0b 49       	mov	r9,	r11	
 29c:	13 11       	rra	#1		;r3 As==01
 29e:	01 12       	push	r1		
 2a0:	01 40       	mov	r0,	r1	
 2a2:	0a 00       	.word	0x000a;	????	
 2a4:	00 00       	.word	0x0000;	????	
 2a6:	01 11       	rra	r1		
 2a8:	01 25       	jz	$+516    	;abs 0x4ac
 2aa:	0e 13       	reti			;return from interupt
 2ac:	0b 03       	.word	0x030b;	????	
 2ae:	0e 1b       	.word	0x1b0e;	????	
 2b0:	0e 11       	rra	r14		
 2b2:	01 12       	push	r1		
 2b4:	01 10       	rrc	r1		
 2b6:	06 00       	.word	0x0006;	????	
 2b8:	00 02       	.word	0x0200;	????	
 2ba:	24 00       	.word	0x0024;	????	
 2bc:	0b 0b       	.word	0x0b0b;	????	
 2be:	3e 0b       	.word	0x0b3e;	????	
 2c0:	03 0e       	.word	0x0e03;	????	
 2c2:	00 00       	.word	0x0000;	????	
 2c4:	03 24       	jz	$+8      	;abs 0x2cc
 2c6:	00 0b       	.word	0x0b00;	????	
 2c8:	0b 3e       	jmp	$-1000   	;abs 0xfee0
 2ca:	0b 03       	.word	0x030b;	????	
 2cc:	08 00       	.word	0x0008;	????	
 2ce:	00 04       	.word	0x0400;	????	
 2d0:	2e 01       	.word	0x012e;	????	
 2d2:	3f 0c       	.word	0x0c3f;	????	
 2d4:	03 0e       	.word	0x0e03;	????	
 2d6:	3a 0b       	.word	0x0b3a;	????	
 2d8:	3b 0b       	.word	0x0b3b;	????	
 2da:	27 0c       	.word	0x0c27;	????	
 2dc:	11 01       	.word	0x0111;	????	
 2de:	12 01       	.word	0x0112;	????	
 2e0:	40 0a       	.word	0x0a40;	????	
 2e2:	01 13       	reti			;return from interupt
 2e4:	00 00       	.word	0x0000;	????	
 2e6:	05 05       	.word	0x0505;	????	
 2e8:	00 03       	.word	0x0300;	????	
 2ea:	0e 3a       	jl	$-994    	;abs 0xff08
 2ec:	0b 3b       	jl	$-488    	;abs 0x104
 2ee:	0b 49       	mov	r9,	r11	
 2f0:	13 02       	.word	0x0213;	????	
 2f2:	0a 00       	.word	0x000a;	????	
 2f4:	00 06       	.word	0x0600;	????	
 2f6:	05 00       	.word	0x0005;	????	
 2f8:	03 0e       	.word	0x0e03;	????	
 2fa:	3a 0b       	.word	0x0b3a;	????	
 2fc:	3b 0b       	.word	0x0b3b;	????	
 2fe:	49 13       	.word	0x1349;	????	
 300:	02 06       	.word	0x0602;	????	
 302:	00 00       	.word	0x0000;	????	
 304:	07 2e       	jc	$-1008   	;abs 0xff14
 306:	00 3f       	jmp	$-510    	;abs 0x108
 308:	0c 03       	.word	0x030c;	????	
 30a:	0e 3a       	jl	$-994    	;abs 0xff28
 30c:	0b 3b       	jl	$-488    	;abs 0x124
 30e:	0b 49       	mov	r9,	r11	
 310:	13 11       	rra	#1		;r3 As==01
 312:	01 12       	push	r1		
 314:	01 40       	mov	r0,	r1	
 316:	0a 00       	.word	0x000a;	????	
 318:	00 08       	.word	0x0800;	????	
 31a:	34 00       	.word	0x0034;	????	
 31c:	03 0e       	.word	0x0e03;	????	
 31e:	3a 0b       	.word	0x0b3a;	????	
 320:	3b 0b       	.word	0x0b3b;	????	
 322:	87 40 0e 49 	mov	r0,	18702(r7);0x490e(r7)
 326:	13 3f       	jmp	$-472    	;abs 0x14e
 328:	0c 3c       	jmp	$+26     	;abs 0x342
 32a:	0c 00       	.word	0x000c;	????	
 32c:	00 09       	.word	0x0900;	????	
 32e:	35 00       	.word	0x0035;	????	
 330:	49 13       	.word	0x1349;	????	
 332:	00 00       	.word	0x0000;	????	
 334:	0a 34       	jge	$+22     	;abs 0x34a
 336:	00 03       	.word	0x0300;	????	
 338:	0e 3a       	jl	$-994    	;abs 0xff56
 33a:	0b 3b       	jl	$-488    	;abs 0x152
 33c:	05 87       	sub	r7,	r5	
 33e:	40 0e       	.word	0x0e40;	????	
 340:	49 13       	.word	0x1349;	????	
 342:	3f 0c       	.word	0x0c3f;	????	
 344:	3c 0c       	.word	0x0c3c;	????	
 346:	00 00       	.word	0x0000;	????	
 348:	0b 26       	jz	$-1000   	;abs 0xff60
 34a:	00 49       	br	r9		
 34c:	13 00       	.word	0x0013;	????	
 34e:	00 00       	.word	0x0000;	????	
 350:	01 11       	rra	r1		
 352:	00 10       	rrc	r0		
 354:	06 11       	rra	r6		
 356:	01 12       	push	r1		
 358:	01 03       	.word	0x0301;	????	
 35a:	08 1b       	.word	0x1b08;	????	
 35c:	08 25       	jz	$+530    	;abs 0x56e
 35e:	08 13       	reti			;return from interupt
 360:	05 00       	.word	0x0005;	????	
 362:	00 00       	.word	0x0000;	????	
 364:	01 11       	rra	r1		
 366:	00 10       	rrc	r0		
 368:	06 11       	rra	r6		
 36a:	01 12       	push	r1		
 36c:	01 03       	.word	0x0301;	????	
 36e:	08 1b       	.word	0x1b08;	????	
 370:	08 25       	jz	$+530    	;abs 0x582
 372:	08 13       	reti			;return from interupt
 374:	05 00       	.word	0x0005;	????	
 376:	00 00       	.word	0x0000;	????	
 378:	01 11       	rra	r1		
 37a:	01 25       	jz	$+516    	;abs 0x57e
 37c:	0e 13       	reti			;return from interupt
 37e:	0b 03       	.word	0x030b;	????	
 380:	0e 1b       	.word	0x1b0e;	????	
 382:	0e 11       	rra	r14		
 384:	01 12       	push	r1		
 386:	01 10       	rrc	r1		
 388:	06 00       	.word	0x0006;	????	
 38a:	00 02       	.word	0x0200;	????	
 38c:	24 00       	.word	0x0024;	????	
 38e:	0b 0b       	.word	0x0b0b;	????	
 390:	3e 0b       	.word	0x0b3e;	????	
 392:	03 0e       	.word	0x0e03;	????	
 394:	00 00       	.word	0x0000;	????	
 396:	03 24       	jz	$+8      	;abs 0x39e
 398:	00 0b       	.word	0x0b00;	????	
 39a:	0b 3e       	jmp	$-1000   	;abs 0xffb2
 39c:	0b 03       	.word	0x030b;	????	
 39e:	08 00       	.word	0x0008;	????	
 3a0:	00 04       	.word	0x0400;	????	
 3a2:	16 00       	.word	0x0016;	????	
 3a4:	03 0e       	.word	0x0e03;	????	
 3a6:	3a 0b       	.word	0x0b3a;	????	
 3a8:	3b 0b       	.word	0x0b3b;	????	
 3aa:	49 13       	.word	0x1349;	????	
 3ac:	00 00       	.word	0x0000;	????	
 3ae:	05 2e       	jc	$-1012   	;abs 0xffba
 3b0:	01 3f       	jmp	$-508    	;abs 0x1b4
 3b2:	0c 03       	.word	0x030c;	????	
 3b4:	0e 3a       	jl	$-994    	;abs 0xffd2
 3b6:	0b 3b       	jl	$-488    	;abs 0x1ce
 3b8:	0b 27       	jz	$-488    	;abs 0x1d0
 3ba:	0c 49       	mov	r9,	r12	
 3bc:	13 11       	rra	#1		;r3 As==01
 3be:	01 12       	push	r1		
 3c0:	01 40       	mov	r0,	r1	
 3c2:	06 01       	.word	0x0106;	????	
 3c4:	13 00       	.word	0x0013;	????	
 3c6:	00 06       	.word	0x0600;	????	
 3c8:	05 00       	.word	0x0005;	????	
 3ca:	03 0e       	.word	0x0e03;	????	
 3cc:	3a 0b       	.word	0x0b3a;	????	
 3ce:	3b 0b       	.word	0x0b3b;	????	
 3d0:	49 13       	.word	0x1349;	????	
 3d2:	02 0a       	.word	0x0a02;	????	
 3d4:	00 00       	.word	0x0000;	????	
 3d6:	07 05       	.word	0x0507;	????	
 3d8:	00 03       	.word	0x0300;	????	
 3da:	08 3a       	jl	$-1006   	;abs 0xffec
 3dc:	0b 3b       	jl	$-488    	;abs 0x1f4
 3de:	0b 49       	mov	r9,	r11	
 3e0:	13 02       	.word	0x0213;	????	
 3e2:	06 00       	.word	0x0006;	????	
 3e4:	00 08       	.word	0x0800;	????	
 3e6:	05 00       	.word	0x0005;	????	
 3e8:	03 0e       	.word	0x0e03;	????	
 3ea:	3a 0b       	.word	0x0b3a;	????	
 3ec:	3b 0b       	.word	0x0b3b;	????	
 3ee:	49 13       	.word	0x1349;	????	
 3f0:	02 06       	.word	0x0602;	????	
 3f2:	00 00       	.word	0x0000;	????	
 3f4:	09 34       	jge	$+20     	;abs 0x408
 3f6:	00 03       	.word	0x0300;	????	
 3f8:	08 3a       	jl	$-1006   	;abs 0xa
 3fa:	0b 3b       	jl	$-488    	;abs 0x212
 3fc:	0b 49       	mov	r9,	r11	
 3fe:	13 02       	.word	0x0213;	????	
 400:	06 00       	.word	0x0006;	????	
 402:	00 0a       	.word	0x0a00;	????	
 404:	0f 00       	.word	0x000f;	????	
 406:	0b 0b       	.word	0x0b0b;	????	
 408:	00 00       	.word	0x0000;	????	
 40a:	0b 0f       	.word	0x0f0b;	????	
 40c:	00 0b       	.word	0x0b00;	????	
 40e:	0b 49       	mov	r9,	r11	
 410:	13 00       	.word	0x0013;	????	
 412:	00 00       	.word	0x0000;	????	
 414:	01 11       	rra	r1		
 416:	00 10       	rrc	r0		
 418:	06 11       	rra	r6		
 41a:	01 12       	push	r1		
 41c:	01 03       	.word	0x0301;	????	
 41e:	08 1b       	.word	0x1b08;	????	
 420:	08 25       	jz	$+530    	;abs 0x632
 422:	08 13       	reti			;return from interupt
 424:	05 00       	.word	0x0005;	????	
 426:	00 00       	.word	0x0000;	????	
 428:	01 11       	rra	r1		
 42a:	00 10       	rrc	r0		
 42c:	06 11       	rra	r6		
 42e:	01 12       	push	r1		
 430:	01 03       	.word	0x0301;	????	
 432:	08 1b       	.word	0x1b08;	????	
 434:	08 25       	jz	$+530    	;abs 0x646
 436:	08 13       	reti			;return from interupt
 438:	05 00       	.word	0x0005;	????	
 43a:	00 00       	.word	0x0000;	????	
 43c:	01 11       	rra	r1		
 43e:	00 10       	rrc	r0		
 440:	06 11       	rra	r6		
 442:	01 12       	push	r1		
 444:	01 03       	.word	0x0301;	????	
 446:	08 1b       	.word	0x1b08;	????	
 448:	08 25       	jz	$+530    	;abs 0x65a
 44a:	08 13       	reti			;return from interupt
 44c:	05 00       	.word	0x0005;	????	
 44e:	00 00       	.word	0x0000;	????	
 450:	01 11       	rra	r1		
 452:	00 10       	rrc	r0		
 454:	06 11       	rra	r6		
 456:	01 12       	push	r1		
 458:	01 03       	.word	0x0301;	????	
 45a:	08 1b       	.word	0x1b08;	????	
 45c:	08 25       	jz	$+530    	;abs 0x66e
 45e:	08 13       	reti			;return from interupt
 460:	05 00       	.word	0x0005;	????	
 462:	00 00       	.word	0x0000;	????	
 464:	01 11       	rra	r1		
 466:	00 10       	rrc	r0		
 468:	06 11       	rra	r6		
 46a:	01 12       	push	r1		
 46c:	01 03       	.word	0x0301;	????	
 46e:	08 1b       	.word	0x1b08;	????	
 470:	08 25       	jz	$+530    	;abs 0x682
 472:	08 13       	reti			;return from interupt
 474:	05 00       	.word	0x0005;	????	
 476:	00 00       	.word	0x0000;	????	
 478:	01 11       	rra	r1		
 47a:	00 10       	rrc	r0		
 47c:	06 11       	rra	r6		
 47e:	01 12       	push	r1		
 480:	01 03       	.word	0x0301;	????	
 482:	08 1b       	.word	0x1b08;	????	
 484:	08 25       	jz	$+530    	;abs 0x696
 486:	08 13       	reti			;return from interupt
 488:	05 00       	.word	0x0005;	????	
	...

Disassembly of section .debug_line:

00000000 <.debug_line>:
   0:	36 00       	.word	0x0036;	????	
   2:	00 00       	.word	0x0000;	????	
   4:	02 00       	.word	0x0002;	????	
   6:	1d 00       	.word	0x001d;	????	
   8:	00 00       	.word	0x0000;	????	
   a:	01 01       	.word	0x0101;	????	
   c:	fb 0e       	.word	0x0efb;	????	
   e:	0d 00       	.word	0x000d;	????	
  10:	01 01       	.word	0x0101;	????	
  12:	01 01       	.word	0x0101;	????	
  14:	00 00       	.word	0x0000;	????	
  16:	00 01       	.word	0x0100;	????	
  18:	00 00       	.word	0x0000;	????	
  1a:	01 00       	.word	0x0001;	????	
  1c:	64 69       	addc.b	@r9,	r4	
  1e:	76 64       	addc.b	@r4+,	r6	
  20:	2e 53       	incd	r14		
  22:	00 00       	.word	0x0000;	????	
  24:	00 00       	.word	0x0000;	????	
  26:	00 00       	.word	0x0000;	????	
  28:	03 02       	.word	0x0203;	????	
  2a:	e8 c1 16 2f 	bic.b	@r1,	12054(r8);0x2f16(r8)
  2e:	32 2f       	jc	$-410    	;abs 0xfe94
  30:	2f 2f       	jc	$-416    	;abs 0xfe90
  32:	30 2f       	jc	$-414    	;abs 0xfe94
  34:	30 02       	.word	0x0230;	????	
  36:	02 00       	.word	0x0002;	????	
  38:	01 01       	.word	0x0101;	????	
  3a:	fe 00       	.word	0x00fe;	????	
  3c:	00 00       	.word	0x0000;	????	
  3e:	02 00       	.word	0x0002;	????	
  40:	33 00       	.word	0x0033;	????	
  42:	00 00       	.word	0x0000;	????	
  44:	01 01       	.word	0x0101;	????	
  46:	fb 0e       	.word	0x0efb;	????	
  48:	0d 00       	.word	0x000d;	????	
  4a:	01 01       	.word	0x0101;	????	
  4c:	01 01       	.word	0x0101;	????	
  4e:	00 00       	.word	0x0000;	????	
  50:	00 01       	.word	0x0100;	????	
  52:	00 00       	.word	0x0000;	????	
  54:	01 2e       	jc	$-1020   	;abs 0xfc58
  56:	2f 69       	addc	@r9,	r15	
  58:	6e 63       	addc.b	#2,	r14	;r3 As==10
  5a:	6c 75       	subc.b	@r5,	r12	
  5c:	64 65       	addc.b	@r5,	r4	
  5e:	00 00       	.word	0x0000;	????	
  60:	73 68       	.word	0x6873;	????	Illegal as 2-op instr
  62:	65 6c       	addc.b	@r12,	r5	
  64:	6c 2e       	jc	$-806    	;abs 0xfd3e
  66:	63 00       	.word	0x0063;	????	
  68:	00 00       	.word	0x0000;	????	
  6a:	00 73       	sbc	r0		
  6c:	68 65       	addc.b	@r5,	r8	
  6e:	6c 6c       	addc.b	@r12,	r12	
  70:	2e 68       	addc	@r8,	r14	
  72:	00 01       	.word	0x0100;	????	
  74:	00 00       	.word	0x0000;	????	
  76:	00 00       	.word	0x0000;	????	
  78:	03 02       	.word	0x0203;	????	
  7a:	fa c1 03 16 	bic.b	@r1+,	5635(r10);0x1603(r10)
  7e:	01 2f       	jc	$-508    	;abs 0xfe82
  80:	30 00       	.word	0x0030;	????	
  82:	02 04       	.word	0x0402;	????	
  84:	01 06       	.word	0x0601;	????	
  86:	4a 00       	.word	0x004a;	????	
  88:	02 04       	.word	0x0402;	????	
  8a:	01 06       	.word	0x0601;	????	
  8c:	46 00       	.word	0x0046;	????	
  8e:	02 04       	.word	0x0402;	????	
  90:	01 4e       	mov	r14,	r1	
  92:	69 31       	jn	$+724    	;abs 0x366
  94:	69 00       	.word	0x0069;	????	
  96:	02 04       	.word	0x0402;	????	
  98:	01 06       	.word	0x0601;	????	
  9a:	4a 06       	.word	0x064a;	????	
  9c:	46 89       	sub.b	r9,	r6	
  9e:	65 00       	.word	0x0065;	????	
  a0:	02 04       	.word	0x0402;	????	
  a2:	01 06       	.word	0x0601;	????	
  a4:	2e 06       	.word	0x062e;	????	
  a6:	50 00       	.word	0x0050;	????	
  a8:	02 04       	.word	0x0402;	????	
  aa:	01 06       	.word	0x0601;	????	
  ac:	4a 06       	.word	0x064a;	????	
  ae:	03 78       	.word	0x7803;	????	Illegal as 2-op instr
  b0:	ba 03       	.word	0x03ba;	????	
  b2:	0c 4a       	mov	r10,	r12	
  b4:	47 32       	jn	$-880    	;abs 0xfd44
  b6:	85 14       	.word	0x1485;	????	
  b8:	33 4c       	.word	0x4c33;	????	Illegal as 2-op instr
  ba:	bc 00       	.word	0x00bc;	????	
  bc:	02 04       	.word	0x0402;	????	
  be:	01 08       	.word	0x0801;	????	
  c0:	38 6e       	addc	@r14+,	r8	
  c2:	4d da       	bis.b	r10,	r13	
  c4:	2d 31       	jn	$+604    	;abs 0x320
  c6:	84 68 00 02 	addc	r8,	512(r4)	;0x0200(r4)
  ca:	04 01       	.word	0x0104;	????	
  cc:	06 ba       	bit	r10,	r6	
  ce:	06 4c       	mov	r12,	r6	
  d0:	00 02       	.word	0x0200;	????	
  d2:	04 01       	.word	0x0104;	????	
  d4:	06 4a       	mov	r10,	r6	
  d6:	06 31       	jn	$+526    	;abs 0x2e4
  d8:	4e bc       	bit.b	r12,	r14	
  da:	03 6a       	.word	0x6a03;	????	Illegal as 2-op instr
  dc:	2e 00       	.word	0x002e;	????	
  de:	02 04       	.word	0x0402;	????	
  e0:	02 06       	.word	0x0602;	????	
  e2:	66 00       	.word	0x0066;	????	
  e4:	02 04       	.word	0x0402;	????	
  e6:	02 06       	.word	0x0602;	????	
  e8:	03 17       	.word	0x1703;	????	
  ea:	08 20       	jnz	$+18     	;abs 0xfc
  ec:	00 02       	.word	0x0200;	????	
  ee:	04 02       	.word	0x0204;	????	
  f0:	65 00       	.word	0x0065;	????	
  f2:	02 04       	.word	0x0402;	????	
  f4:	01 06       	.word	0x0601;	????	
  f6:	2e 06       	.word	0x062e;	????	
  f8:	4d 03       	.word	0x034d;	????	
  fa:	78 08       	.word	0x0878;	????	
  fc:	3c 03       	.word	0x033c;	????	
  fe:	76 2e       	jc	$-786    	;abs 0xfdec
 100:	00 02       	.word	0x0200;	????	
 102:	04 01       	.word	0x0104;	????	
 104:	06 2e       	jc	$-1010   	;abs 0xfd12
 106:	06 03       	.word	0x0306;	????	
 108:	18 4a 4c 03 	mov	844(r10),r8	;0x034c(r10)
 10c:	68 4a       	mov.b	@r10,	r8	
 10e:	03 0b       	.word	0x0b03;	????	
 110:	4a 03       	.word	0x034a;	????	
 112:	0e 2e       	jc	$-994    	;abs 0xfd30
 114:	f5 03       	.word	0x03f5;	????	
 116:	19 08       	.word	0x0819;	????	
 118:	3c 03       	.word	0x033c;	????	
 11a:	6f 2e       	jc	$-800    	;abs 0xfdfa
 11c:	4c 83       	sub.b	#0,	r12	;r3 As==00
 11e:	a0 08       	.word	0x08a0;	????	
 120:	3d a0 4c 4d 	dadd	#19788,	r13	;#0x4d4c
 124:	03 73       	sbc	#0		;r3 As==00
 126:	08 3c       	jmp	$+18     	;abs 0x138
 128:	00 02       	.word	0x0200;	????	
 12a:	04 01       	.word	0x0104;	????	
 12c:	06 2e       	jc	$-1010   	;abs 0xfd3a
 12e:	06 03       	.word	0x0306;	????	
 130:	11 66 03 78 	addc	30723(r6),r1	;0x7803(r6)
 134:	66 68       	addc.b	@r8,	r6	
 136:	51 02       	.word	0x0251;	????	
 138:	12 00       	.word	0x0012;	????	
 13a:	01 01       	.word	0x0101;	????	
 13c:	65 01       	.word	0x0165;	????	
 13e:	00 00       	.word	0x0000;	????	
 140:	02 00       	.word	0x0002;	????	
 142:	aa 00       	.word	0x00aa;	????	
 144:	00 00       	.word	0x0000;	????	
 146:	01 01       	.word	0x0101;	????	
 148:	fb 0e       	.word	0x0efb;	????	
 14a:	0d 00       	.word	0x000d;	????	
 14c:	01 01       	.word	0x0101;	????	
 14e:	01 01       	.word	0x0101;	????	
 150:	00 00       	.word	0x0000;	????	
 152:	00 01       	.word	0x0100;	????	
 154:	00 00       	.word	0x0000;	????	
 156:	01 2f       	jc	$-508    	;abs 0xff5a
 158:	55 73       	subc.b	#1,	r5	;r3 As==01
 15a:	65 72       	subc.b	#4,	r5	;r2 As==10
 15c:	73 2f       	jc	$-280    	;abs 0x44
 15e:	6f 6c       	addc.b	@r12,	r15	
 160:	69 76       	subc.b	@r6,	r9	
 162:	65 72       	subc.b	#4,	r5	;r2 As==10
 164:	73 61       	.word	0x6173;	????	Illegal as 2-op instr
 166:	6e 63       	addc.b	#2,	r14	;r3 As==10
 168:	68 65       	addc.b	@r5,	r8	
 16a:	7a 2f       	jc	$-266    	;abs 0x60
 16c:	41 70       	subc.b	r0,	r1	
 16e:	70 6c       	addc.b	@r12+,	r0	
 170:	69 63       	addc.b	#2,	r9	;r3 As==10
 172:	61 74       	subc.b	@r4,	r1	
 174:	69 6f       	addc.b	@r15,	r9	
 176:	6e 73       	subc.b	#2,	r14	;r3 As==10
 178:	2f 45       	mov	@r5,	r15	
 17a:	6e 65       	addc.b	@r5,	r14	
 17c:	72 67       	addc.b	@r7+,	r2	
 17e:	69 61       	addc.b	@r1,	r9	
 180:	2e 61       	addc	@r1,	r14	
 182:	70 70 2f 43 	subc.b	#17199,	r0	;#0x432f
 186:	6f 6e       	addc.b	@r14,	r15	
 188:	74 65       	addc.b	@r5+,	r4	
 18a:	6e 74       	subc.b	@r4,	r14	
 18c:	73 2f       	jc	$-280    	;abs 0x74
 18e:	52 65 73 6f 	addc.b	28531(r5),r2	;0x6f73(r5)
 192:	75 72       	subc.b	#8,	r5	;r2 As==11
 194:	63 65       	.word	0x6563;	????	Illegal as 2-op instr
 196:	73 2f       	jc	$-280    	;abs 0x7e
 198:	4a 61       	addc.b	r1,	r10	
 19a:	76 61       	addc.b	@r1+,	r6	
 19c:	2f 68       	addc	@r8,	r15	
 19e:	61 72       	subc.b	#4,	r1	;r2 As==10
 1a0:	64 77       	subc.b	@r7,	r4	
 1a2:	61 72       	subc.b	#4,	r1	;r2 As==10
 1a4:	65 2f       	jc	$-308    	;abs 0x70
 1a6:	74 6f       	addc.b	@r15+,	r4	
 1a8:	6f 6c       	addc.b	@r12,	r15	
 1aa:	73 2f       	jc	$-280    	;abs 0x92
 1ac:	6d 73       	subc.b	#2,	r13	;r3 As==10
 1ae:	70 34       	jge	$+226    	;abs 0x290
 1b0:	33 30       	jn	$+104    	;abs 0x218
 1b2:	2f 62       	addc	#4,	r15	;r2 As==10
 1b4:	69 6e       	addc.b	@r14,	r9	
 1b6:	2f 2e       	jc	$-928    	;abs 0xfe16
 1b8:	2e 2f       	jc	$-418    	;abs 0x16
 1ba:	6c 69       	addc.b	@r9,	r12	
 1bc:	62 2f       	jc	$-314    	;abs 0x82
 1be:	67 63       	addc.b	#2,	r7	;r3 As==10
 1c0:	63 2f       	jc	$-312    	;abs 0x88
 1c2:	6d 73       	subc.b	#2,	r13	;r3 As==10
 1c4:	70 34       	jge	$+226    	;abs 0x2a6
 1c6:	33 30       	jn	$+104    	;abs 0x22e
 1c8:	2f 34       	jge	$+96     	;abs 0x228
 1ca:	2e 36       	jge	$-930    	;abs 0xfe28
 1cc:	2e 33       	jn	$-418    	;abs 0x2a
 1ce:	2f 69       	addc	@r9,	r15	
 1d0:	6e 63       	addc.b	#2,	r14	;r3 As==10
 1d2:	6c 75       	subc.b	@r5,	r12	
 1d4:	64 65       	addc.b	@r5,	r4	
 1d6:	00 00       	.word	0x0000;	????	
 1d8:	63 6f       	.word	0x6f63;	????	Illegal as 2-op instr
 1da:	6e 69       	addc.b	@r9,	r14	
 1dc:	6f 2e       	jc	$-800    	;abs 0xfebc
 1de:	63 00       	.word	0x0063;	????	
 1e0:	00 00       	.word	0x0000;	????	
 1e2:	00 73       	sbc	r0		
 1e4:	74 64       	addc.b	@r4+,	r4	
 1e6:	61 72       	subc.b	#4,	r1	;r2 As==10
 1e8:	67 2e       	jc	$-816    	;abs 0xfeb8
 1ea:	68 00       	.word	0x0068;	????	
 1ec:	01 00       	.word	0x0001;	????	
 1ee:	00 00       	.word	0x0000;	????	
 1f0:	00 03       	.word	0x0300;	????	
 1f2:	02 bc       	bit	r12,	r2	
 1f4:	c3 03       	.word	0x03c3;	????	
 1f6:	d9 00       	.word	0x00d9;	????	
 1f8:	01 f6       	and	r6,	r1	
 1fa:	00 02       	.word	0x0200;	????	
 1fc:	04 02       	.word	0x0204;	????	
 1fe:	9f 00       	.word	0x009f;	????	
 200:	02 04       	.word	0x0402;	????	
 202:	01 06       	.word	0x0601;	????	
 204:	2e 06       	.word	0x062e;	????	
 206:	bc 4b 4b 00 	mov	@r11+,	75(r12)	;0x004b(r12)
 20a:	02 04       	.word	0x0402;	????	
 20c:	02 06       	.word	0x0602;	????	
 20e:	2e 00       	.word	0x002e;	????	
 210:	02 04       	.word	0x0402;	????	
 212:	01 66       	addc	r6,	r1	
 214:	06 bb       	bit	r11,	r6	
 216:	4b d8       	bis.b	r8,	r11	
 218:	83 03       	.word	0x0383;	????	
 21a:	6c ba       	bit.b	@r10,	r12	
 21c:	14 bb 03 42 	bit	16899(r11),r4	;0x4203(r11)
 220:	2e 4d       	mov	@r13,	r14	
 222:	2f 00       	.word	0x002f;	????	
 224:	02 04       	.word	0x0402;	????	
 226:	01 49       	mov	r9,	r1	
 228:	69 4d       	mov.b	@r13,	r9	
 22a:	bf f3 83 00 	and	#-1,	131(r15);r3 As==11, 0x0083(r15)
 22e:	02 04       	.word	0x0402;	????	
 230:	01 32       	jn	$-1020   	;abs 0xfe34
 232:	00 02       	.word	0x0200;	????	
 234:	04 01       	.word	0x0104;	????	
 236:	08 21       	jnz	$+530    	;abs 0x448
 238:	00 02       	.word	0x0200;	????	
 23a:	04 01       	.word	0x0104;	????	
 23c:	b8 00       	.word	0x00b8;	????	
 23e:	02 04       	.word	0x0402;	????	
 240:	02 06       	.word	0x0602;	????	
 242:	82 06       	.word	0x0682;	????	
 244:	4f 00       	.word	0x004f;	????	
 246:	02 04       	.word	0x0402;	????	
 248:	02 03       	.word	0x0302;	????	
 24a:	70 66       	addc.b	@r6+,	r0	
 24c:	00 02       	.word	0x0200;	????	
 24e:	04 02       	.word	0x0204;	????	
 250:	03 11       	rra	#0		;r3 As==00
 252:	82 00       	.word	0x0082;	????	
 254:	02 04       	.word	0x0402;	????	
 256:	01 06       	.word	0x0601;	????	
 258:	66 00       	.word	0x0066;	????	
 25a:	02 04       	.word	0x0402;	????	
 25c:	01 06       	.word	0x0601;	????	
 25e:	49 69       	rlc.b	r9		
 260:	bd 69 4b 08 	addc	@r9+,	2123(r13);0x084b(r13)
 264:	59 68 7e 6e 	addc.b	28286(r8),r9	;0x6e7e(r8)
 268:	03 29       	jnc	$+520    	;abs 0x470
 26a:	66 fa       	and.b	@r10,	r6	
 26c:	2f 67       	addc	@r7,	r15	
 26e:	02 44       	mov	r4,	r2	
 270:	14 bd bb 31 	bit	12731(r13),r4	;0x31bb(r13)
 274:	67 00       	.word	0x0067;	????	
 276:	02 04       	.word	0x0402;	????	
 278:	01 06       	.word	0x0601;	????	
 27a:	66 06       	.word	0x0666;	????	
 27c:	f3 da       	bis.b	@r10+,	#1	;r3 As==01
 27e:	9f 00       	.word	0x009f;	????	
 280:	02 04       	.word	0x0402;	????	
 282:	01 06       	.word	0x0601;	????	
 284:	66 06       	.word	0x0666;	????	
 286:	08 ad       	dadd	r13,	r8	
 288:	b8 31       	jn	$+882    	;abs 0x5fa
 28a:	30 67       	addc	@r7+,	r0	
 28c:	08 21       	jnz	$+530    	;abs 0x49e
 28e:	9f d7 03 66 	bis	26115(r7),898(r15);0x6603(r7), 0x0382(r15)
 292:	82 03 
 294:	23 2e       	jc	$-952    	;abs 0xfedc
 296:	00 02       	.word	0x0200;	????	
 298:	04 01       	.word	0x0104;	????	
 29a:	03 5d       	.word	0x5d03;	????	Illegal as 2-op instr
 29c:	4a 03       	.word	0x034a;	????	
 29e:	26 66       	addc	@r6,	r6	
 2a0:	02 0a       	.word	0x0a02;	????	
 2a2:	00 01       	.word	0x0100;	????	
 2a4:	01 3d       	jmp	$+516    	;abs 0x4a8
 2a6:	00 00       	.word	0x0000;	????	
 2a8:	00 02       	.word	0x0200;	????	
 2aa:	00 25       	jz	$+514    	;abs 0x4ac
 2ac:	00 00       	.word	0x0000;	????	
 2ae:	00 01       	.word	0x0100;	????	
 2b0:	01 fb       	and	r11,	r1	
 2b2:	0e 0d       	.word	0x0d0e;	????	
 2b4:	00 01       	.word	0x0100;	????	
 2b6:	01 01       	.word	0x0101;	????	
 2b8:	01 00       	.word	0x0001;	????	
 2ba:	00 00       	.word	0x0000;	????	
 2bc:	01 00       	.word	0x0001;	????	
 2be:	00 01       	.word	0x0100;	????	
 2c0:	00 63       	adc	r0		
 2c2:	6f 6e       	addc.b	@r14,	r15	
 2c4:	69 6f       	addc.b	@r15,	r9	
 2c6:	5f 73       	subc.b	#1,	r15	;r3 As==01
 2c8:	65 72       	subc.b	#4,	r5	;r2 As==10
 2ca:	69 61       	addc.b	@r1,	r9	
 2cc:	6c 2e       	jc	$-806    	;abs 0xffa6
 2ce:	63 00       	.word	0x0063;	????	
 2d0:	00 00       	.word	0x0000;	????	
 2d2:	00 00       	.word	0x0000;	????	
 2d4:	00 03       	.word	0x0300;	????	
 2d6:	02 26       	jz	$-1018   	;abs 0xfedc
 2d8:	c6 03       	.word	0x03c6;	????	
 2da:	17 01       	.word	0x0117;	????	
 2dc:	13 4b       	.word	0x4b13;	????	Illegal as 2-op instr
 2de:	31 13       	reti			;return from interupt
 2e0:	4b 02       	.word	0x024b;	????	
 2e2:	02 00       	.word	0x0002;	????	
 2e4:	01 01       	.word	0x0101;	????	
 2e6:	1b 01       	.word	0x011b;	????	
 2e8:	00 00       	.word	0x0000;	????	
 2ea:	02 00       	.word	0x0002;	????	
 2ec:	cf 00       	.word	0x00cf;	????	
 2ee:	00 00       	.word	0x0000;	????	
 2f0:	01 01       	.word	0x0101;	????	
 2f2:	fb 0e       	.word	0x0efb;	????	
 2f4:	0d 00       	.word	0x000d;	????	
 2f6:	01 01       	.word	0x0101;	????	
 2f8:	01 01       	.word	0x0101;	????	
 2fa:	00 00       	.word	0x0000;	????	
 2fc:	00 01       	.word	0x0100;	????	
 2fe:	00 00       	.word	0x0000;	????	
 300:	01 2f       	jc	$-508    	;abs 0x104
 302:	55 73       	subc.b	#1,	r5	;r3 As==01
 304:	65 72       	subc.b	#4,	r5	;r2 As==10
 306:	73 2f       	jc	$-280    	;abs 0x1ee
 308:	6f 6c       	addc.b	@r12,	r15	
 30a:	69 76       	subc.b	@r6,	r9	
 30c:	65 72       	subc.b	#4,	r5	;r2 As==10
 30e:	73 61       	.word	0x6173;	????	Illegal as 2-op instr
 310:	6e 63       	addc.b	#2,	r14	;r3 As==10
 312:	68 65       	addc.b	@r5,	r8	
 314:	7a 2f       	jc	$-266    	;abs 0x20a
 316:	41 70       	subc.b	r0,	r1	
 318:	70 6c       	addc.b	@r12+,	r0	
 31a:	69 63       	addc.b	#2,	r9	;r3 As==10
 31c:	61 74       	subc.b	@r4,	r1	
 31e:	69 6f       	addc.b	@r15,	r9	
 320:	6e 73       	subc.b	#2,	r14	;r3 As==10
 322:	2f 45       	mov	@r5,	r15	
 324:	6e 65       	addc.b	@r5,	r14	
 326:	72 67       	addc.b	@r7+,	r2	
 328:	69 61       	addc.b	@r1,	r9	
 32a:	2e 61       	addc	@r1,	r14	
 32c:	70 70 2f 43 	subc.b	#17199,	r0	;#0x432f
 330:	6f 6e       	addc.b	@r14,	r15	
 332:	74 65       	addc.b	@r5+,	r4	
 334:	6e 74       	subc.b	@r4,	r14	
 336:	73 2f       	jc	$-280    	;abs 0x21e
 338:	52 65 73 6f 	addc.b	28531(r5),r2	;0x6f73(r5)
 33c:	75 72       	subc.b	#8,	r5	;r2 As==11
 33e:	63 65       	.word	0x6563;	????	Illegal as 2-op instr
 340:	73 2f       	jc	$-280    	;abs 0x228
 342:	4a 61       	addc.b	r1,	r10	
 344:	76 61       	addc.b	@r1+,	r6	
 346:	2f 68       	addc	@r8,	r15	
 348:	61 72       	subc.b	#4,	r1	;r2 As==10
 34a:	64 77       	subc.b	@r7,	r4	
 34c:	61 72       	subc.b	#4,	r1	;r2 As==10
 34e:	65 2f       	jc	$-308    	;abs 0x21a
 350:	74 6f       	addc.b	@r15+,	r4	
 352:	6f 6c       	addc.b	@r12,	r15	
 354:	73 2f       	jc	$-280    	;abs 0x23c
 356:	6d 73       	subc.b	#2,	r13	;r3 As==10
 358:	70 34       	jge	$+226    	;abs 0x43a
 35a:	33 30       	jn	$+104    	;abs 0x3c2
 35c:	2f 62       	addc	#4,	r15	;r2 As==10
 35e:	69 6e       	addc.b	@r14,	r9	
 360:	2f 2e       	jc	$-928    	;abs 0xffc0
 362:	2e 2f       	jc	$-418    	;abs 0x1c0
 364:	6c 69       	addc.b	@r9,	r12	
 366:	62 2f       	jc	$-314    	;abs 0x22c
 368:	67 63       	addc.b	#2,	r7	;r3 As==10
 36a:	63 2f       	jc	$-312    	;abs 0x232
 36c:	6d 73       	subc.b	#2,	r13	;r3 As==10
 36e:	70 34       	jge	$+226    	;abs 0x450
 370:	33 30       	jn	$+104    	;abs 0x3d8
 372:	2f 34       	jge	$+96     	;abs 0x3d2
 374:	2e 36       	jge	$-930    	;abs 0xffd2
 376:	2e 33       	jn	$-418    	;abs 0x1d4
 378:	2f 2e       	jc	$-928    	;abs 0xffd8
 37a:	2e 2f       	jc	$-418    	;abs 0x1d8
 37c:	2e 2e       	jc	$-930    	;abs 0xffda
 37e:	2f 2e       	jc	$-928    	;abs 0xffde
 380:	2e 2f       	jc	$-418    	;abs 0x1de
 382:	2e 2e       	jc	$-930    	;abs 0xffe0
 384:	2f 6d       	addc	@r13,	r15	
 386:	73 70       	.word	0x7073;	????	Illegal as 2-op instr
 388:	34 33       	jn	$-406    	;abs 0x1f2
 38a:	30 2f       	jc	$-414    	;abs 0x1ec
 38c:	69 6e       	addc.b	@r14,	r9	
 38e:	63 6c       	.word	0x6c63;	????	Illegal as 2-op instr
 390:	75 64       	addc.b	@r4+,	r5	
 392:	65 00       	.word	0x0065;	????	
 394:	00 73       	sbc	r0		
 396:	65 72       	subc.b	#4,	r5	;r2 As==10
 398:	69 61       	addc.b	@r1,	r9	
 39a:	6c 5f       	add.b	@r15,	r12	
 39c:	75 73       	subc.b	#-1,	r5	;r3 As==11
 39e:	63 69       	.word	0x6963;	????	Illegal as 2-op instr
 3a0:	5f 6d 73 70 	addc.b	28787(r13),r15	;0x7073(r13)
 3a4:	34 33       	jn	$-406    	;abs 0x20e
 3a6:	30 2e       	jc	$-926    	;abs 0x8
 3a8:	63 00       	.word	0x0063;	????	
 3aa:	00 00       	.word	0x0000;	????	
 3ac:	00 6d       	addc	r13,	r0	
 3ae:	73 70       	.word	0x7073;	????	Illegal as 2-op instr
 3b0:	34 33       	jn	$-406    	;abs 0x21a
 3b2:	30 67       	addc	@r7+,	r0	
 3b4:	32 35       	jge	$+614    	;abs 0x61a
 3b6:	35 33       	jn	$-404    	;abs 0x222
 3b8:	2e 68       	addc	@r8,	r14	
 3ba:	00 01       	.word	0x0100;	????	
 3bc:	00 00       	.word	0x0000;	????	
 3be:	00 00       	.word	0x0000;	????	
 3c0:	03 02       	.word	0x0203;	????	
 3c2:	32 c6       	bic	@r6+,	r2	
 3c4:	03 2a       	jnc	$-1016   	;abs 0xffcc
 3c6:	01 13       	reti			;return from interupt
 3c8:	67 67       	addc.b	@r7,	r7	
 3ca:	68 03       	.word	0x0368;	????	
 3cc:	0a 08       	.word	0x080a;	????	
 3ce:	ac 02       	.word	0x02ac;	????	
 3d0:	2e 14       	.word	0x142e;	????	
 3d2:	d7 bd bf 02 	bit.b	703(r13),5166(r7);0x02bf(r13), 0x142e(r7)
 3d6:	2e 14 
 3d8:	84 d7 bb bb 	bis	r7,	-17477(r4);0xbbbb(r4)
 3dc:	da bb d7 d7 	bit.b	-10281(r11),19364(r10);0xd7d7(r11), 0x4ba4(r10)
 3e0:	a4 4b 
 3e2:	67 03       	.word	0x0367;	????	
 3e4:	4b 2e       	jc	$-872    	;abs 0x7c
 3e6:	13 d7       	.word	0xd713;	????	Illegal as 2-op instr
 3e8:	03 36       	jge	$-1016   	;abs 0xfff0
 3ea:	2e 13       	reti			;return from interupt
 3ec:	4b 31       	jn	$+664    	;abs 0x684
 3ee:	00 02       	.word	0x0200;	????	
 3f0:	04 01       	.word	0x0104;	????	
 3f2:	13 83       	dec	#0		;r3 As==00
 3f4:	4b 31       	jn	$+664    	;abs 0x68c
 3f6:	13 4b       	.word	0x4b13;	????	Illegal as 2-op instr
 3f8:	31 00       	.word	0x0031;	????	
 3fa:	02 04       	.word	0x0402;	????	
 3fc:	01 13       	reti			;return from interupt
 3fe:	83 4b       	mov	r11,	#1	;r3 As==01
 400:	02 02       	.word	0x0202;	????	
 402:	00 01       	.word	0x0100;	????	
 404:	01 78       	subc	r8,	r1	
 406:	00 00       	.word	0x0000;	????	
 408:	00 02       	.word	0x0200;	????	
 40a:	00 4b       	br	r11		
 40c:	00 00       	.word	0x0000;	????	
 40e:	00 01       	.word	0x0100;	????	
 410:	01 fb       	and	r11,	r1	
 412:	0e 0d       	.word	0x0d0e;	????	
 414:	00 01       	.word	0x0100;	????	
 416:	01 01       	.word	0x0101;	????	
 418:	01 00       	.word	0x0001;	????	
 41a:	00 00       	.word	0x0000;	????	
 41c:	01 00       	.word	0x0001;	????	
 41e:	00 01       	.word	0x0100;	????	
 420:	2e 2e       	jc	$-930    	;abs 0x7e
 422:	2f 2e       	jc	$-928    	;abs 0x82
 424:	2e 2f       	jc	$-418    	;abs 0x282
 426:	2e 2e       	jc	$-930    	;abs 0x84
 428:	2f 2e       	jc	$-928    	;abs 0x88
 42a:	2e 2f       	jc	$-418    	;abs 0x288
 42c:	67 63       	addc.b	#2,	r7	;r3 As==10
 42e:	63 2f       	jc	$-312    	;abs 0x2f6
 430:	6c 69       	addc.b	@r9,	r12	
 432:	62 67       	addc.b	@r7,	r2	
 434:	63 63       	.word	0x6363;	????	Illegal as 2-op instr
 436:	2f 2e       	jc	$-928    	;abs 0x96
 438:	2e 2f       	jc	$-418    	;abs 0x296
 43a:	67 63       	addc.b	#2,	r7	;r3 As==10
 43c:	63 2f       	jc	$-312    	;abs 0x304
 43e:	63 6f       	.word	0x6f63;	????	Illegal as 2-op instr
 440:	6e 66       	addc.b	@r6,	r14	
 442:	69 67       	addc.b	@r7,	r9	
 444:	2f 6d       	addc	@r13,	r15	
 446:	73 70       	.word	0x7073;	????	Illegal as 2-op instr
 448:	34 33       	jn	$-406    	;abs 0x2b2
 44a:	30 00       	.word	0x0030;	????	
 44c:	00 6c       	addc	r12,	r0	
 44e:	69 62       	addc.b	#4,	r9	;r2 As==10
 450:	67 63       	addc.b	#2,	r7	;r3 As==10
 452:	63 2e       	jc	$-824    	;abs 0x11a
 454:	53 00       	.word	0x0053;	????	
 456:	01 00       	.word	0x0001;	????	
 458:	00 00       	.word	0x0000;	????	
 45a:	00 03       	.word	0x0300;	????	
 45c:	02 94       	cmp	r4,	r2	
 45e:	c7 03       	.word	0x03c7;	????	
 460:	c6 04       	.word	0x04c6;	????	
 462:	01 2f       	jc	$-508    	;abs 0x266
 464:	2f 2f       	jc	$-416    	;abs 0x2c4
 466:	4b 2f       	jc	$-360    	;abs 0x2fe
 468:	2f 2f       	jc	$-416    	;abs 0x2c8
 46a:	2f 2f       	jc	$-416    	;abs 0x2ca
 46c:	2f 2f       	jc	$-416    	;abs 0x2cc
 46e:	2f 4b       	mov	@r11,	r15	
 470:	2f 2f       	jc	$-416    	;abs 0x2d0
 472:	2f 2f       	jc	$-416    	;abs 0x2d2
 474:	2f 2f       	jc	$-416    	;abs 0x2d4
 476:	2f 2f       	jc	$-416    	;abs 0x2d6
 478:	2f 34       	jge	$+96     	;abs 0x4d8
 47a:	4b 2f       	jc	$-360    	;abs 0x312
 47c:	02 02       	.word	0x0202;	????	
 47e:	00 01       	.word	0x0100;	????	
 480:	01 6d       	addc	r13,	r1	
 482:	00 00       	.word	0x0000;	????	
 484:	00 02       	.word	0x0200;	????	
 486:	00 4b       	br	r11		
 488:	00 00       	.word	0x0000;	????	
 48a:	00 01       	.word	0x0100;	????	
 48c:	01 fb       	and	r11,	r1	
 48e:	0e 0d       	.word	0x0d0e;	????	
 490:	00 01       	.word	0x0100;	????	
 492:	01 01       	.word	0x0101;	????	
 494:	01 00       	.word	0x0001;	????	
 496:	00 00       	.word	0x0000;	????	
 498:	01 00       	.word	0x0001;	????	
 49a:	00 01       	.word	0x0100;	????	
 49c:	2e 2e       	jc	$-930    	;abs 0xfa
 49e:	2f 2e       	jc	$-928    	;abs 0xfe
 4a0:	2e 2f       	jc	$-418    	;abs 0x2fe
 4a2:	2e 2e       	jc	$-930    	;abs 0x100
 4a4:	2f 2e       	jc	$-928    	;abs 0x104
 4a6:	2e 2f       	jc	$-418    	;abs 0x304
 4a8:	67 63       	addc.b	#2,	r7	;r3 As==10
 4aa:	63 2f       	jc	$-312    	;abs 0x372
 4ac:	6c 69       	addc.b	@r9,	r12	
 4ae:	62 67       	addc.b	@r7,	r2	
 4b0:	63 63       	.word	0x6363;	????	Illegal as 2-op instr
 4b2:	2f 2e       	jc	$-928    	;abs 0x112
 4b4:	2e 2f       	jc	$-418    	;abs 0x312
 4b6:	67 63       	addc.b	#2,	r7	;r3 As==10
 4b8:	63 2f       	jc	$-312    	;abs 0x380
 4ba:	63 6f       	.word	0x6f63;	????	Illegal as 2-op instr
 4bc:	6e 66       	addc.b	@r6,	r14	
 4be:	69 67       	addc.b	@r7,	r9	
 4c0:	2f 6d       	addc	@r13,	r15	
 4c2:	73 70       	.word	0x7073;	????	Illegal as 2-op instr
 4c4:	34 33       	jn	$-406    	;abs 0x32e
 4c6:	30 00       	.word	0x0030;	????	
 4c8:	00 6c       	addc	r12,	r0	
 4ca:	69 62       	addc.b	#4,	r9	;r2 As==10
 4cc:	67 63       	addc.b	#2,	r7	;r3 As==10
 4ce:	63 2e       	jc	$-824    	;abs 0x196
 4d0:	53 00       	.word	0x0053;	????	
 4d2:	01 00       	.word	0x0001;	????	
 4d4:	00 00       	.word	0x0000;	????	
 4d6:	00 03       	.word	0x0300;	????	
 4d8:	02 ce       	bic	r14,	r2	
 4da:	c7 03       	.word	0x03c7;	????	
 4dc:	a4 04       	.word	0x04a4;	????	
 4de:	01 4b       	mov	r11,	r1	
 4e0:	2f 2f       	jc	$-416    	;abs 0x340
 4e2:	2f 2f       	jc	$-416    	;abs 0x342
 4e4:	2f 2f       	jc	$-416    	;abs 0x344
 4e6:	2f 2f       	jc	$-416    	;abs 0x346
 4e8:	2f 2f       	jc	$-416    	;abs 0x348
 4ea:	34 4b       	mov	@r11+,	r4	
 4ec:	2f 02       	.word	0x022f;	????	
 4ee:	02 00       	.word	0x0002;	????	
 4f0:	01 01       	.word	0x0101;	????	
 4f2:	e2 00       	.word	0x00e2;	????	
 4f4:	00 00       	.word	0x0000;	????	
 4f6:	02 00       	.word	0x0002;	????	
 4f8:	90 00       	.word	0x0090;	????	
 4fa:	00 00       	.word	0x0000;	????	
 4fc:	01 01       	.word	0x0101;	????	
 4fe:	fb 0e       	.word	0x0efb;	????	
 500:	0d 00       	.word	0x000d;	????	
 502:	01 01       	.word	0x0101;	????	
 504:	01 01       	.word	0x0101;	????	
 506:	00 00       	.word	0x0000;	????	
 508:	00 01       	.word	0x0100;	????	
 50a:	00 00       	.word	0x0000;	????	
 50c:	01 2e       	jc	$-1020   	;abs 0x110
 50e:	2f 73       	subc	#2,	r15	;r3 As==10
 510:	74 72       	subc.b	#8,	r4	;r2 As==11
 512:	69 6e       	addc.b	@r14,	r9	
 514:	67 00       	.word	0x0067;	????	
 516:	2e 2f       	jc	$-418    	;abs 0x374
 518:	2e 2e       	jc	$-930    	;abs 0x176
 51a:	2f 69       	addc	@r9,	r15	
 51c:	6e 63       	addc.b	#2,	r14	;r3 As==10
 51e:	6c 75       	subc.b	@r5,	r12	
 520:	64 65       	addc.b	@r5,	r4	
 522:	2f 73       	subc	#2,	r15	;r3 As==10
 524:	79 73       	subc.b	#-1,	r9	;r3 As==11
 526:	00 2f       	jc	$-510    	;abs 0x328
 528:	55 73       	subc.b	#1,	r5	;r3 As==01
 52a:	65 72       	subc.b	#4,	r5	;r2 As==10
 52c:	73 2f       	jc	$-280    	;abs 0x414
 52e:	72 77       	subc.b	@r7+,	r2	
 530:	65 73       	subc.b	#2,	r5	;r3 As==10
 532:	73 65       	.word	0x6573;	????	Illegal as 2-op instr
 534:	6c 73       	subc.b	#2,	r12	;r3 As==10
 536:	2f 6f       	addc	@r15,	r15	
 538:	70 74       	subc.b	@r4+,	r0	
 53a:	2f 6d       	addc	@r13,	r15	
 53c:	73 70       	.word	0x7073;	????	Illegal as 2-op instr
 53e:	67 63       	addc.b	#2,	r7	;r3 As==10
 540:	63 5f       	.word	0x5f63;	????	Illegal as 2-op instr
 542:	65 6e       	addc.b	@r14,	r5	
 544:	65 72       	subc.b	#4,	r5	;r2 As==10
 546:	67 69       	addc.b	@r9,	r7	
 548:	61 2f       	jc	$-316    	;abs 0x40c
 54a:	6c 69       	addc.b	@r9,	r12	
 54c:	62 2f       	jc	$-314    	;abs 0x412
 54e:	67 63       	addc.b	#2,	r7	;r3 As==10
 550:	63 2f       	jc	$-312    	;abs 0x418
 552:	6d 73       	subc.b	#2,	r13	;r3 As==10
 554:	70 34       	jge	$+226    	;abs 0x636
 556:	33 30       	jn	$+104    	;abs 0x5be
 558:	2f 34       	jge	$+96     	;abs 0x5b8
 55a:	2e 36       	jge	$-930    	;abs 0x1b8
 55c:	2e 33       	jn	$-418    	;abs 0x3ba
 55e:	2f 69       	addc	@r9,	r15	
 560:	6e 63       	addc.b	#2,	r14	;r3 As==10
 562:	6c 75       	subc.b	@r5,	r12	
 564:	64 65       	addc.b	@r5,	r4	
 566:	00 00       	.word	0x0000;	????	
 568:	6d 65       	addc.b	@r5,	r13	
 56a:	6d 73       	subc.b	#2,	r13	;r3 As==10
 56c:	65 74       	subc.b	@r4,	r5	
 56e:	2e 63       	addc	#2,	r14	;r3 As==10
 570:	00 01       	.word	0x0100;	????	
 572:	00 00       	.word	0x0000;	????	
 574:	74 79       	subc.b	@r9+,	r4	
 576:	70 65       	addc.b	@r5+,	r0	
 578:	73 2e       	jc	$-792    	;abs 0x260
 57a:	68 00       	.word	0x0068;	????	
 57c:	02 00       	.word	0x0002;	????	
 57e:	00 73       	sbc	r0		
 580:	74 64       	addc.b	@r4+,	r4	
 582:	64 65       	addc.b	@r5,	r4	
 584:	66 2e       	jc	$-818    	;abs 0x252
 586:	68 00       	.word	0x0068;	????	
 588:	03 00       	.word	0x0003;	????	
 58a:	00 00       	.word	0x0000;	????	
 58c:	00 03       	.word	0x0300;	????	
 58e:	02 f0       	and	r0,	r2	
 590:	c7 03       	.word	0x03c7;	????	
 592:	3d 01       	.word	0x013d;	????	
 594:	03 15       	.word	0x1503;	????	
 596:	82 00       	.word	0x0082;	????	
 598:	02 04       	.word	0x0402;	????	
 59a:	01 06       	.word	0x0601;	????	
 59c:	66 06       	.word	0x0666;	????	
 59e:	4e 67       	addc.b	r7,	r14	
 5a0:	00 02       	.word	0x0200;	????	
 5a2:	04 01       	.word	0x0104;	????	
 5a4:	2b 03       	.word	0x032b;	????	
 5a6:	09 66       	addc	r6,	r9	
 5a8:	84 03       	.word	0x0384;	????	
 5aa:	0a 66       	addc	r6,	r10	
 5ac:	4d 31       	jn	$+668    	;abs 0x848
 5ae:	03 7a       	.word	0x7a03;	????	Illegal as 2-op instr
 5b0:	9e 03       	.word	0x039e;	????	
 5b2:	0c 2e       	jc	$-998    	;abs 0x1cc
 5b4:	00 02       	.word	0x0200;	????	
 5b6:	04 01       	.word	0x0104;	????	
 5b8:	a1 00       	.word	0x00a1;	????	
 5ba:	02 04       	.word	0x0402;	????	
 5bc:	01 4b       	mov	r11,	r1	
 5be:	00 02       	.word	0x0200;	????	
 5c0:	04 01       	.word	0x0104;	????	
 5c2:	30 03       	.word	0x0330;	????	
 5c4:	bd 7f 4a 03 	subc	@r15+,	842(r13);0x034a(r13)
 5c8:	c3 00       	.word	0x00c3;	????	
 5ca:	2e 31       	jn	$+606    	;abs 0x828
 5cc:	2f 00       	.word	0x002f;	????	
 5ce:	02 04       	.word	0x0402;	????	
 5d0:	01 31       	jn	$+516    	;abs 0x7d4
 5d2:	4e 02       	.word	0x024e;	????	
 5d4:	0a 00       	.word	0x000a;	????	
 5d6:	01 01       	.word	0x0101;	????	
 5d8:	52 00       	.word	0x0052;	????	
 5da:	00 00       	.word	0x0000;	????	
 5dc:	02 00       	.word	0x0002;	????	
 5de:	3c 00       	.word	0x003c;	????	
 5e0:	00 00       	.word	0x0000;	????	
 5e2:	01 01       	.word	0x0101;	????	
 5e4:	fb 0e       	.word	0x0efb;	????	
 5e6:	0d 00       	.word	0x000d;	????	
 5e8:	01 01       	.word	0x0101;	????	
 5ea:	01 01       	.word	0x0101;	????	
 5ec:	00 00       	.word	0x0000;	????	
 5ee:	00 01       	.word	0x0100;	????	
 5f0:	00 00       	.word	0x0000;	????	
 5f2:	01 2e       	jc	$-1020   	;abs 0x1f6
 5f4:	2e 2f       	jc	$-418    	;abs 0x452
 5f6:	2e 2e       	jc	$-930    	;abs 0x254
 5f8:	2f 2e       	jc	$-928    	;abs 0x258
 5fa:	2e 2f       	jc	$-418    	;abs 0x458
 5fc:	67 63       	addc.b	#2,	r7	;r3 As==10
 5fe:	63 2f       	jc	$-312    	;abs 0x4c6
 600:	67 63       	addc.b	#2,	r7	;r3 As==10
 602:	63 2f       	jc	$-312    	;abs 0x4ca
 604:	63 6f       	.word	0x6f63;	????	Illegal as 2-op instr
 606:	6e 66       	addc.b	@r6,	r14	
 608:	69 67       	addc.b	@r7,	r9	
 60a:	2f 6d       	addc	@r13,	r15	
 60c:	73 70       	.word	0x7073;	????	Illegal as 2-op instr
 60e:	34 33       	jn	$-406    	;abs 0x478
 610:	30 00       	.word	0x0030;	????	
 612:	00 63       	adc	r0		
 614:	72 74       	subc.b	@r4+,	r2	
 616:	30 2e       	jc	$-926    	;abs 0x278
 618:	53 00       	.word	0x0053;	????	
 61a:	01 00       	.word	0x0001;	????	
 61c:	00 00       	.word	0x0000;	????	
 61e:	00 03       	.word	0x0300;	????	
 620:	02 00       	.word	0x0002;	????	
 622:	c0 03       	.word	0x03c0;	????	
 624:	e8 00       	.word	0x00e8;	????	
 626:	01 4b       	mov	r11,	r1	
 628:	4b 02       	.word	0x024b;	????	
 62a:	04 00       	.word	0x0004;	????	
 62c:	01 01       	.word	0x0101;	????	
 62e:	50 00       	.word	0x0050;	????	
 630:	00 00       	.word	0x0000;	????	
 632:	02 00       	.word	0x0002;	????	
 634:	3c 00       	.word	0x003c;	????	
 636:	00 00       	.word	0x0000;	????	
 638:	01 01       	.word	0x0101;	????	
 63a:	fb 0e       	.word	0x0efb;	????	
 63c:	0d 00       	.word	0x000d;	????	
 63e:	01 01       	.word	0x0101;	????	
 640:	01 01       	.word	0x0101;	????	
 642:	00 00       	.word	0x0000;	????	
 644:	00 01       	.word	0x0100;	????	
 646:	00 00       	.word	0x0000;	????	
 648:	01 2e       	jc	$-1020   	;abs 0x24c
 64a:	2e 2f       	jc	$-418    	;abs 0x4a8
 64c:	2e 2e       	jc	$-930    	;abs 0x2aa
 64e:	2f 2e       	jc	$-928    	;abs 0x2ae
 650:	2e 2f       	jc	$-418    	;abs 0x4ae
 652:	67 63       	addc.b	#2,	r7	;r3 As==10
 654:	63 2f       	jc	$-312    	;abs 0x51c
 656:	67 63       	addc.b	#2,	r7	;r3 As==10
 658:	63 2f       	jc	$-312    	;abs 0x520
 65a:	63 6f       	.word	0x6f63;	????	Illegal as 2-op instr
 65c:	6e 66       	addc.b	@r6,	r14	
 65e:	69 67       	addc.b	@r7,	r9	
 660:	2f 6d       	addc	@r13,	r15	
 662:	73 70       	.word	0x7073;	????	Illegal as 2-op instr
 664:	34 33       	jn	$-406    	;abs 0x4ce
 666:	30 00       	.word	0x0030;	????	
 668:	00 63       	adc	r0		
 66a:	72 74       	subc.b	@r4+,	r2	
 66c:	30 2e       	jc	$-926    	;abs 0x2ce
 66e:	53 00       	.word	0x0053;	????	
 670:	01 00       	.word	0x0001;	????	
 672:	00 00       	.word	0x0000;	????	
 674:	00 03       	.word	0x0300;	????	
 676:	02 0c       	.word	0x0c02;	????	
 678:	c0 03       	.word	0x03c0;	????	
 67a:	99 01       	.word	0x0199;	????	
 67c:	01 02       	.word	0x0201;	????	
 67e:	04 00       	.word	0x0004;	????	
 680:	01 01       	.word	0x0101;	????	
 682:	56 00       	.word	0x0056;	????	
 684:	00 00       	.word	0x0000;	????	
 686:	02 00       	.word	0x0002;	????	
 688:	3c 00       	.word	0x003c;	????	
 68a:	00 00       	.word	0x0000;	????	
 68c:	01 01       	.word	0x0101;	????	
 68e:	fb 0e       	.word	0x0efb;	????	
 690:	0d 00       	.word	0x000d;	????	
 692:	01 01       	.word	0x0101;	????	
 694:	01 01       	.word	0x0101;	????	
 696:	00 00       	.word	0x0000;	????	
 698:	00 01       	.word	0x0100;	????	
 69a:	00 00       	.word	0x0000;	????	
 69c:	01 2e       	jc	$-1020   	;abs 0x2a0
 69e:	2e 2f       	jc	$-418    	;abs 0x4fc
 6a0:	2e 2e       	jc	$-930    	;abs 0x2fe
 6a2:	2f 2e       	jc	$-928    	;abs 0x302
 6a4:	2e 2f       	jc	$-418    	;abs 0x502
 6a6:	67 63       	addc.b	#2,	r7	;r3 As==10
 6a8:	63 2f       	jc	$-312    	;abs 0x570
 6aa:	67 63       	addc.b	#2,	r7	;r3 As==10
 6ac:	63 2f       	jc	$-312    	;abs 0x574
 6ae:	63 6f       	.word	0x6f63;	????	Illegal as 2-op instr
 6b0:	6e 66       	addc.b	@r6,	r14	
 6b2:	69 67       	addc.b	@r7,	r9	
 6b4:	2f 6d       	addc	@r13,	r15	
 6b6:	73 70       	.word	0x7073;	????	Illegal as 2-op instr
 6b8:	34 33       	jn	$-406    	;abs 0x522
 6ba:	30 00       	.word	0x0030;	????	
 6bc:	00 63       	adc	r0		
 6be:	72 74       	subc.b	@r4+,	r2	
 6c0:	30 2e       	jc	$-926    	;abs 0x322
 6c2:	53 00       	.word	0x0053;	????	
 6c4:	01 00       	.word	0x0001;	????	
 6c6:	00 00       	.word	0x0000;	????	
 6c8:	00 03       	.word	0x0300;	????	
 6ca:	02 10       	rrc	r2		
 6cc:	c0 03       	.word	0x03c0;	????	
 6ce:	bc 01       	.word	0x01bc;	????	
 6d0:	01 4b       	mov	r11,	r1	
 6d2:	2f 30       	jn	$+96     	;abs 0x732
 6d4:	67 2f       	jc	$-304    	;abs 0x5a4
 6d6:	67 02       	.word	0x0267;	????	
 6d8:	02 00       	.word	0x0002;	????	
 6da:	01 01       	.word	0x0101;	????	
 6dc:	56 00       	.word	0x0056;	????	
 6de:	00 00       	.word	0x0000;	????	
 6e0:	02 00       	.word	0x0002;	????	
 6e2:	3c 00       	.word	0x003c;	????	
 6e4:	00 00       	.word	0x0000;	????	
 6e6:	01 01       	.word	0x0101;	????	
 6e8:	fb 0e       	.word	0x0efb;	????	
 6ea:	0d 00       	.word	0x000d;	????	
 6ec:	01 01       	.word	0x0101;	????	
 6ee:	01 01       	.word	0x0101;	????	
 6f0:	00 00       	.word	0x0000;	????	
 6f2:	00 01       	.word	0x0100;	????	
 6f4:	00 00       	.word	0x0000;	????	
 6f6:	01 2e       	jc	$-1020   	;abs 0x2fa
 6f8:	2e 2f       	jc	$-418    	;abs 0x556
 6fa:	2e 2e       	jc	$-930    	;abs 0x358
 6fc:	2f 2e       	jc	$-928    	;abs 0x35c
 6fe:	2e 2f       	jc	$-418    	;abs 0x55c
 700:	67 63       	addc.b	#2,	r7	;r3 As==10
 702:	63 2f       	jc	$-312    	;abs 0x5ca
 704:	67 63       	addc.b	#2,	r7	;r3 As==10
 706:	63 2f       	jc	$-312    	;abs 0x5ce
 708:	63 6f       	.word	0x6f63;	????	Illegal as 2-op instr
 70a:	6e 66       	addc.b	@r6,	r14	
 70c:	69 67       	addc.b	@r7,	r9	
 70e:	2f 6d       	addc	@r13,	r15	
 710:	73 70       	.word	0x7073;	????	Illegal as 2-op instr
 712:	34 33       	jn	$-406    	;abs 0x57c
 714:	30 00       	.word	0x0030;	????	
 716:	00 63       	adc	r0		
 718:	72 74       	subc.b	@r4+,	r2	
 71a:	30 2e       	jc	$-926    	;abs 0x37c
 71c:	53 00       	.word	0x0053;	????	
 71e:	01 00       	.word	0x0001;	????	
 720:	00 00       	.word	0x0000;	????	
 722:	00 03       	.word	0x0300;	????	
 724:	02 28       	jnc	$+6      	;abs 0x72a
 726:	c0 03       	.word	0x03c0;	????	
 728:	d6 01       	.word	0x01d6;	????	
 72a:	01 4b       	mov	r11,	r1	
 72c:	2f 30       	jn	$+96     	;abs 0x78c
 72e:	67 2f       	jc	$-304    	;abs 0x5fe
 730:	4b 02       	.word	0x024b;	????	
 732:	02 00       	.word	0x0002;	????	
 734:	01 01       	.word	0x0101;	????	
 736:	51 00       	.word	0x0051;	????	
 738:	00 00       	.word	0x0000;	????	
 73a:	02 00       	.word	0x0002;	????	
 73c:	3c 00       	.word	0x003c;	????	
 73e:	00 00       	.word	0x0000;	????	
 740:	01 01       	.word	0x0101;	????	
 742:	fb 0e       	.word	0x0efb;	????	
 744:	0d 00       	.word	0x000d;	????	
 746:	01 01       	.word	0x0101;	????	
 748:	01 01       	.word	0x0101;	????	
 74a:	00 00       	.word	0x0000;	????	
 74c:	00 01       	.word	0x0100;	????	
 74e:	00 00       	.word	0x0000;	????	
 750:	01 2e       	jc	$-1020   	;abs 0x354
 752:	2e 2f       	jc	$-418    	;abs 0x5b0
 754:	2e 2e       	jc	$-930    	;abs 0x3b2
 756:	2f 2e       	jc	$-928    	;abs 0x3b6
 758:	2e 2f       	jc	$-418    	;abs 0x5b6
 75a:	67 63       	addc.b	#2,	r7	;r3 As==10
 75c:	63 2f       	jc	$-312    	;abs 0x624
 75e:	67 63       	addc.b	#2,	r7	;r3 As==10
 760:	63 2f       	jc	$-312    	;abs 0x628
 762:	63 6f       	.word	0x6f63;	????	Illegal as 2-op instr
 764:	6e 66       	addc.b	@r6,	r14	
 766:	69 67       	addc.b	@r7,	r9	
 768:	2f 6d       	addc	@r13,	r15	
 76a:	73 70       	.word	0x7073;	????	Illegal as 2-op instr
 76c:	34 33       	jn	$-406    	;abs 0x5d6
 76e:	30 00       	.word	0x0030;	????	
 770:	00 63       	adc	r0		
 772:	72 74       	subc.b	@r4+,	r2	
 774:	30 2e       	jc	$-926    	;abs 0x3d6
 776:	53 00       	.word	0x0053;	????	
 778:	01 00       	.word	0x0001;	????	
 77a:	00 00       	.word	0x0000;	????	
 77c:	00 03       	.word	0x0300;	????	
 77e:	02 14       	.word	0x1402;	????	
 780:	c1 03       	.word	0x03c1;	????	
 782:	fe 01       	.word	0x01fe;	????	
 784:	01 4b       	mov	r11,	r1	
 786:	02 02       	.word	0x0202;	????	
 788:	00 01       	.word	0x0100;	????	
 78a:	01 50       	add	r0,	r1	
 78c:	00 00       	.word	0x0000;	????	
 78e:	00 02       	.word	0x0200;	????	
 790:	00 3c       	jmp	$+2      	;abs 0x792
 792:	00 00       	.word	0x0000;	????	
 794:	00 01       	.word	0x0100;	????	
 796:	01 fb       	and	r11,	r1	
 798:	0e 0d       	.word	0x0d0e;	????	
 79a:	00 01       	.word	0x0100;	????	
 79c:	01 01       	.word	0x0101;	????	
 79e:	01 00       	.word	0x0001;	????	
 7a0:	00 00       	.word	0x0000;	????	
 7a2:	01 00       	.word	0x0001;	????	
 7a4:	00 01       	.word	0x0100;	????	
 7a6:	2e 2e       	jc	$-930    	;abs 0x404
 7a8:	2f 2e       	jc	$-928    	;abs 0x408
 7aa:	2e 2f       	jc	$-418    	;abs 0x608
 7ac:	2e 2e       	jc	$-930    	;abs 0x40a
 7ae:	2f 67       	addc	@r7,	r15	
 7b0:	63 63       	.word	0x6363;	????	Illegal as 2-op instr
 7b2:	2f 67       	addc	@r7,	r15	
 7b4:	63 63       	.word	0x6363;	????	Illegal as 2-op instr
 7b6:	2f 63       	addc	#2,	r15	;r3 As==10
 7b8:	6f 6e       	addc.b	@r14,	r15	
 7ba:	66 69       	addc.b	@r9,	r6	
 7bc:	67 2f       	jc	$-304    	;abs 0x68c
 7be:	6d 73       	subc.b	#2,	r13	;r3 As==10
 7c0:	70 34       	jge	$+226    	;abs 0x8a2
 7c2:	33 30       	jn	$+104    	;abs 0x82a
 7c4:	00 00       	.word	0x0000;	????	
 7c6:	63 72       	.word	0x7263;	????	Illegal as 2-op instr
 7c8:	74 30       	jn	$+234    	;abs 0x8b2
 7ca:	2e 53       	incd	r14		
 7cc:	00 01       	.word	0x0100;	????	
 7ce:	00 00       	.word	0x0000;	????	
 7d0:	00 00       	.word	0x0000;	????	
 7d2:	03 02       	.word	0x0203;	????	
 7d4:	5a c8 03 cd 	bic.b	-13053(r8),r10	;0xcd03(r8)
 7d8:	02 01       	.word	0x0102;	????	
 7da:	02 02       	.word	0x0202;	????	
 7dc:	00 01       	.word	0x0100;	????	
 7de:	01 00       	Address 0x00000000000007de is out of bounds.
Address 0x00000000000007e0 is out of bounds.
and.b	@r15+,	-1(r15)	;0xffff(r15)

Disassembly of section .debug_frame:

00000000 <.debug_frame>:
   0:	0e 00       	.word	0x000e;	????	
   2:	00 00       	.word	0x0000;	????	
   4:	ff ff ff ff 	and.b	@r15+,	-1(r15)	;0xffff(r15)
   8:	01 00       	.word	0x0001;	????	
   a:	01 7e       	subc	r14,	r1	
   c:	00 0c       	.word	0x0c00;	????	
   e:	01 02       	.word	0x0201;	????	
  10:	80 01       	.word	0x0180;	????	
  12:	08 00       	.word	0x0008;	????	
  14:	00 00       	.word	0x0000;	????	
  16:	00 00       	.word	0x0000;	????	
  18:	00 00       	.word	0x0000;	????	
  1a:	fa c1 18 00 	bic.b	@r1+,	24(r10)	;0x0018(r10)
  1e:	18 00       	.word	0x0018;	????	
  20:	00 00       	.word	0x0000;	????	
  22:	00 00       	.word	0x0000;	????	
  24:	00 00       	.word	0x0000;	????	
  26:	12 c2 44 00 	bic	&0x0044,r2	
  2a:	42 0e       	.word	0x0e42;	????	
  2c:	04 8b       	sub	r11,	r4	
  2e:	02 42       	mov	r2,	r2	
  30:	0e 06       	.word	0x060e;	????	
  32:	8a 03       	.word	0x038a;	????	
  34:	42 0e       	.word	0x0e42;	????	
  36:	08 89       	sub	r9,	r8	
  38:	04 00       	.word	0x0004;	????	
  3a:	08 00       	.word	0x0008;	????	
  3c:	00 00       	.word	0x0000;	????	
  3e:	00 00       	.word	0x0000;	????	
  40:	00 00       	.word	0x0000;	????	
  42:	56 c2 30 00 	bic.b	&0x0030,r6	
  46:	2c 00       	.word	0x002c;	????	
  48:	00 00       	.word	0x0000;	????	
  4a:	00 00       	.word	0x0000;	????	
  4c:	00 00       	.word	0x0000;	????	
  4e:	86 c2 a6 00 	bic	r2,	166(r6)	;0x00a6(r6)
  52:	42 0e       	.word	0x0e42;	????	
  54:	04 8b       	sub	r11,	r4	
  56:	02 42       	mov	r2,	r2	
  58:	0e 06       	.word	0x060e;	????	
  5a:	8a 03       	.word	0x038a;	????	
  5c:	42 0e       	.word	0x0e42;	????	
  5e:	08 89       	sub	r9,	r8	
  60:	04 42       	mov	r2,	r4	
  62:	0e 0a       	.word	0x0a0e;	????	
  64:	88 05       	.word	0x0588;	????	
  66:	42 0e       	.word	0x0e42;	????	
  68:	0c 87       	sub	r7,	r12	
  6a:	06 42       	mov	r2,	r6	
  6c:	0e 0e       	.word	0x0e0e;	????	
  6e:	86 07       	.word	0x0786;	????	
  70:	42 0e       	.word	0x0e42;	????	
  72:	10 85 08 00 	sub	8(r5),	r0	;0x0008(r5)
  76:	2a 00       	.word	0x002a;	????	
  78:	00 00       	.word	0x0000;	????	
  7a:	00 00       	.word	0x0000;	????	
  7c:	00 00       	.word	0x0000;	????	
  7e:	2c c3       	bic	#2,	r12	;r3 As==10
  80:	90 00       	.word	0x0090;	????	
  82:	42 0e       	.word	0x0e42;	????	
  84:	04 8b       	sub	r11,	r4	
  86:	02 42       	mov	r2,	r2	
  88:	0e 06       	.word	0x060e;	????	
  8a:	8a 03       	.word	0x038a;	????	
  8c:	42 0e       	.word	0x0e42;	????	
  8e:	08 89       	sub	r9,	r8	
  90:	04 42       	mov	r2,	r4	
  92:	0e 0a       	.word	0x0a0e;	????	
  94:	88 05       	.word	0x0588;	????	
  96:	42 0e       	.word	0x0e42;	????	
  98:	0c 87       	sub	r7,	r12	
  9a:	06 42       	mov	r2,	r6	
  9c:	0e 0e       	.word	0x0e0e;	????	
  9e:	86 07       	.word	0x0786;	????	
  a0:	44 0e       	.word	0x0e44;	????	
  a2:	60 00       	.word	0x0060;	????	
  a4:	0e 00       	.word	0x000e;	????	
  a6:	00 00       	.word	0x0000;	????	
  a8:	ff ff ff ff 	and.b	@r15+,	-1(r15)	;0xffff(r15)
  ac:	01 00       	.word	0x0001;	????	
  ae:	01 7e       	subc	r14,	r1	
  b0:	00 0c       	.word	0x0c00;	????	
  b2:	01 02       	.word	0x0201;	????	
  b4:	80 01       	.word	0x0180;	????	
  b6:	22 00       	.word	0x0022;	????	
  b8:	00 00       	.word	0x0000;	????	
  ba:	a4 00       	.word	0x00a4;	????	
  bc:	00 00       	.word	0x0000;	????	
  be:	bc c3 6a 00 	bic	#-1,	106(r12);r3 As==11, 0x006a(r12)
  c2:	42 0e       	.word	0x0e42;	????	
  c4:	04 8b       	sub	r11,	r4	
  c6:	02 42       	mov	r2,	r2	
  c8:	0e 06       	.word	0x060e;	????	
  ca:	8a 03       	.word	0x038a;	????	
  cc:	42 0e       	.word	0x0e42;	????	
  ce:	08 89       	sub	r9,	r8	
  d0:	04 42       	mov	r2,	r4	
  d2:	0e 0a       	.word	0x0a0e;	????	
  d4:	88 05       	.word	0x0588;	????	
  d6:	42 0e       	.word	0x0e42;	????	
  d8:	0c 87       	sub	r7,	r12	
  da:	06 00       	.word	0x0006;	????	
  dc:	08 00       	.word	0x0008;	????	
  de:	00 00       	.word	0x0000;	????	
  e0:	a4 00       	.word	0x00a4;	????	
  e2:	00 00       	.word	0x0000;	????	
  e4:	26 c4       	bic	@r4,	r6	
  e6:	0e 00       	.word	0x000e;	????	
  e8:	0e 00       	.word	0x000e;	????	
  ea:	00 00       	.word	0x0000;	????	
  ec:	a4 00       	.word	0x00a4;	????	
  ee:	00 00       	.word	0x0000;	????	
  f0:	34 c4       	bic	@r4+,	r4	
  f2:	14 00       	.word	0x0014;	????	
  f4:	42 0e       	.word	0x0e42;	????	
  f6:	04 8b       	sub	r11,	r4	
  f8:	02 00       	.word	0x0002;	????	
  fa:	1a 00       	.word	0x001a;	????	
  fc:	00 00       	.word	0x0000;	????	
  fe:	a4 00       	.word	0x00a4;	????	
 100:	00 00       	.word	0x0000;	????	
 102:	48 c4       	bic.b	r4,	r8	
 104:	7a 00       	.word	0x007a;	????	
 106:	42 0e       	.word	0x0e42;	????	
 108:	04 8b       	sub	r11,	r4	
 10a:	02 42       	mov	r2,	r2	
 10c:	0e 06       	.word	0x060e;	????	
 10e:	8a 03       	.word	0x038a;	????	
 110:	42 0e       	.word	0x0e42;	????	
 112:	08 89       	sub	r9,	r8	
 114:	04 44       	mov	r4,	r4	
 116:	0e 28       	jnc	$+30     	;abs 0x134
 118:	12 00       	.word	0x0012;	????	
 11a:	00 00       	.word	0x0000;	????	
 11c:	a4 00       	.word	0x00a4;	????	
 11e:	00 00       	.word	0x0000;	????	
 120:	c2 c4 3a 00 	bic.b	r4,	&0x003a	
 124:	42 0e       	.word	0x0e42;	????	
 126:	04 8b       	sub	r11,	r4	
 128:	02 42       	mov	r2,	r2	
 12a:	0e 06       	.word	0x060e;	????	
 12c:	8a 03       	.word	0x038a;	????	
 12e:	1c 00       	.word	0x001c;	????	
 130:	00 00       	.word	0x0000;	????	
 132:	a4 00       	.word	0x00a4;	????	
 134:	00 00       	.word	0x0000;	????	
 136:	fc c4 2a 01 	bic.b	@r4+,	298(r12);0x012a(r12)
 13a:	42 0e       	.word	0x0e42;	????	
 13c:	04 8b       	sub	r11,	r4	
 13e:	02 42       	mov	r2,	r2	
 140:	0e 06       	.word	0x060e;	????	
 142:	8a 03       	.word	0x038a;	????	
 144:	42 0e       	.word	0x0e42;	????	
 146:	08 89       	sub	r9,	r8	
 148:	04 42       	mov	r2,	r4	
 14a:	0e 0a       	.word	0x0a0e;	????	
 14c:	88 05       	.word	0x0588;	????	
 14e:	0e 00       	.word	0x000e;	????	
 150:	00 00       	.word	0x0000;	????	
 152:	ff ff ff ff 	and.b	@r15+,	-1(r15)	;0xffff(r15)
 156:	01 00       	.word	0x0001;	????	
 158:	01 7e       	subc	r14,	r1	
 15a:	00 0c       	.word	0x0c00;	????	
 15c:	01 02       	.word	0x0201;	????	
 15e:	80 01       	.word	0x0180;	????	
 160:	08 00       	.word	0x0008;	????	
 162:	00 00       	.word	0x0000;	????	
 164:	4e 01       	.word	0x014e;	????	
 166:	00 00       	.word	0x0000;	????	
 168:	26 c6       	bic	@r6,	r6	
 16a:	06 00       	.word	0x0006;	????	
 16c:	08 00       	.word	0x0008;	????	
 16e:	00 00       	.word	0x0000;	????	
 170:	4e 01       	.word	0x014e;	????	
 172:	00 00       	.word	0x0000;	????	
 174:	2c c6       	bic	@r6,	r12	
 176:	06 00       	.word	0x0006;	????	
 178:	0e 00       	.word	0x000e;	????	
 17a:	00 00       	.word	0x0000;	????	
 17c:	ff ff ff ff 	and.b	@r15+,	-1(r15)	;0xffff(r15)
 180:	01 00       	.word	0x0001;	????	
 182:	01 7e       	subc	r14,	r1	
 184:	00 0c       	.word	0x0c00;	????	
 186:	01 02       	.word	0x0201;	????	
 188:	80 01       	.word	0x0180;	????	
 18a:	08 00       	.word	0x0008;	????	
 18c:	00 00       	.word	0x0000;	????	
 18e:	78 01       	.word	0x0178;	????	
 190:	00 00       	.word	0x0000;	????	
 192:	32 c6       	bic	@r6+,	r2	
 194:	2a 01       	.word	0x012a;	????	
 196:	08 00       	.word	0x0008;	????	
 198:	00 00       	.word	0x0000;	????	
 19a:	78 01       	.word	0x0178;	????	
 19c:	00 00       	.word	0x0000;	????	
 19e:	5c c7 10 00 	bic.b	16(r7),	r12	;0x0010(r7)
 1a2:	08 00       	.word	0x0008;	????	
 1a4:	00 00       	.word	0x0000;	????	
 1a6:	78 01       	.word	0x0178;	????	
 1a8:	00 00       	.word	0x0000;	????	
 1aa:	6c c7       	bic.b	@r7,	r12	
 1ac:	06 00       	.word	0x0006;	????	
 1ae:	08 00       	.word	0x0008;	????	
 1b0:	00 00       	.word	0x0000;	????	
 1b2:	78 01       	.word	0x0178;	????	
 1b4:	00 00       	.word	0x0000;	????	
 1b6:	72 c7       	bic.b	@r7+,	r2	
 1b8:	0e 00       	.word	0x000e;	????	
 1ba:	08 00       	.word	0x0008;	????	
 1bc:	00 00       	.word	0x0000;	????	
 1be:	78 01       	.word	0x0178;	????	
 1c0:	00 00       	.word	0x0000;	????	
 1c2:	80 c7 06 00 	bic	r7,	6(r0)	;PC rel. 0x01ca
 1c6:	08 00       	.word	0x0008;	????	
 1c8:	00 00       	.word	0x0000;	????	
 1ca:	78 01       	.word	0x0178;	????	
 1cc:	00 00       	.word	0x0000;	????	
 1ce:	86 c7 0e 00 	bic	r7,	14(r6)	;0x000e(r6)
 1d2:	0e 00       	.word	0x000e;	????	
 1d4:	00 00       	.word	0x0000;	????	
 1d6:	ff ff ff ff 	and.b	@r15+,	-1(r15)	;0xffff(r15)
 1da:	01 00       	.word	0x0001;	????	
 1dc:	01 7e       	subc	r14,	r1	
 1de:	00 0c       	.word	0x0c00;	????	
 1e0:	01 02       	.word	0x0201;	????	
 1e2:	80 01       	.word	0x0180;	????	
 1e4:	1c 00       	.word	0x001c;	????	
 1e6:	00 00       	.word	0x0000;	????	
 1e8:	d2 01       	.word	0x01d2;	????	
 1ea:	00 00       	.word	0x0000;	????	
 1ec:	f0 c7 6a 00 	bic.b	@r7+,	106(r0)	;PC rel. 0x0258
 1f0:	42 0e       	.word	0x0e42;	????	
 1f2:	04 8b       	sub	r11,	r4	
 1f4:	02 42       	mov	r2,	r2	
 1f6:	0e 06       	.word	0x060e;	????	
 1f8:	8a 03       	.word	0x038a;	????	
 1fa:	42 0e       	.word	0x0e42;	????	
 1fc:	08 89       	sub	r9,	r8	
 1fe:	04 42       	mov	r2,	r4	
 200:	0e 0a       	.word	0x0a0e;	????	
 202:	88 05       	.word	0x0588;	????	

Disassembly of section .debug_str:

00000000 <.debug_str>:
   0:	73 68       	.word	0x6873;	????	Illegal as 2-op instr
   2:	65 6c       	addc.b	@r12,	r5	
   4:	6c 5f       	add.b	@r15,	r12	
   6:	63 6d       	.word	0x6d63;	????	Illegal as 2-op instr
   8:	64 73       	subc.b	#2,	r4	;r3 As==10
   a:	00 63       	adc	r0		
   c:	6d 64       	addc.b	@r4,	r13	
   e:	5f 6c 69 6e 	addc.b	28265(r12),r15	;0x6e69(r12)
  12:	65 00       	.word	0x0065;	????	
  14:	73 68       	.word	0x6873;	????	Illegal as 2-op instr
  16:	65 6c       	addc.b	@r12,	r5	
  18:	6c 5f       	add.b	@r15,	r12	
  1a:	61 72       	subc.b	#4,	r1	;r2 As==10
  1c:	67 5f       	add.b	@r15,	r7	
  1e:	70 61       	addc.b	@r1+,	r0	
  20:	72 73       	subc.b	#-1,	r2	;r3 As==11
  22:	65 72       	subc.b	#4,	r5	;r2 As==10
  24:	00 47       	br	r7		
  26:	4e 55       	add.b	r5,	r14	
  28:	20 43       	br	#2		;r3 As==10
  2a:	20 34       	jge	$+66     	;abs 0x6c
  2c:	2e 36       	jge	$-930    	;abs 0xfc8a
  2e:	2e 33       	jn	$-418    	;abs 0xfe8c
  30:	20 32       	jn	$-958    	;abs 0xfc72
  32:	30 31       	jn	$+610    	;abs 0x294
  34:	32 30       	jn	$+102    	;abs 0x9a
  36:	33 30       	jn	$+104    	;abs 0x9e
  38:	31 20       	jnz	$+100    	;abs 0x9c
  3a:	28 6d       	addc	@r13,	r8	
  3c:	73 70       	.word	0x7073;	????	Illegal as 2-op instr
  3e:	67 63       	addc.b	#2,	r7	;r3 As==10
  40:	63 20       	jnz	$+200    	;abs 0x108
  42:	4c 54       	add.b	r4,	r12	
  44:	53 20       	jnz	$+168    	;abs 0xec
  46:	32 30       	jn	$+102    	;abs 0xac
  48:	31 32       	jn	$-924    	;abs 0xfcac
  4a:	30 34       	jge	$+98     	;abs 0xac
  4c:	30 36       	jge	$-926    	;abs 0xfcae
  4e:	20 75       	subc	@r5,	r0	
  50:	6e 70       	subc.b	@r0,	r14	
  52:	61 74       	subc.b	@r4,	r1	
  54:	63 68       	.word	0x6863;	????	Illegal as 2-op instr
  56:	65 64       	addc.b	@r4,	r5	
  58:	29 00       	.word	0x0029;	????	
  5a:	63 6d       	.word	0x6d63;	????	Illegal as 2-op instr
  5c:	64 5f       	add.b	@r15,	r4	
  5e:	6c 69       	addc.b	@r9,	r12	
  60:	6e 65       	addc.b	@r5,	r14	
  62:	5f 6c 65 6e 	addc.b	28261(r12),r15	;0x6e65(r12)
  66:	00 73       	sbc	r0		
  68:	68 65       	addc.b	@r5,	r8	
  6a:	6c 6c       	addc.b	@r12,	r12	
  6c:	5f 73       	subc.b	#1,	r15	;r3 As==01
  6e:	74 72       	subc.b	#8,	r4	;r2 As==11
  70:	5f 63       	addc.b	#1,	r15	;r3 As==01
  72:	6d 70       	subc.b	@r0,	r13	
  74:	00 73       	sbc	r0		
  76:	70 6f       	addc.b	@r15+,	r0	
  78:	73 00       	.word	0x0073;	????	
  7a:	73 68       	.word	0x6873;	????	Illegal as 2-op instr
  7c:	65 6c       	addc.b	@r12,	r5	
  7e:	6c 5f       	add.b	@r15,	r12	
  80:	63 6d       	.word	0x6d63;	????	Illegal as 2-op instr
  82:	64 5f       	add.b	@r15,	r4	
  84:	61 72       	subc.b	#4,	r1	;r2 As==10
  86:	67 73       	subc.b	#2,	r7	;r3 As==10
  88:	00 75       	subc	r5,	r0	
  8a:	6e 73       	subc.b	#2,	r14	;r3 As==10
  8c:	69 67       	addc.b	@r7,	r9	
  8e:	6e 65       	addc.b	@r5,	r14	
  90:	64 20       	jnz	$+202    	;abs 0x15a
  92:	63 68       	.word	0x6863;	????	Illegal as 2-op instr
  94:	61 72       	subc.b	#4,	r1	;r2 As==10
  96:	00 63       	adc	r0		
  98:	6f 75       	subc.b	@r5,	r15	
  9a:	6e 74       	subc.b	@r4,	r14	
  9c:	00 73       	sbc	r0		
  9e:	68 65       	addc.b	@r5,	r8	
  a0:	6c 6c       	addc.b	@r12,	r12	
  a2:	2e 63       	addc	#2,	r14	;r3 As==10
  a4:	00 63       	adc	r0		
  a6:	6d 64       	addc.b	@r4,	r13	
  a8:	5f 6c 65 6e 	addc.b	28261(r12),r15	;0x6e65(r12)
  ac:	00 73       	sbc	r0		
  ae:	74 72       	subc.b	#8,	r4	;r2 As==11
  b0:	32 00       	.word	0x0032;	????	
  b2:	61 72       	subc.b	#4,	r1	;r2 As==10
  b4:	67 63       	addc.b	#2,	r7	;r3 As==10
  b6:	00 73       	sbc	r0		
  b8:	68 65       	addc.b	@r5,	r8	
  ba:	6c 6c       	addc.b	@r12,	r12	
  bc:	5f 73       	subc.b	#1,	r15	;r3 As==01
  be:	74 72       	subc.b	#8,	r4	;r2 As==11
  c0:	5f 6c 65 6e 	addc.b	28261(r12),r15	;0x6e65(r12)
  c4:	00 6c       	addc	r12,	r0	
  c6:	65 6e       	addc.b	@r14,	r5	
  c8:	31 00       	.word	0x0031;	????	
  ca:	6c 65       	addc.b	@r5,	r12	
  cc:	6e 32       	jn	$-802    	;abs 0xfdaa
  ce:	00 73       	sbc	r0		
  d0:	68 65       	addc.b	@r5,	r8	
  d2:	6c 6c       	addc.b	@r12,	r12	
  d4:	5f 63       	addc.b	#1,	r15	;r3 As==01
  d6:	6d 64       	addc.b	@r4,	r13	
  d8:	00 73       	sbc	r0		
  da:	68 65       	addc.b	@r5,	r8	
  dc:	6c 6c       	addc.b	@r12,	r12	
  de:	5f 63       	addc.b	#1,	r15	;r3 As==01
  e0:	6d 64       	addc.b	@r4,	r13	
  e2:	5f 61 72 67 	addc.b	26482(r1),r15	;0x6772(r1)
  e6:	00 64       	addc	r4,	r0	
  e8:	65 73       	subc.b	#2,	r5	;r3 As==10
  ea:	63 00       	.word	0x0063;	????	
  ec:	66 75       	subc.b	@r5,	r6	
  ee:	6e 63       	addc.b	#2,	r14	;r3 As==10
  f0:	00 73       	sbc	r0		
  f2:	68 65       	addc.b	@r5,	r8	
  f4:	6c 6c       	addc.b	@r12,	r12	
  f6:	5f 70 72 6f 	subc.b	28530(r0),r15	;PC rel. 0x706a
  fa:	63 65       	.word	0x6563;	????	Illegal as 2-op instr
  fc:	73 73       	.word	0x7373;	????	Illegal as 2-op instr
  fe:	5f 63       	addc.b	#1,	r15	;r3 As==01
 100:	6d 64       	addc.b	@r4,	r13	
 102:	73 00       	.word	0x0073;	????	
 104:	73 68       	.word	0x6873;	????	Illegal as 2-op instr
 106:	65 6c       	addc.b	@r12,	r5	
 108:	6c 5f       	add.b	@r15,	r12	
 10a:	70 61       	addc.b	@r1+,	r0	
 10c:	72 73       	subc.b	#-1,	r2	;r3 As==11
 10e:	65 5f       	add.b	@r15,	r5	
 110:	69 6e       	addc.b	@r14,	r9	
 112:	74 00       	.word	0x0074;	????	
 114:	73 74       	.word	0x7473;	????	Illegal as 2-op instr
 116:	72 31       	jn	$+742    	;abs 0x3fc
 118:	00 2f       	jc	$-510    	;abs 0xff1a
 11a:	55 73       	subc.b	#1,	r5	;r3 As==01
 11c:	65 72       	subc.b	#4,	r5	;r2 As==10
 11e:	73 2f       	jc	$-280    	;abs 0x6
 120:	6f 6c       	addc.b	@r12,	r15	
 122:	69 76       	subc.b	@r6,	r9	
 124:	65 72       	subc.b	#4,	r5	;r2 As==10
 126:	73 61       	.word	0x6173;	????	Illegal as 2-op instr
 128:	6e 63       	addc.b	#2,	r14	;r3 As==10
 12a:	68 65       	addc.b	@r5,	r8	
 12c:	7a 2f       	jc	$-266    	;abs 0x22
 12e:	44 6f       	addc.b	r15,	r4	
 130:	77 6e       	addc.b	@r14+,	r7	
 132:	6c 6f       	addc.b	@r15,	r12	
 134:	61 64       	addc.b	@r4,	r1	
 136:	73 2f       	jc	$-280    	;abs 0x1e
 138:	6c 69       	addc.b	@r9,	r12	
 13a:	62 65       	addc.b	@r5,	r2	
 13c:	6d 62       	addc.b	#4,	r13	;r2 As==10
 13e:	2d 6d       	addc	@r13,	r13	
 140:	61 73       	subc.b	#2,	r1	;r3 As==10
 142:	74 65       	addc.b	@r5+,	r4	
 144:	72 2f       	jc	$-282    	;abs 0x2a
 146:	6c 69       	addc.b	@r9,	r12	
 148:	62 73       	subc.b	#2,	r2	;r3 As==10
 14a:	68 65       	addc.b	@r5,	r8	
 14c:	6c 6c       	addc.b	@r12,	r12	
 14e:	2f 73       	subc	#2,	r15	;r3 As==10
 150:	72 63       	addc.b	#-1,	r2	;r3 As==11
 152:	00 63       	adc	r0		
 154:	69 6f       	addc.b	@r15,	r9	
 156:	5f 70 72 69 	subc.b	26994(r0),r15	;PC rel. 0x6aca
 15a:	6e 74       	subc.b	@r4,	r14	
 15c:	62 00       	.word	0x0062;	????	
 15e:	2f 55       	add	@r5,	r15	
 160:	73 65       	.word	0x6573;	????	Illegal as 2-op instr
 162:	72 73       	subc.b	#-1,	r2	;r3 As==11
 164:	2f 6f       	addc	@r15,	r15	
 166:	6c 69       	addc.b	@r9,	r12	
 168:	76 65       	addc.b	@r5+,	r6	
 16a:	72 73       	subc.b	#-1,	r2	;r3 As==11
 16c:	61 6e       	addc.b	@r14,	r1	
 16e:	63 68       	.word	0x6863;	????	Illegal as 2-op instr
 170:	65 7a       	subc.b	@r10,	r5	
 172:	2f 44       	mov	@r4,	r15	
 174:	6f 77       	subc.b	@r7,	r15	
 176:	6e 6c       	addc.b	@r12,	r14	
 178:	6f 61       	addc.b	@r1,	r15	
 17a:	64 73       	subc.b	#2,	r4	;r3 As==10
 17c:	2f 6c       	addc	@r12,	r15	
 17e:	69 62       	addc.b	#4,	r9	;r2 As==10
 180:	65 6d       	addc.b	@r13,	r5	
 182:	62 2d       	jc	$+710    	;abs 0x448
 184:	6d 61       	addc.b	@r1,	r13	
 186:	73 74       	.word	0x7473;	????	Illegal as 2-op instr
 188:	65 72       	subc.b	#4,	r5	;r2 As==10
 18a:	2f 6c       	addc	@r12,	r15	
 18c:	69 62       	addc.b	#4,	r9	;r2 As==10
 18e:	63 6f       	.word	0x6f63;	????	Illegal as 2-op instr
 190:	6e 69       	addc.b	@r9,	r14	
 192:	6f 2f       	jc	$-288    	;abs 0x72
 194:	73 72       	.word	0x7273;	????	Illegal as 2-op instr
 196:	63 00       	.word	0x0063;	????	
 198:	63 69       	.word	0x6963;	????	Illegal as 2-op instr
 19a:	6f 5f       	add.b	@r15,	r15	
 19c:	70 72       	subc.b	#8,	r0	;r2 As==11
 19e:	69 6e       	addc.b	@r14,	r9	
 1a0:	74 66       	addc.b	@r6+,	r4	
 1a2:	00 5f       	add	r15,	r0	
 1a4:	5f 62 75 69 	addc.b	&0x6975,r15	
 1a8:	6c 74       	subc.b	@r4,	r12	
 1aa:	69 6e       	addc.b	@r14,	r9	
 1ac:	5f 76 61 5f 	subc.b	24417(r6),r15	;0x5f61(r6)
 1b0:	6c 69       	addc.b	@r9,	r12	
 1b2:	73 74       	.word	0x7473;	????	Illegal as 2-op instr
 1b4:	00 63       	adc	r0		
 1b6:	69 6f       	addc.b	@r15,	r9	
 1b8:	5f 70 72 69 	subc.b	26994(r0),r15	;PC rel. 0x6b2c
 1bc:	6e 74       	subc.b	@r4,	r14	
 1be:	69 00       	.word	0x0069;	????	
 1c0:	5f 78 74 6f 	subc.b	28532(r8),r15	;0x6f74(r8)
 1c4:	61 00       	.word	0x0061;	????	
 1c6:	62 61       	addc.b	@r1,	r2	
 1c8:	64 5f       	add.b	@r15,	r4	
 1ca:	66 6d       	addc.b	@r13,	r6	
 1cc:	74 00       	.word	0x0074;	????	
 1ce:	73 69       	.word	0x6973;	????	Illegal as 2-op instr
 1d0:	7a 65       	addc.b	@r5+,	r10	
 1d2:	00 5f       	add	r15,	r0	
 1d4:	70 75       	subc.b	@r5+,	r0	
 1d6:	74 68       	addc.b	@r8+,	r4	
 1d8:	00 63       	adc	r0		
 1da:	6f 6e       	addc.b	@r14,	r15	
 1dc:	69 6f       	addc.b	@r15,	r9	
 1de:	2e 63       	addc	#2,	r14	;r3 As==10
 1e0:	00 66       	addc	r6,	r0	
 1e2:	6f 72       	subc.b	#4,	r15	;r2 As==10
 1e4:	6d 61       	addc.b	@r1,	r13	
 1e6:	74 00       	.word	0x0074;	????	
 1e8:	63 69       	.word	0x6963;	????	Illegal as 2-op instr
 1ea:	6f 5f       	add.b	@r15,	r15	
 1ec:	70 72       	subc.b	#8,	r0	;r2 As==11
 1ee:	69 6e       	addc.b	@r14,	r9	
 1f0:	74 00       	.word	0x0074;	????	
 1f2:	5f 5f 67 6e 	add.b	28263(r15),r15	;0x6e67(r15)
 1f6:	75 63       	addc.b	#-1,	r5	;r3 As==11
 1f8:	5f 76 61 5f 	subc.b	24417(r6),r15	;0x5f61(r6)
 1fc:	6c 69       	addc.b	@r9,	r12	
 1fe:	73 74       	.word	0x7473;	????	Illegal as 2-op instr
 200:	00 62       	addc	r2,	r0	
 202:	75 66       	addc.b	@r6+,	r5	
 204:	66 65       	addc.b	@r5,	r6	
 206:	72 00       	.word	0x0072;	????	
 208:	63 69       	.word	0x6963;	????	Illegal as 2-op instr
 20a:	6f 5f       	add.b	@r15,	r15	
 20c:	67 65       	addc.b	@r5,	r7	
 20e:	74 63       	addc.b	#-1,	r4	;r3 As==11
 210:	00 63       	adc	r0		
 212:	69 6f       	addc.b	@r15,	r9	
 214:	5f 70 72 69 	subc.b	26994(r0),r15	;PC rel. 0x6b88
 218:	6e 74       	subc.b	@r4,	r14	
 21a:	63 00       	.word	0x0063;	????	
 21c:	63 6f       	.word	0x6f63;	????	Illegal as 2-op instr
 21e:	6e 69       	addc.b	@r9,	r14	
 220:	6f 5f       	add.b	@r15,	r15	
 222:	73 65       	.word	0x6573;	????	Illegal as 2-op instr
 224:	72 69       	addc.b	@r9+,	r2	
 226:	61 6c       	addc.b	@r12,	r1	
 228:	2e 63       	addc	#2,	r14	;r3 As==10
 22a:	00 63       	adc	r0		
 22c:	6c 6b       	addc.b	@r11,	r12	
 22e:	73 70       	.word	0x7073;	????	Illegal as 2-op instr
 230:	65 65       	addc.b	@r5,	r5	
 232:	64 00       	.word	0x0064;	????	
 234:	73 65       	.word	0x6573;	????	Illegal as 2-op instr
 236:	72 69       	addc.b	@r9+,	r2	
 238:	61 6c       	addc.b	@r12,	r1	
 23a:	5f 72 65 63 	subc.b	&0x6365,r15	
 23e:	76 00       	.word	0x0076;	????	
 240:	73 65       	.word	0x6573;	????	Illegal as 2-op instr
 242:	72 69       	addc.b	@r9+,	r2	
 244:	61 6c       	addc.b	@r12,	r1	
 246:	5f 75 73 63 	subc.b	25459(r5),r15	;0x6373(r5)
 24a:	69 5f       	add.b	@r15,	r9	
 24c:	6d 73       	subc.b	#2,	r13	;r3 As==10
 24e:	70 34       	jge	$+226    	;abs 0x330
 250:	33 30       	jn	$+104    	;abs 0x2b8
 252:	2e 63       	addc	#2,	r14	;r3 As==10
 254:	00 5f       	add	r15,	r0	
 256:	5f 55 43 41 	add.b	16707(r5),r15	;0x4143(r5)
 25a:	30 52       	add	#8,	r0	;r2 As==11
 25c:	58 42 55 46 	mov.b	&0x4655,r8	
 260:	00 5f       	add	r15,	r0	
 262:	5f 55 43 41 	add.b	16707(r5),r15	;0x4143(r5)
 266:	30 43       	br	#-1		;r3 As==11
 268:	54 4c 31 00 	mov.b	49(r12),r4	;0x0031(r12)
 26c:	2f 55       	add	@r5,	r15	
 26e:	73 65       	.word	0x6573;	????	Illegal as 2-op instr
 270:	72 73       	subc.b	#-1,	r2	;r3 As==11
 272:	2f 6f       	addc	@r15,	r15	
 274:	6c 69       	addc.b	@r9,	r12	
 276:	76 65       	addc.b	@r5+,	r6	
 278:	72 73       	subc.b	#-1,	r2	;r3 As==11
 27a:	61 6e       	addc.b	@r14,	r1	
 27c:	63 68       	.word	0x6863;	????	Illegal as 2-op instr
 27e:	65 7a       	subc.b	@r10,	r5	
 280:	2f 44       	mov	@r4,	r15	
 282:	6f 77       	subc.b	@r7,	r15	
 284:	6e 6c       	addc.b	@r12,	r14	
 286:	6f 61       	addc.b	@r1,	r15	
 288:	64 73       	subc.b	#2,	r4	;r3 As==10
 28a:	2f 6c       	addc	@r12,	r15	
 28c:	69 62       	addc.b	#4,	r9	;r2 As==10
 28e:	65 6d       	addc.b	@r13,	r5	
 290:	62 2d       	jc	$+710    	;abs 0x556
 292:	6d 61       	addc.b	@r1,	r13	
 294:	73 74       	.word	0x7473;	????	Illegal as 2-op instr
 296:	65 72       	subc.b	#4,	r5	;r2 As==10
 298:	2f 6c       	addc	@r12,	r15	
 29a:	69 62       	addc.b	#4,	r9	;r2 As==10
 29c:	73 65       	.word	0x6573;	????	Illegal as 2-op instr
 29e:	72 69       	addc.b	@r9+,	r2	
 2a0:	61 6c       	addc.b	@r12,	r1	
 2a2:	2f 73       	subc	#2,	r15	;r3 As==10
 2a4:	72 63       	addc.b	#-1,	r2	;r3 As==11
 2a6:	00 73       	sbc	r0		
 2a8:	65 72       	subc.b	#4,	r5	;r2 As==10
 2aa:	69 61       	addc.b	@r1,	r9	
 2ac:	6c 5f       	add.b	@r15,	r12	
 2ae:	73 65       	.word	0x6573;	????	Illegal as 2-op instr
 2b0:	6e 64       	addc.b	@r4,	r14	
 2b2:	00 5f       	add	r15,	r0	
 2b4:	5f 50 31 53 	add.b	21297(r0),r15	;PC rel. 0x55e7
 2b8:	45 4c       	mov.b	r12,	r5	
 2ba:	32 00       	.word	0x0032;	????	
 2bc:	5f 5f 50 31 	add.b	12624(r15),r15	;0x3150(r15)
 2c0:	53 45       	.word	0x4553;	????	Illegal as 2-op instr
 2c2:	4c 00       	.word	0x004c;	????	
 2c4:	64 61       	addc.b	@r1,	r4	
 2c6:	74 61       	addc.b	@r1+,	r4	
 2c8:	00 62       	addc	r2,	r0	
 2ca:	61 75       	subc.b	@r5,	r1	
 2cc:	64 72       	subc.b	#4,	r4	;r2 As==10
 2ce:	61 74       	subc.b	@r4,	r1	
 2d0:	65 00       	.word	0x0065;	????	
 2d2:	73 65       	.word	0x6573;	????	Illegal as 2-op instr
 2d4:	72 69       	addc.b	@r9+,	r2	
 2d6:	61 6c       	addc.b	@r12,	r1	
 2d8:	5f 63       	addc.b	#1,	r15	;r3 As==01
 2da:	6c 6b       	addc.b	@r11,	r12	
 2dc:	5f 69 6e 69 	addc.b	26990(r9),r15	;0x696e(r9)
 2e0:	74 00       	.word	0x0074;	????	
 2e2:	6c 6f       	addc.b	@r15,	r12	
 2e4:	6e 67       	addc.b	@r7,	r14	
 2e6:	20 6c       	addc	@r12,	r0	
 2e8:	6f 6e       	addc.b	@r14,	r15	
 2ea:	67 20       	jnz	$+208    	;abs 0x3ba
 2ec:	75 6e       	addc.b	@r14+,	r5	
 2ee:	73 69       	.word	0x6973;	????	Illegal as 2-op instr
 2f0:	67 6e       	addc.b	@r14,	r7	
 2f2:	65 64       	addc.b	@r4,	r5	
 2f4:	20 69       	addc	@r9,	r0	
 2f6:	6e 74       	subc.b	@r4,	r14	
 2f8:	00 5f       	add	r15,	r0	
 2fa:	5f 55 43 41 	add.b	16707(r5),r15	;0x4143(r5)
 2fe:	30 54       	add	@r4+,	r0	
 300:	58 42 55 46 	mov.b	&0x4655,r8	
 304:	00 73       	sbc	r0		
 306:	65 72       	subc.b	#4,	r5	;r2 As==10
 308:	69 61       	addc.b	@r1,	r9	
 30a:	6c 5f       	add.b	@r15,	r12	
 30c:	72 65       	addc.b	@r5+,	r2	
 30e:	63 76       	.word	0x7663;	????	Illegal as 2-op instr
 310:	5f 62 6c 6f 	addc.b	&0x6f6c,r15	
 314:	63 6b       	.word	0x6b63;	????	Illegal as 2-op instr
 316:	69 6e       	addc.b	@r14,	r9	
 318:	67 00       	.word	0x0067;	????	
 31a:	73 65       	.word	0x6573;	????	Illegal as 2-op instr
 31c:	72 69       	addc.b	@r9+,	r2	
 31e:	61 6c       	addc.b	@r12,	r1	
 320:	5f 69 6e 69 	addc.b	26990(r9),r15	;0x696e(r9)
 324:	74 00       	.word	0x0074;	????	
 326:	6c 6f       	addc.b	@r15,	r12	
 328:	6e 67       	addc.b	@r7,	r14	
 32a:	20 6c       	addc	@r12,	r0	
 32c:	6f 6e       	addc.b	@r14,	r15	
 32e:	67 20       	jnz	$+208    	;abs 0x3fe
 330:	69 6e       	addc.b	@r14,	r9	
 332:	74 00       	.word	0x0074;	????	
 334:	5f 5f 55 43 	add.b	17237(r15),r15	;0x4355(r15)
 338:	41 30       	jn	$+132    	;abs 0x3bc
 33a:	4d 43       	clr.b	r13		
 33c:	54 4c 00 73 	mov.b	29440(r12),r4	;0x7300(r12)
 340:	65 72       	subc.b	#4,	r5	;r2 As==10
 342:	69 61       	addc.b	@r1,	r9	
 344:	6c 5f       	add.b	@r15,	r12	
 346:	73 65       	.word	0x6573;	????	Illegal as 2-op instr
 348:	6e 64       	addc.b	@r4,	r14	
 34a:	5f 62 6c 6f 	addc.b	&0x6f6c,r15	
 34e:	63 6b       	.word	0x6b63;	????	Illegal as 2-op instr
 350:	69 6e       	addc.b	@r14,	r9	
 352:	67 00       	.word	0x0067;	????	
 354:	5f 5f 49 46 	add.b	17993(r15),r15	;0x4649(r15)
 358:	47 32       	jn	$-880    	;abs 0xffe8
 35a:	00 5f       	add	r15,	r0	
 35c:	5f 55 43 41 	add.b	16707(r5),r15	;0x4143(r5)
 360:	30 42       	br	#8		;r2 As==11
 362:	52 30       	jn	$+166    	;abs 0x408
 364:	00 5f       	add	r15,	r0	
 366:	5f 55 43 41 	add.b	16707(r5),r15	;0x4143(r5)
 36a:	30 42       	br	#8		;r2 As==11
 36c:	52 31       	jn	$+678    	;abs 0x612
 36e:	00 73       	sbc	r0		
 370:	69 7a       	subc.b	@r10,	r9	
 372:	65 5f       	add.b	@r15,	r5	
 374:	74 00       	.word	0x0074;	????	
 376:	64 73       	subc.b	#2,	r4	;r3 As==10
 378:	74 30       	jn	$+234    	;abs 0x462
 37a:	00 73       	sbc	r0		
 37c:	68 6f       	addc.b	@r15,	r8	
 37e:	72 74       	subc.b	@r4+,	r2	
 380:	20 75       	subc	@r5,	r0	
 382:	6e 73       	subc.b	#2,	r14	;r3 As==10
 384:	69 67       	addc.b	@r7,	r9	
 386:	6e 65       	addc.b	@r5,	r14	
 388:	64 20       	jnz	$+202    	;abs 0x452
 38a:	69 6e       	addc.b	@r14,	r9	
 38c:	74 00       	.word	0x0074;	????	
 38e:	75 5f       	add.b	@r15+,	r5	
 390:	63 68       	.word	0x6863;	????	Illegal as 2-op instr
 392:	61 72       	subc.b	#4,	r1	;r2 As==10
 394:	00 6d       	addc	r13,	r0	
 396:	65 6d       	addc.b	@r13,	r5	
 398:	73 65       	.word	0x6573;	????	Illegal as 2-op instr
 39a:	74 00       	.word	0x0074;	????	
 39c:	2f 55       	add	@r5,	r15	
 39e:	73 65       	.word	0x6573;	????	Illegal as 2-op instr
 3a0:	72 73       	subc.b	#-1,	r2	;r3 As==11
 3a2:	2f 72       	subc	#4,	r15	;r2 As==10
 3a4:	77 65       	addc.b	@r5+,	r7	
 3a6:	73 73       	.word	0x7373;	????	Illegal as 2-op instr
 3a8:	65 6c       	addc.b	@r12,	r5	
 3aa:	73 2f       	jc	$-280    	;abs 0x292
 3ac:	6d 73       	subc.b	#2,	r13	;r3 As==10
 3ae:	70 67       	addc.b	@r7+,	r0	
 3b0:	63 63       	.word	0x6363;	????	Illegal as 2-op instr
 3b2:	2f 6d       	addc	@r13,	r15	
 3b4:	73 70       	.word	0x7073;	????	Illegal as 2-op instr
 3b6:	34 33       	jn	$-406    	;abs 0x220
 3b8:	30 2d       	jc	$+610    	;abs 0x61a
 3ba:	6c 69       	addc.b	@r9,	r12	
 3bc:	62 63       	addc.b	#2,	r2	;r3 As==10
 3be:	2d 32       	jn	$-932    	;abs 0x1a
 3c0:	30 31       	jn	$+610    	;abs 0x622
 3c2:	32 30       	jn	$+102    	;abs 0x428
 3c4:	32 32       	jn	$-922    	;abs 0x2a
 3c6:	34 2f       	jc	$-406    	;abs 0x230
 3c8:	73 72       	.word	0x7273;	????	Illegal as 2-op instr
 3ca:	63 00       	.word	0x0063;	????	
 3cc:	2e 2f       	jc	$-418    	;abs 0x22a
 3ce:	73 74       	.word	0x7473;	????	Illegal as 2-op instr
 3d0:	72 69       	addc.b	@r9+,	r2	
 3d2:	6e 67       	addc.b	@r7,	r14	
 3d4:	2f 6d       	addc	@r13,	r15	
 3d6:	65 6d       	addc.b	@r13,	r5	
 3d8:	73 65       	.word	0x6573;	????	Illegal as 2-op instr
 3da:	74 2e       	jc	$-790    	;abs 0xc4
 3dc:	63 00       	.word	0x0063;	????	
 3de:	75 5f       	add.b	@r15+,	r5	
 3e0:	69 6e       	addc.b	@r14,	r9	
 3e2:	74 00       	.word	0x0074;	????	
 3e4:	6c 65       	addc.b	@r5,	r12	
 3e6:	6e 67       	addc.b	@r7,	r14	
 3e8:	74 68       	addc.b	@r8+,	r4	
	...

Disassembly of section .debug_loc:

00000000 <.debug_loc>:
   0:	00 00       	.word	0x0000;	????	
   2:	04 00       	.word	0x0004;	????	
   4:	01 00       	.word	0x0001;	????	
   6:	5f 04       	.word	0x045f;	????	
   8:	00 18       	.word	0x1800;	????	
   a:	00 01       	.word	0x0100;	????	
   c:	00 5e       	add	r14,	r0	
   e:	00 00       	.word	0x0000;	????	
  10:	00 00       	.word	0x0000;	????	
  12:	02 00       	.word	0x0002;	????	
  14:	06 00       	.word	0x0006;	????	
  16:	02 00       	.word	0x0002;	????	
  18:	30 9f       	cmp	@r15+,	r0	
  1a:	06 00       	.word	0x0006;	????	
  1c:	08 00       	.word	0x0008;	????	
  1e:	01 00       	.word	0x0001;	????	
  20:	5c 08       	.word	0x085c;	????	
  22:	00 0c       	.word	0x0c00;	????	
  24:	00 01       	.word	0x0100;	????	
  26:	00 5f       	add	r15,	r0	
  28:	0c 00       	.word	0x000c;	????	
  2a:	18 00       	.word	0x0018;	????	
  2c:	01 00       	.word	0x0001;	????	
  2e:	5c 00       	.word	0x005c;	????	
  30:	00 00       	.word	0x0000;	????	
  32:	00 18       	.word	0x1800;	????	
  34:	00 1a       	.word	0x1a00;	????	
  36:	00 02       	.word	0x0200;	????	
  38:	00 71       	subc	r1,	r0	
  3a:	02 1a       	.word	0x1a02;	????	
  3c:	00 1c       	.word	0x1c00;	????	
  3e:	00 02       	.word	0x0200;	????	
  40:	00 71       	subc	r1,	r0	
  42:	04 1c       	.word	0x1c04;	????	
  44:	00 1e       	.word	0x1e00;	????	
  46:	00 02       	.word	0x0200;	????	
  48:	00 71       	subc	r1,	r0	
  4a:	06 1e       	.word	0x1e06;	????	
  4c:	00 5c       	add	r12,	r0	
  4e:	00 02       	.word	0x0200;	????	
  50:	00 71       	subc	r1,	r0	
  52:	08 00       	.word	0x0008;	????	
  54:	00 00       	.word	0x0000;	????	
  56:	00 18       	.word	0x1800;	????	
  58:	00 4c       	br	r12		
  5a:	00 01       	.word	0x0100;	????	
  5c:	00 5f       	add	r15,	r0	
  5e:	4e 00       	.word	0x004e;	????	
  60:	50 00       	.word	0x0050;	????	
  62:	01 00       	.word	0x0001;	????	
  64:	5f 52 00 54 	add.b	&0x5400,r15	
  68:	00 01       	.word	0x0100;	????	
  6a:	00 5f       	add	r15,	r0	
  6c:	00 00       	.word	0x0000;	????	
  6e:	00 00       	.word	0x0000;	????	
  70:	26 00       	.word	0x0026;	????	
  72:	40 00       	.word	0x0040;	????	
  74:	01 00       	.word	0x0001;	????	
  76:	5b 00       	.word	0x005b;	????	
  78:	00 00       	.word	0x0000;	????	
  7a:	00 5c       	add	r12,	r0	
  7c:	00 60       	rlc	r0		
  7e:	00 01       	.word	0x0100;	????	
  80:	00 5f       	add	r15,	r0	
  82:	00 00       	.word	0x0000;	????	
  84:	00 00       	.word	0x0000;	????	
  86:	5c 00       	.word	0x005c;	????	
  88:	60 00       	.word	0x0060;	????	
  8a:	02 00       	.word	0x0002;	????	
  8c:	30 9f       	cmp	@r15+,	r0	
  8e:	60 00       	.word	0x0060;	????	
  90:	70 00       	.word	0x0070;	????	
  92:	01 00       	.word	0x0001;	????	
  94:	5d 82 00 8c 	sub.b	&0x8c00,r13	
  98:	00 01       	.word	0x0100;	????	
  9a:	00 5d       	add	r13,	r0	
  9c:	00 00       	.word	0x0000;	????	
  9e:	00 00       	.word	0x0000;	????	
  a0:	5c 00       	.word	0x005c;	????	
  a2:	60 00       	.word	0x0060;	????	
  a4:	02 00       	.word	0x0002;	????	
  a6:	30 9f       	cmp	@r15+,	r0	
  a8:	00 00       	.word	0x0000;	????	
  aa:	00 00       	.word	0x0000;	????	
  ac:	60 00       	.word	0x0060;	????	
  ae:	82 00       	.word	0x0082;	????	
  b0:	01 00       	.word	0x0001;	????	
  b2:	5c 84 00 88 	sub.b	-30720(r4),r12	;0x8800(r4)
  b6:	00 02       	.word	0x0200;	????	
  b8:	00 7f       	subc	r15,	r0	
  ba:	00 88       	sub	r8,	r0	
  bc:	00 8c       	sub	r12,	r0	
  be:	00 01       	.word	0x0100;	????	
  c0:	00 5c       	add	r12,	r0	
  c2:	00 00       	.word	0x0000;	????	
  c4:	00 00       	.word	0x0000;	????	
  c6:	8c 00       	.word	0x008c;	????	
  c8:	8e 00       	.word	0x008e;	????	
  ca:	02 00       	.word	0x0002;	????	
  cc:	71 02       	.word	0x0271;	????	
  ce:	8e 00       	.word	0x008e;	????	
  d0:	90 00       	.word	0x0090;	????	
  d2:	02 00       	.word	0x0002;	????	
  d4:	71 04       	.word	0x0471;	????	
  d6:	90 00       	.word	0x0090;	????	
  d8:	92 00       	.word	0x0092;	????	
  da:	02 00       	.word	0x0002;	????	
  dc:	71 06       	.word	0x0671;	????	
  de:	92 00       	.word	0x0092;	????	
  e0:	94 00       	.word	0x0094;	????	
  e2:	02 00       	.word	0x0002;	????	
  e4:	71 08       	.word	0x0871;	????	
  e6:	94 00       	.word	0x0094;	????	
  e8:	96 00       	.word	0x0096;	????	
  ea:	02 00       	.word	0x0002;	????	
  ec:	71 0a       	.word	0x0a71;	????	
  ee:	96 00       	.word	0x0096;	????	
  f0:	98 00       	.word	0x0098;	????	
  f2:	02 00       	.word	0x0002;	????	
  f4:	71 0c       	.word	0x0c71;	????	
  f6:	98 00       	.word	0x0098;	????	
  f8:	9a 00       	.word	0x009a;	????	
  fa:	02 00       	.word	0x0002;	????	
  fc:	71 0e       	.word	0x0e71;	????	
  fe:	9a 00       	.word	0x009a;	????	
 100:	32 01       	.word	0x0132;	????	
 102:	02 00       	.word	0x0002;	????	
 104:	71 10       	rrc.b	@r1+		
 106:	00 00       	.word	0x0000;	????	
 108:	00 00       	.word	0x0000;	????	
 10a:	8c 00       	.word	0x008c;	????	
 10c:	1a 01       	.word	0x011a;	????	
 10e:	01 00       	.word	0x0001;	????	
 110:	5f 1c       	.word	0x1c5f;	????	
 112:	01 1e       	.word	0x1e01;	????	
 114:	01 01       	.word	0x0101;	????	
 116:	00 5f       	add	r15,	r0	
 118:	20 01       	.word	0x0120;	????	
 11a:	22 01       	.word	0x0122;	????	
 11c:	01 00       	.word	0x0001;	????	
 11e:	5f 00       	.word	0x005f;	????	
 120:	00 00       	.word	0x0000;	????	
 122:	00 9a       	cmp	r10,	r0	
 124:	00 a6       	dadd	r6,	r0	
 126:	00 02       	.word	0x0200;	????	
 128:	00 30       	jn	$+2      	;abs 0x12a
 12a:	9f a6 00 30 	dadd	12288(r6),257(r15);0x3000(r6), 0x0101(r15)
 12e:	01 01 
 130:	00 5b       	add	r11,	r0	
 132:	00 00       	.word	0x0000;	????	
 134:	00 00       	.word	0x0000;	????	
 136:	da 00       	.word	0x00da;	????	
 138:	0c 01       	.word	0x010c;	????	
 13a:	01 00       	.word	0x0001;	????	
 13c:	59 00       	.word	0x0059;	????	
 13e:	00 00       	.word	0x0000;	????	
 140:	00 9a       	cmp	r10,	r0	
 142:	00 a6       	dadd	r6,	r0	
 144:	00 02       	.word	0x0200;	????	
 146:	00 30       	jn	$+2      	;abs 0x148
 148:	9f a6 00 da 	dadd	-9728(r6),256(r15);0xda00(r6), 0x0100(r15)
 14c:	00 01 
 14e:	00 5c       	add	r12,	r0	
 150:	0e 01       	.word	0x010e;	????	
 152:	32 01       	.word	0x0132;	????	
 154:	01 00       	.word	0x0001;	????	
 156:	5c 00       	.word	0x005c;	????	
 158:	00 00       	.word	0x0000;	????	
 15a:	00 9a       	cmp	r10,	r0	
 15c:	00 a6       	dadd	r6,	r0	
 15e:	00 02       	.word	0x0200;	????	
 160:	00 30       	jn	$+2      	;abs 0x162
 162:	9f a6 00 2e 	dadd	11776(r6),257(r15);0x2e00(r6), 0x0101(r15)
 166:	01 01 
 168:	00 5a       	add	r10,	r0	
 16a:	00 00       	.word	0x0000;	????	
 16c:	00 00       	.word	0x0000;	????	
 16e:	32 01       	.word	0x0132;	????	
 170:	34 01       	.word	0x0134;	????	
 172:	02 00       	.word	0x0002;	????	
 174:	71 02       	.word	0x0271;	????	
 176:	34 01       	.word	0x0134;	????	
 178:	36 01       	.word	0x0136;	????	
 17a:	02 00       	.word	0x0002;	????	
 17c:	71 04       	.word	0x0471;	????	
 17e:	36 01       	.word	0x0136;	????	
 180:	38 01       	.word	0x0138;	????	
 182:	02 00       	.word	0x0002;	????	
 184:	71 06       	.word	0x0671;	????	
 186:	38 01       	.word	0x0138;	????	
 188:	3a 01       	.word	0x013a;	????	
 18a:	02 00       	.word	0x0002;	????	
 18c:	71 08       	.word	0x0871;	????	
 18e:	3a 01       	.word	0x013a;	????	
 190:	3c 01       	.word	0x013c;	????	
 192:	02 00       	.word	0x0002;	????	
 194:	71 0a       	.word	0x0a71;	????	
 196:	3c 01       	.word	0x013c;	????	
 198:	3e 01       	.word	0x013e;	????	
 19a:	02 00       	.word	0x0002;	????	
 19c:	71 0c       	.word	0x0c71;	????	
 19e:	3e 01       	.word	0x013e;	????	
 1a0:	42 01       	.word	0x0142;	????	
 1a2:	02 00       	.word	0x0002;	????	
 1a4:	71 0e       	.word	0x0e71;	????	
 1a6:	42 01       	.word	0x0142;	????	
 1a8:	c2 01       	.word	0x01c2;	????	
 1aa:	03 00       	.word	0x0003;	????	
 1ac:	71 e0 00 00 	xor.b	#0,	r1	;#0x0000
 1b0:	00 00       	.word	0x0000;	????	
 1b2:	00 32       	jn	$-1022   	;abs 0xfdb4
 1b4:	01 4c       	mov	r12,	r1	
 1b6:	01 01       	.word	0x0101;	????	
 1b8:	00 5f       	add	r15,	r0	
 1ba:	4c 01       	.word	0x014c;	????	
 1bc:	c0 01       	.word	0x01c0;	????	
 1be:	01 00       	.word	0x0001;	????	
 1c0:	5b 00       	.word	0x005b;	????	
 1c2:	00 00       	.word	0x0000;	????	
 1c4:	00 32       	jn	$-1022   	;abs 0xfdc6
 1c6:	01 4c       	mov	r12,	r1	
 1c8:	01 01       	.word	0x0101;	????	
 1ca:	00 5e       	add	r14,	r0	
 1cc:	4c 01       	.word	0x014c;	????	
 1ce:	ba 01       	.word	0x01ba;	????	
 1d0:	01 00       	.word	0x0001;	????	
 1d2:	58 00       	.word	0x0058;	????	
 1d4:	00 00       	.word	0x0000;	????	
 1d6:	00 46       	br	r6		
 1d8:	01 4c       	mov	r12,	r1	
 1da:	01 02       	.word	0x0201;	????	
 1dc:	00 30       	jn	$+2      	;abs 0x1de
 1de:	9f 4c 01 be 	mov	-16895(r12),257(r15);0xbe01(r12), 0x0101(r15)
 1e2:	01 01 
 1e4:	00 5a       	add	r10,	r0	
 1e6:	00 00       	.word	0x0000;	????	
 1e8:	00 00       	.word	0x0000;	????	
 1ea:	7c 01       	.word	0x017c;	????	
 1ec:	94 01       	.word	0x0194;	????	
 1ee:	01 00       	.word	0x0001;	????	
 1f0:	5f a6 01 aa 	dadd.b	-22015(r6),r15	;0xaa01(r6)
 1f4:	01 01       	.word	0x0101;	????	
 1f6:	00 5f       	add	r15,	r0	
 1f8:	ac 01       	.word	0x01ac;	????	
 1fa:	b0 01       	.word	0x01b0;	????	
 1fc:	01 00       	.word	0x0001;	????	
 1fe:	5f 00       	.word	0x005f;	????	
 200:	00 00       	.word	0x0000;	????	
 202:	00 5e       	add	r14,	r0	
 204:	01 66       	addc	r6,	r1	
 206:	01 01       	.word	0x0101;	????	
 208:	00 5f       	add	r15,	r0	
 20a:	66 01       	.word	0x0166;	????	
 20c:	69 01       	.word	0x0169;	????	
 20e:	01 00       	.word	0x0001;	????	
 210:	5d 00       	.word	0x005d;	????	
 212:	00 00       	.word	0x0000;	????	
 214:	00 54       	add	r4,	r0	
 216:	01 5a       	add	r10,	r1	
 218:	01 01       	.word	0x0101;	????	
 21a:	00 5f       	add	r15,	r0	
 21c:	5a 01       	.word	0x015a;	????	
 21e:	9a 01       	.word	0x019a;	????	
 220:	01 00       	.word	0x0001;	????	
 222:	57 a6 01 b0 	dadd.b	-20479(r6),r7	;0xb001(r6)
 226:	01 01       	.word	0x0101;	????	
 228:	00 57       	add	r7,	r0	
 22a:	00 00       	.word	0x0000;	????	
 22c:	00 00       	.word	0x0000;	????	
 22e:	00 00       	.word	0x0000;	????	
 230:	02 00       	.word	0x0002;	????	
 232:	02 00       	.word	0x0002;	????	
 234:	71 02       	.word	0x0271;	????	
 236:	02 00       	.word	0x0002;	????	
 238:	04 00       	.word	0x0004;	????	
 23a:	02 00       	.word	0x0002;	????	
 23c:	71 04       	.word	0x0471;	????	
 23e:	04 00       	.word	0x0004;	????	
 240:	06 00       	.word	0x0006;	????	
 242:	02 00       	.word	0x0002;	????	
 244:	71 06       	.word	0x0671;	????	
 246:	06 00       	.word	0x0006;	????	
 248:	08 00       	.word	0x0008;	????	
 24a:	02 00       	.word	0x0002;	????	
 24c:	71 08       	.word	0x0871;	????	
 24e:	08 00       	.word	0x0008;	????	
 250:	0a 00       	.word	0x000a;	????	
 252:	02 00       	.word	0x0002;	????	
 254:	71 0a       	.word	0x0a71;	????	
 256:	0a 00       	.word	0x000a;	????	
 258:	6a 00       	.word	0x006a;	????	
 25a:	02 00       	.word	0x0002;	????	
 25c:	71 0c       	.word	0x0c71;	????	
 25e:	00 00       	.word	0x0000;	????	
 260:	00 00       	.word	0x0000;	????	
 262:	00 00       	.word	0x0000;	????	
 264:	14 00       	.word	0x0014;	????	
 266:	06 00       	.word	0x0006;	????	
 268:	5e 93       	cmp.b	#1,	r14	;r3 As==01
 26a:	02 5f       	add	r15,	r2	
 26c:	93 02       	.word	0x0293;	????	
 26e:	14 00       	.word	0x0014;	????	
 270:	66 00       	.word	0x0066;	????	
 272:	06 00       	.word	0x0006;	????	
 274:	5a 93       	cmp.b	#1,	r10	;r3 As==01
 276:	02 5b       	add	r11,	r2	
 278:	93 02       	.word	0x0293;	????	
 27a:	00 00       	.word	0x0000;	????	
 27c:	00 00       	.word	0x0000;	????	
 27e:	00 00       	.word	0x0000;	????	
 280:	14 00       	.word	0x0014;	????	
 282:	01 00       	.word	0x0001;	????	
 284:	5d 14       	.word	0x145d;	????	
 286:	00 60       	rlc	r0		
 288:	00 01       	.word	0x0100;	????	
 28a:	00 57       	add	r7,	r0	
 28c:	00 00       	.word	0x0000;	????	
 28e:	00 00       	.word	0x0000;	????	
 290:	2c 00       	.word	0x002c;	????	
 292:	32 00       	.word	0x0032;	????	
 294:	03 00       	.word	0x0003;	????	
 296:	08 30       	jn	$+18     	;abs 0x2a8
 298:	9f 32       	jn	$-704    	;abs 0xffd8
 29a:	00 47       	br	r7		
 29c:	00 01       	.word	0x0100;	????	
 29e:	00 5f       	add	r15,	r0	
 2a0:	00 00       	.word	0x0000;	????	
 2a2:	00 00       	.word	0x0000;	????	
 2a4:	2c 00       	.word	0x002c;	????	
 2a6:	47 00       	.word	0x0047;	????	
 2a8:	02 00       	.word	0x0002;	????	
 2aa:	77 7c       	subc.b	@r12+,	r7	
 2ac:	47 00       	.word	0x0047;	????	
 2ae:	4c 00       	.word	0x004c;	????	
 2b0:	06 00       	.word	0x0006;	????	
 2b2:	58 93       	cmp.b	#1,	r8	;r3 As==01
 2b4:	02 59       	add	r9,	r2	
 2b6:	93 02       	.word	0x0293;	????	
 2b8:	00 00       	.word	0x0000;	????	
 2ba:	00 00       	.word	0x0000;	????	
 2bc:	6a 00       	.word	0x006a;	????	
 2be:	6e 00       	.word	0x006e;	????	
 2c0:	01 00       	.word	0x0001;	????	
 2c2:	5f 00       	.word	0x005f;	????	
 2c4:	00 00       	.word	0x0000;	????	
 2c6:	00 78       	subc	r8,	r0	
 2c8:	00 7a       	subc	r10,	r0	
 2ca:	00 02       	.word	0x0200;	????	
 2cc:	00 71       	subc	r1,	r0	
 2ce:	02 7a       	subc	r10,	r2	
 2d0:	00 8c       	sub	r12,	r0	
 2d2:	00 02       	.word	0x0200;	????	
 2d4:	00 71       	subc	r1,	r0	
 2d6:	04 00       	.word	0x0004;	????	
 2d8:	00 00       	.word	0x0000;	????	
 2da:	00 78       	subc	r8,	r0	
 2dc:	00 7e       	subc	r14,	r0	
 2de:	00 01       	.word	0x0100;	????	
 2e0:	00 5f       	add	r15,	r0	
 2e2:	00 00       	.word	0x0000;	????	
 2e4:	00 00       	.word	0x0000;	????	
 2e6:	7c 00       	.word	0x007c;	????	
 2e8:	7e 00       	.word	0x007e;	????	
 2ea:	02 00       	.word	0x0002;	????	
 2ec:	30 9f       	cmp	@r15+,	r0	
 2ee:	00 00       	.word	0x0000;	????	
 2f0:	00 00       	.word	0x0000;	????	
 2f2:	8c 00       	.word	0x008c;	????	
 2f4:	8e 00       	.word	0x008e;	????	
 2f6:	02 00       	.word	0x0002;	????	
 2f8:	71 02       	.word	0x0271;	????	
 2fa:	8e 00       	.word	0x008e;	????	
 2fc:	90 00       	.word	0x0090;	????	
 2fe:	02 00       	.word	0x0002;	????	
 300:	71 04       	.word	0x0471;	????	
 302:	90 00       	.word	0x0090;	????	
 304:	92 00       	.word	0x0092;	????	
 306:	02 00       	.word	0x0002;	????	
 308:	71 06       	.word	0x0671;	????	
 30a:	92 00       	.word	0x0092;	????	
 30c:	96 00       	.word	0x0096;	????	
 30e:	02 00       	.word	0x0002;	????	
 310:	71 08       	.word	0x0871;	????	
 312:	96 00       	.word	0x0096;	????	
 314:	06 01       	.word	0x0106;	????	
 316:	02 00       	.word	0x0002;	????	
 318:	71 28       	jnc	$+228    	;abs 0x3fc
 31a:	00 00       	.word	0x0000;	????	
 31c:	00 00       	.word	0x0000;	????	
 31e:	8c 00       	.word	0x008c;	????	
 320:	9c 00       	.word	0x009c;	????	
 322:	01 00       	.word	0x0001;	????	
 324:	5f 9c 00 d0 	cmp.b	-12288(r12),r15	;0xd000(r12)
 328:	00 01       	.word	0x0100;	????	
 32a:	00 5b       	add	r11,	r0	
 32c:	d0 00       	.word	0x00d0;	????	
 32e:	d8 00       	.word	0x00d8;	????	
 330:	01 00       	.word	0x0001;	????	
 332:	5f d8 00 e0 	bis.b	-8192(r8),r15	;0xe000(r8)
 336:	00 01       	.word	0x0100;	????	
 338:	00 5b       	add	r11,	r0	
 33a:	e0 00       	.word	0x00e0;	????	
 33c:	e2 00       	.word	0x00e2;	????	
 33e:	01 00       	.word	0x0001;	????	
 340:	5f 00       	.word	0x005f;	????	
 342:	00 00       	.word	0x0000;	????	
 344:	00 d2       	bis	r2,	r0	
 346:	00 d8       	bis	r8,	r0	
 348:	00 01       	.word	0x0100;	????	
 34a:	00 5a       	add	r10,	r0	
 34c:	00 00       	.word	0x0000;	????	
 34e:	00 00       	.word	0x0000;	????	
 350:	dc 00       	.word	0x00dc;	????	
 352:	e2 00       	.word	0x00e2;	????	
 354:	03 00       	.word	0x0003;	????	
 356:	7a 01       	.word	0x017a;	????	
 358:	9f 00       	.word	0x009f;	????	
 35a:	00 00       	.word	0x0000;	????	
 35c:	00 06       	.word	0x0600;	????	
 35e:	01 08       	.word	0x0801;	????	
 360:	01 02       	.word	0x0201;	????	
 362:	00 71       	subc	r1,	r0	
 364:	02 08       	.word	0x0802;	????	
 366:	01 0a       	.word	0x0a01;	????	
 368:	01 02       	.word	0x0201;	????	
 36a:	00 71       	subc	r1,	r0	
 36c:	04 0a       	.word	0x0a04;	????	
 36e:	01 40       	mov	r0,	r1	
 370:	01 02       	.word	0x0201;	????	
 372:	00 71       	subc	r1,	r0	
 374:	06 00       	.word	0x0006;	????	
 376:	00 00       	.word	0x0000;	????	
 378:	00 06       	.word	0x0600;	????	
 37a:	01 10       	rrc	r1		
 37c:	01 01       	.word	0x0101;	????	
 37e:	00 5f       	add	r15,	r0	
 380:	10 01       	.word	0x0110;	????	
 382:	3c 01       	.word	0x013c;	????	
 384:	01 00       	.word	0x0001;	????	
 386:	5a 00       	.word	0x005a;	????	
 388:	00 00       	.word	0x0000;	????	
 38a:	00 06       	.word	0x0600;	????	
 38c:	01 10       	rrc	r1		
 38e:	01 01       	.word	0x0101;	????	
 390:	00 5e       	add	r14,	r0	
 392:	00 00       	.word	0x0000;	????	
 394:	00 00       	.word	0x0000;	????	
 396:	10 01       	.word	0x0110;	????	
 398:	34 01       	.word	0x0134;	????	
 39a:	01 00       	.word	0x0001;	????	
 39c:	5b 36       	jge	$-840    	;abs 0x54
 39e:	01 3e       	jmp	$-1020   	;abs 0xffa2
 3a0:	01 01       	.word	0x0101;	????	
 3a2:	00 5b       	add	r11,	r0	
 3a4:	00 00       	.word	0x0000;	????	
 3a6:	00 00       	.word	0x0000;	????	
 3a8:	40 01       	.word	0x0140;	????	
 3aa:	42 01       	.word	0x0142;	????	
 3ac:	02 00       	.word	0x0002;	????	
 3ae:	71 02       	.word	0x0271;	????	
 3b0:	42 01       	.word	0x0142;	????	
 3b2:	44 01       	.word	0x0144;	????	
 3b4:	02 00       	.word	0x0002;	????	
 3b6:	71 04       	.word	0x0471;	????	
 3b8:	44 01       	.word	0x0144;	????	
 3ba:	46 01       	.word	0x0146;	????	
 3bc:	02 00       	.word	0x0002;	????	
 3be:	71 06       	.word	0x0671;	????	
 3c0:	46 01       	.word	0x0146;	????	
 3c2:	48 01       	.word	0x0148;	????	
 3c4:	02 00       	.word	0x0002;	????	
 3c6:	71 08       	.word	0x0871;	????	
 3c8:	48 01       	.word	0x0148;	????	
 3ca:	6a 02       	.word	0x026a;	????	
 3cc:	02 00       	.word	0x0002;	????	
 3ce:	71 0a       	.word	0x0a71;	????	
 3d0:	00 00       	.word	0x0000;	????	
 3d2:	00 00       	.word	0x0000;	????	
 3d4:	40 01       	.word	0x0140;	????	
 3d6:	52 01       	.word	0x0152;	????	
 3d8:	02 00       	.word	0x0002;	????	
 3da:	91 00       	.word	0x0091;	????	
 3dc:	52 01       	.word	0x0152;	????	
 3de:	5e 01       	.word	0x015e;	????	
 3e0:	03 00       	.word	0x0003;	????	
 3e2:	7a 01       	.word	0x017a;	????	
 3e4:	9f 5e 01 54 	add	21505(r14),258(r15);0x5401(r14), 0x0102(r15)
 3e8:	02 01 
 3ea:	00 5a       	add	r10,	r0	
 3ec:	54 02       	.word	0x0254;	????	
 3ee:	56 02       	.word	0x0256;	????	
 3f0:	03 00       	.word	0x0003;	????	
 3f2:	7a 01       	.word	0x017a;	????	
 3f4:	9f 56 02 5c 	add	23554(r6),258(r15);0x5c02(r6), 0x0102(r15)
 3f8:	02 01 
 3fa:	00 5a       	add	r10,	r0	
 3fc:	5c 02       	.word	0x025c;	????	
 3fe:	60 02       	.word	0x0260;	????	
 400:	03 00       	.word	0x0003;	????	
 402:	7a 01       	.word	0x017a;	????	
 404:	9f 00       	.word	0x009f;	????	
 406:	00 00       	.word	0x0000;	????	
 408:	00 52       	add	r2,	r0	
 40a:	01 5c       	add	r12,	r1	
 40c:	01 01       	.word	0x0101;	????	
 40e:	00 5f       	add	r15,	r0	
 410:	5c 01       	.word	0x015c;	????	
 412:	5e 01       	.word	0x015e;	????	
 414:	02 00       	.word	0x0002;	????	
 416:	7a 01       	.word	0x017a;	????	
 418:	5e 01       	.word	0x015e;	????	
 41a:	a5 01       	.word	0x01a5;	????	
 41c:	02 00       	.word	0x0002;	????	
 41e:	7a 7f       	subc.b	@r15+,	r10	
 420:	a8 01       	.word	0x01a8;	????	
 422:	ae 01       	.word	0x01ae;	????	
 424:	01 00       	.word	0x0001;	????	
 426:	5f ae 01 b1 	dadd.b	-20223(r14),r15	;0xb101(r14)
 42a:	01 02       	.word	0x0201;	????	
 42c:	00 7a       	subc	r10,	r0	
 42e:	7f b6       	bit.b	@r6+,	r15	
 430:	01 ce       	bic	r14,	r1	
 432:	01 01       	.word	0x0101;	????	
 434:	00 5f       	add	r15,	r0	
 436:	ce 01       	.word	0x01ce;	????	
 438:	d1 01       	.word	0x01d1;	????	
 43a:	02 00       	.word	0x0002;	????	
 43c:	7a 7f       	subc.b	@r15+,	r10	
 43e:	e0 01       	.word	0x01e0;	????	
 440:	08 02       	.word	0x0208;	????	
 442:	01 00       	.word	0x0001;	????	
 444:	5f 08       	.word	0x085f;	????	
 446:	02 0b       	.word	0x0b02;	????	
 448:	02 02       	.word	0x0202;	????	
 44a:	00 7a       	subc	r10,	r0	
 44c:	7f 1c       	.word	0x1c7f;	????	
 44e:	02 24       	jz	$+6      	;abs 0x454
 450:	02 01       	.word	0x0102;	????	
 452:	00 5f       	add	r15,	r0	
 454:	24 02       	.word	0x0224;	????	
 456:	33 02       	.word	0x0233;	????	
 458:	02 00       	.word	0x0002;	????	
 45a:	7a 7f       	subc.b	@r15+,	r10	
 45c:	54 02       	.word	0x0254;	????	
 45e:	59 02       	.word	0x0259;	????	
 460:	01 00       	.word	0x0001;	????	
 462:	5f 5c 02 60 	add.b	24578(r12),r15	;0x6002(r12)
 466:	02 02       	.word	0x0202;	????	
 468:	00 7a       	subc	r10,	r0	
 46a:	00 60       	rlc	r0		
 46c:	02 6a       	addc	r10,	r2	
 46e:	02 01       	.word	0x0102;	????	
 470:	00 5f       	add	r15,	r0	
 472:	00 00       	.word	0x0000;	????	
 474:	00 00       	.word	0x0000;	????	
 476:	bc 01       	.word	0x01bc;	????	
 478:	ca 01       	.word	0x01ca;	????	
 47a:	02 00       	.word	0x0002;	????	
 47c:	79 7e       	subc.b	@r14+,	r9	
 47e:	ca 01       	.word	0x01ca;	????	
 480:	e0 01       	.word	0x01e0;	????	
 482:	01 00       	.word	0x0001;	????	
 484:	5b 22       	jnz	$-840    	;abs 0x13c
 486:	02 33       	jn	$-506    	;abs 0x28c
 488:	02 02       	.word	0x0202;	????	
 48a:	00 79       	subc	r9,	r0	
 48c:	7e 33       	jn	$-258    	;abs 0x38a
 48e:	02 54       	add	r4,	r2	
 490:	02 01       	.word	0x0102;	????	
 492:	00 5b       	add	r11,	r0	
 494:	00 00       	.word	0x0000;	????	
 496:	00 00       	.word	0x0000;	????	
 498:	ea 01       	.word	0x01ea;	????	
 49a:	04 02       	.word	0x0204;	????	
 49c:	08 00       	.word	0x0008;	????	
 49e:	78 7c       	subc.b	@r12+,	r8	
 4a0:	93 02       	.word	0x0293;	????	
 4a2:	78 7e       	subc.b	@r14+,	r8	
 4a4:	93 02       	.word	0x0293;	????	
 4a6:	04 02       	.word	0x0204;	????	
 4a8:	0b 02       	.word	0x020b;	????	
 4aa:	07 00       	.word	0x0007;	????	
 4ac:	5c 93       	cmp.b	#1,	r12	;r3 As==01
 4ae:	02 78       	subc	r8,	r2	
 4b0:	7e 93       	cmp.b	#-1,	r14	;r3 As==11
 4b2:	02 0b       	.word	0x0b02;	????	
 4b4:	02 1a       	.word	0x1a02;	????	
 4b6:	02 06       	.word	0x0602;	????	
 4b8:	00 59       	add	r9,	r0	
 4ba:	93 02       	.word	0x0293;	????	
 4bc:	5b 93       	cmp.b	#1,	r11	;r3 As==01
 4be:	02 00       	.word	0x0002;	????	
 4c0:	00 00       	.word	0x0000;	????	
 4c2:	00 50       	rla	r0		
 4c4:	01 a0       	dadd	r0,	r1	
 4c6:	01 01       	.word	0x0101;	????	
 4c8:	00 5b       	add	r11,	r0	
 4ca:	a0 01       	.word	0x01a0;	????	
 4cc:	a8 01       	.word	0x01a8;	????	
 4ce:	01 00       	.word	0x0001;	????	
 4d0:	59 a8 01 ac 	dadd.b	-21503(r8),r9	;0xac01(r8)
 4d4:	01 01       	.word	0x0101;	????	
 4d6:	00 5b       	add	r11,	r0	
 4d8:	ac 01       	.word	0x01ac;	????	
 4da:	b6 01       	.word	0x01b6;	????	
 4dc:	01 00       	.word	0x0001;	????	
 4de:	59 b6 01 ba 	bit.b	-17919(r6),r9	;0xba01(r6)
 4e2:	01 01       	.word	0x0101;	????	
 4e4:	00 5b       	add	r11,	r0	
 4e6:	ba 01       	.word	0x01ba;	????	
 4e8:	e0 01       	.word	0x01e0;	????	
 4ea:	01 00       	.word	0x0001;	????	
 4ec:	59 e0 01 e4 	xor.b	-7167(r0),r9	;PC rel. 0xe8ef
 4f0:	01 01       	.word	0x0101;	????	
 4f2:	00 5b       	add	r11,	r0	
 4f4:	e4 01       	.word	0x01e4;	????	
 4f6:	1c 02       	.word	0x021c;	????	
 4f8:	01 00       	.word	0x0001;	????	
 4fa:	58 1c       	.word	0x1c58;	????	
 4fc:	02 20       	jnz	$+6      	;abs 0x502
 4fe:	02 01       	.word	0x0102;	????	
 500:	00 5b       	add	r11,	r0	
 502:	20 02       	.word	0x0220;	????	
 504:	54 02       	.word	0x0254;	????	
 506:	01 00       	.word	0x0001;	????	
 508:	59 54 02 68 	add.b	26626(r4),r9	;0x6802(r4)
 50c:	02 01       	.word	0x0102;	????	
 50e:	00 5b       	add	r11,	r0	
 510:	00 00       	.word	0x0000;	????	
 512:	00 00       	.word	0x0000;	????	
 514:	00 00       	.word	0x0000;	????	
 516:	03 00       	.word	0x0003;	????	
 518:	01 00       	.word	0x0001;	????	
 51a:	5f 00       	.word	0x005f;	????	
 51c:	00 00       	.word	0x0000;	????	
 51e:	00 2a       	jnc	$-1022   	;abs 0x120
 520:	01 37       	jge	$-508    	;abs 0x324
 522:	01 01       	.word	0x0101;	????	
 524:	00 5f       	add	r15,	r0	
 526:	00 00       	.word	0x0000;	????	
 528:	00 00       	.word	0x0000;	????	
 52a:	00 00       	.word	0x0000;	????	
 52c:	02 00       	.word	0x0002;	????	
 52e:	02 00       	.word	0x0002;	????	
 530:	71 02       	.word	0x0271;	????	
 532:	02 00       	.word	0x0002;	????	
 534:	04 00       	.word	0x0004;	????	
 536:	02 00       	.word	0x0002;	????	
 538:	71 04       	.word	0x0471;	????	
 53a:	04 00       	.word	0x0004;	????	
 53c:	06 00       	.word	0x0006;	????	
 53e:	02 00       	.word	0x0002;	????	
 540:	71 06       	.word	0x0671;	????	
 542:	06 00       	.word	0x0006;	????	
 544:	08 00       	.word	0x0008;	????	
 546:	02 00       	.word	0x0002;	????	
 548:	71 08       	.word	0x0871;	????	
 54a:	08 00       	.word	0x0008;	????	
 54c:	6a 00       	.word	0x006a;	????	
 54e:	02 00       	.word	0x0002;	????	
 550:	71 0a       	.word	0x0a71;	????	
 552:	00 00       	.word	0x0000;	????	
 554:	00 00       	.word	0x0000;	????	
 556:	00 00       	.word	0x0000;	????	
 558:	22 00       	.word	0x0022;	????	
 55a:	01 00       	.word	0x0001;	????	
 55c:	5e 00       	.word	0x005e;	????	
 55e:	00 00       	.word	0x0000;	????	
 560:	00 00       	.word	0x0000;	????	
 562:	00 5a       	add	r10,	r0	
 564:	00 01       	.word	0x0100;	????	
 566:	00 5d       	add	r13,	r0	
 568:	00 00       	.word	0x0000;	????	
 56a:	00 00       	.word	0x0000;	????	
 56c:	2e 00       	.word	0x002e;	????	
 56e:	32 00       	.word	0x0032;	????	
 570:	05 00       	.word	0x0005;	????	
 572:	7f 00       	.word	0x007f;	????	
 574:	31 1a       	.word	0x1a31;	????	
 576:	9f 32       	jn	$-704    	;abs 0x2b6
 578:	00 3c       	jmp	$+2      	;abs 0x57a
 57a:	00 02       	.word	0x0200;	????	
 57c:	00 31       	jn	$+514    	;abs 0x77e
 57e:	9f 3c       	jmp	$+320    	;abs 0x6be
 580:	00 3e       	jmp	$-1022   	;abs 0x182
 582:	00 02       	.word	0x0200;	????	
 584:	00 30       	jn	$+2      	;abs 0x586
 586:	9f 3e       	jmp	$-704    	;abs 0x2c6
 588:	00 40       	br	r0		
 58a:	00 05       	.word	0x0500;	????	
 58c:	00 7f       	subc	r15,	r0	
 58e:	00 31       	jn	$+514    	;abs 0x790
 590:	1a 9f 46 00 	cmp	70(r15),r10	;0x0046(r15)
 594:	4a 00       	.word	0x004a;	????	
 596:	01 00       	.word	0x0001;	????	
 598:	5c 4a 00 58 	mov.b	22528(r10),r12	;0x5800(r10)
 59c:	00 01       	.word	0x0100;	????	
 59e:	00 58       	add	r8,	r0	
 5a0:	58 00       	.word	0x0058;	????	
 5a2:	5a 00       	.word	0x005a;	????	
 5a4:	05 00       	.word	0x0005;	????	
 5a6:	7d 00       	.word	0x007d;	????	
 5a8:	31 1a       	.word	0x1a31;	????	
 5aa:	9f 5a 00 5c 	add	23552(r10),256(r15);0x5c00(r10), 0x0100(r15)
 5ae:	00 01 
 5b0:	00 5d       	add	r13,	r0	
 5b2:	5c 00       	.word	0x005c;	????	
 5b4:	60 00       	.word	0x0060;	????	
 5b6:	02 00       	.word	0x0002;	????	
 5b8:	31 9f       	cmp	@r15+,	r1	
 5ba:	00 00       	.word	0x0000;	????	
 5bc:	00 00       	.word	0x0000;	????	
 5be:	24 00       	.word	0x0024;	????	
 5c0:	60 00       	.word	0x0060;	????	
 5c2:	01 00       	.word	0x0001;	????	
 5c4:	5b 00       	.word	0x005b;	????	
 5c6:	00 00       	.word	0x0000;	????	
 5c8:	00 08       	.word	0x0800;	????	
 5ca:	00 12       	push	r0		
 5cc:	00 01       	.word	0x0100;	????	
 5ce:	00 5f       	add	r15,	r0	
 5d0:	12 00       	.word	0x0012;	????	
 5d2:	20 00       	.word	0x0020;	????	
 5d4:	01 00       	.word	0x0001;	????	
 5d6:	5c 20       	jnz	$+186    	;abs 0x690
 5d8:	00 3c       	jmp	$+2      	;abs 0x5da
 5da:	00 01       	.word	0x0100;	????	
 5dc:	00 5f       	add	r15,	r0	
 5de:	3c 00       	.word	0x003c;	????	
 5e0:	3e 00       	.word	0x003e;	????	
 5e2:	01 00       	.word	0x0001;	????	
 5e4:	59 3e       	jmp	$-844    	;abs 0x298
 5e6:	00 40       	br	r0		
 5e8:	00 01       	.word	0x0100;	????	
 5ea:	00 5f       	add	r15,	r0	
 5ec:	40 00       	.word	0x0040;	????	
 5ee:	4a 00       	.word	0x004a;	????	
 5f0:	01 00       	.word	0x0001;	????	
 5f2:	59 4a 00 5c 	mov.b	23552(r10),r9	;0x5c00(r10)
 5f6:	00 01       	.word	0x0100;	????	
 5f8:	00 5a       	add	r10,	r0	
 5fa:	5c 00       	.word	0x005c;	????	
 5fc:	60 00       	.word	0x0060;	????	
 5fe:	01 00       	.word	0x0001;	????	
 600:	5c 00       	.word	0x005c;	????	
 602:	00 00       	.word	0x0000;	????	
	...
