
shell.elf:     file format elf32-msp430


Disassembly of section .text:

0000c000 <__watchdog_support>:
    c000:	55 42 20 01 	mov.b	&0x0120,r5	
    c004:	35 d0 08 5a 	bis	#23048,	r5	;#0x5a08
    c008:	82 45 8e 02 	mov	r5,	&0x028e	

0000c00c <__init_stack>:
    c00c:	31 40 00 04 	mov	#1024,	r1	;#0x0400

0000c010 <__do_copy_data>:
    c010:	3f 40 26 00 	mov	#38,	r15	;#0x0026
    c014:	0f 93       	tst	r15		
    c016:	08 24       	jz	$+18     	;abs 0xc028
    c018:	92 42 8e 02 	mov	&0x028e,&0x0120	
    c01c:	20 01 
    c01e:	2f 83       	decd	r15		
    c020:	9f 4f 94 cf 	mov	-12396(r15),512(r15);0xcf94(r15), 0x0200(r15)
    c024:	00 02 
    c026:	f8 23       	jnz	$-14     	;abs 0xc018

0000c028 <__do_clear_bss>:
    c028:	3f 40 68 00 	mov	#104,	r15	;#0x0068
    c02c:	0f 93       	tst	r15		
    c02e:	07 24       	jz	$+16     	;abs 0xc03e
    c030:	92 42 8e 02 	mov	&0x028e,&0x0120	
    c034:	20 01 
    c036:	1f 83       	dec	r15		
    c038:	cf 43 26 02 	mov.b	#0,	550(r15);r3 As==00, 0x0226(r15)
    c03c:	f9 23       	jnz	$-12     	;abs 0xc030

0000c03e <main>:
    c03e:	b2 40 80 5a 	mov	#23168,	&0x0120	;#0x5a80
    c042:	20 01 
    c044:	d2 42 ff 10 	mov.b	&0x10ff,&0x0057	
    c048:	57 00 
    c04a:	d2 42 fe 10 	mov.b	&0x10fe,&0x0056	
    c04e:	56 00 
    c050:	f2 40 f7 ff 	mov.b	#-9,	&0x0022	;#0xfff7
    c054:	22 00 
    c056:	f2 42 21 00 	mov.b	#8,	&0x0021	;r2 As==11
    c05a:	f2 42 27 00 	mov.b	#8,	&0x0027	;r2 As==11
    c05e:	f2 42 25 00 	mov.b	#8,	&0x0025	;r2 As==11
    c062:	f2 42 24 00 	mov.b	#8,	&0x0024	;r2 As==11
    c066:	c2 43 23 00 	mov.b	#0,	&0x0023	;r3 As==00
    c06a:	f2 43 2a 00 	mov.b	#-1,	&0x002a	;r3 As==11
    c06e:	c2 43 29 00 	mov.b	#0,	&0x0029	;r3 As==00
    c072:	3f 40 80 25 	mov	#9600,	r15	;#0x2580
    c076:	b0 12 8e ca 	call	#0xca8e	
    c07a:	32 d2       	eint			
    c07c:	3d 40 5a 00 	mov	#90,	r13	;#0x005a
    c080:	0e 43       	clr	r14		
    c082:	3f 40 2a 02 	mov	#554,	r15	;#0x022a
    c086:	b0 12 64 cb 	call	#0xcb64	
    c08a:	3f 40 e8 cd 	mov	#-12824,r15	;#0xcde8
    c08e:	b0 12 66 c7 	call	#0xc766	
    c092:	b0 12 5e c9 	call	#0xc95e	
    c096:	7f 90 0d 00 	cmp.b	#13,	r15	;#0x000d
    c09a:	1c 24       	jz	$+58     	;abs 0xc0d4
    c09c:	0b 43       	clr	r11		
    c09e:	7f 92       	cmp.b	#8,	r15	;r2 As==11
    c0a0:	0f 20       	jnz	$+32     	;abs 0xc0c0
    c0a2:	0b 93       	tst	r11		
    c0a4:	12 24       	jz	$+38     	;abs 0xc0ca
    c0a6:	3b 53       	add	#-1,	r11	;r3 As==11
    c0a8:	cb 43 2a 02 	mov.b	#0,	554(r11);r3 As==00, 0x022a(r11)
    c0ac:	b0 12 58 c9 	call	#0xc958	
    c0b0:	7f 40 20 00 	mov.b	#32,	r15	;#0x0020
    c0b4:	b0 12 58 c9 	call	#0xc958	
    c0b8:	7f 42       	mov.b	#8,	r15	;r2 As==11
    c0ba:	b0 12 58 c9 	call	#0xc958	
    c0be:	05 3c       	jmp	$+12     	;abs 0xc0ca
    c0c0:	cb 4f 2a 02 	mov.b	r15,	554(r11);0x022a(r11)
    c0c4:	1b 53       	inc	r11		
    c0c6:	b0 12 58 c9 	call	#0xc958	
    c0ca:	b0 12 5e c9 	call	#0xc95e	
    c0ce:	7f 90 0d 00 	cmp.b	#13,	r15	;#0x000d
    c0d2:	e5 23       	jnz	$-52     	;abs 0xc09e
    c0d4:	3f 40 eb cd 	mov	#-12821,r15	;#0xcdeb
    c0d8:	b0 12 66 c7 	call	#0xc766	
    c0dc:	3f 40 2a 02 	mov	#554,	r15	;#0x022a
    c0e0:	b0 12 c8 c4 	call	#0xc4c8	
    c0e4:	3f 90 f1 ff 	cmp	#-15,	r15	;#0xfff1
    c0e8:	0c 24       	jz	$+26     	;abs 0xc102
    c0ea:	3f 90 f2 ff 	cmp	#-14,	r15	;#0xfff2
    c0ee:	04 24       	jz	$+10     	;abs 0xc0f8
    c0f0:	3f 90 f0 ff 	cmp	#-16,	r15	;#0xfff0
    c0f4:	0f 20       	jnz	$+32     	;abs 0xc114
    c0f6:	0a 3c       	jmp	$+22     	;abs 0xc10c
    c0f8:	3f 40 ef cd 	mov	#-12817,r15	;#0xcdef
    c0fc:	b0 12 66 c7 	call	#0xc766	
    c100:	09 3c       	jmp	$+20     	;abs 0xc114
    c102:	3f 40 0e ce 	mov	#-12786,r15	;#0xce0e
    c106:	b0 12 66 c7 	call	#0xc766	
    c10a:	04 3c       	jmp	$+10     	;abs 0xc114
    c10c:	3f 40 33 ce 	mov	#-12749,r15	;#0xce33
    c110:	b0 12 66 c7 	call	#0xc766	
    c114:	3f 40 56 ce 	mov	#-12714,r15	;#0xce56
    c118:	b0 12 66 c7 	call	#0xc766	
    c11c:	af 3f       	jmp	$-160    	;abs 0xc07c

0000c11e <__stop_progExec__>:
    c11e:	32 d0 f0 00 	bis	#240,	r2	;#0x00f0
    c122:	fd 3f       	jmp	$-4      	;abs 0xc11e

0000c124 <__ctors_end>:
    c124:	30 40 68 cd 	br	#0xcd68	

0000c128 <shell_cmd_show>:
    c128:	0b 12       	push	r11		
    c12a:	0a 12       	push	r10		
    c12c:	1a 42 26 02 	mov	&0x0226,r10	
    c130:	1a 93       	cmp	#1,	r10	;r3 As==01
    c132:	18 38       	jl	$+50     	;abs 0xc164
    c134:	3a 53       	add	#-1,	r10	;r3 As==11
    c136:	0b 4a       	mov	r10,	r11	
    c138:	0b 5b       	rla	r11		
    c13a:	3b 50 84 02 	add	#644,	r11	;#0x0284
    c13e:	2f 4b       	mov	@r11,	r15	
    c140:	1f 12 04 00 	push	4(r15)		;0x0004(r15)
    c144:	1f 12 02 00 	push	2(r15)		;0x0002(r15)
    c148:	2f 12       	push	@r15		
    c14a:	30 12 6a cd 	push	#-12950	;#0xcd6a
    c14e:	b0 12 2e c8 	call	#0xc82e	
    c152:	31 52       	add	#8,	r1	;r2 As==11
    c154:	3a 53       	add	#-1,	r10	;r3 As==11
    c156:	2b 83       	decd	r11		
    c158:	3a 93       	cmp	#-1,	r10	;r3 As==11
    c15a:	f1 23       	jnz	$-28     	;abs 0xc13e
    c15c:	0f 43       	clr	r15		
    c15e:	3a 41       	pop	r10		
    c160:	3b 41       	pop	r11		
    c162:	30 41       	ret			
    c164:	30 12 78 cd 	push	#-12936	;#0xcd78
    c168:	b0 12 2e c8 	call	#0xc82e	
    c16c:	21 53       	incd	r1		
    c16e:	0f 43       	clr	r15		
    c170:	3a 41       	pop	r10		
    c172:	3b 41       	pop	r11		
    c174:	30 41       	ret			

0000c176 <shell_cmd_argt>:
    c176:	0b 12       	push	r11		
    c178:	0a 12       	push	r10		
    c17a:	0a 4f       	mov	r15,	r10	
    c17c:	3f 40 87 cd 	mov	#-12921,r15	;#0xcd87
    c180:	b0 12 66 c7 	call	#0xc766	
    c184:	ca 93 00 00 	tst.b	0(r10)		;0x0000(r10)
    c188:	12 24       	jz	$+38     	;abs 0xc1ae
    c18a:	0b 43       	clr	r11		
    c18c:	0e 4b       	mov	r11,	r14	
    c18e:	0e 5e       	rla	r14		
    c190:	0e 5e       	rla	r14		
    c192:	0e 5e       	rla	r14		
    c194:	0e 5e       	rla	r14		
    c196:	2e 53       	incd	r14		
    c198:	0e 5a       	add	r10,	r14	
    c19a:	0e 12       	push	r14		
    c19c:	30 12 95 cd 	push	#-12907	;#0xcd95
    c1a0:	b0 12 2e c8 	call	#0xc82e	
    c1a4:	21 52       	add	#4,	r1	;r2 As==10
    c1a6:	1b 53       	inc	r11		
    c1a8:	6f 4a       	mov.b	@r10,	r15	
    c1aa:	0b 9f       	cmp	r15,	r11	
    c1ac:	ef 3b       	jl	$-32     	;abs 0xc18c
    c1ae:	0f 43       	clr	r15		
    c1b0:	3a 41       	pop	r10		
    c1b2:	3b 41       	pop	r11		
    c1b4:	30 41       	ret			

0000c1b6 <shell_cmd_help>:
    c1b6:	0b 12       	push	r11		
    c1b8:	0a 12       	push	r10		
    c1ba:	c2 93 00 02 	tst.b	&0x0200	
    c1be:	13 24       	jz	$+40     	;abs 0xc1e6
    c1c0:	3b 40 04 02 	mov	#516,	r11	;#0x0204
    c1c4:	0a 43       	clr	r10		
    c1c6:	2b 12       	push	@r11		
    c1c8:	1b 12 fe ff 	push	-2(r11)	;0xfffe(r11)
    c1cc:	30 12 9d cd 	push	#-12899	;#0xcd9d
    c1d0:	b0 12 2e c8 	call	#0xc82e	
    c1d4:	31 50 06 00 	add	#6,	r1	;#0x0006
    c1d8:	1a 53       	inc	r10		
    c1da:	3b 50 06 00 	add	#6,	r11	;#0x0006
    c1de:	5f 42 00 02 	mov.b	&0x0200,r15	
    c1e2:	0a 9f       	cmp	r15,	r10	
    c1e4:	f0 3b       	jl	$-30     	;abs 0xc1c6
    c1e6:	0f 43       	clr	r15		
    c1e8:	3a 41       	pop	r10		
    c1ea:	3b 41       	pop	r11		
    c1ec:	30 41       	ret			

0000c1ee <shell_cmd_pop>:
    c1ee:	1f 42 26 02 	mov	&0x0226,r15	
    c1f2:	0f 93       	tst	r15		
    c1f4:	18 24       	jz	$+50     	;abs 0xc226
    c1f6:	3f 90 05 00 	cmp	#5,	r15	;#0x0005
    c1fa:	30 24       	jz	$+98     	;abs 0xc25c
    c1fc:	1f 93       	cmp	#1,	r15	;r3 As==01
    c1fe:	1a 24       	jz	$+54     	;abs 0xc234
    c200:	3f 53       	add	#-1,	r15	;r3 As==11
    c202:	0f 5f       	rla	r15		
    c204:	1f 4f 84 02 	mov	644(r15),r15	;0x0284(r15)
    c208:	2f 4f       	mov	@r15,	r15	
    c20a:	b0 12 d6 cc 	call	#0xccd6	
    c20e:	1f 42 26 02 	mov	&0x0226,r15	
    c212:	3f 53       	add	#-1,	r15	;r3 As==11
    c214:	0f 5f       	rla	r15		
    c216:	1f 4f 84 02 	mov	644(r15),r15	;0x0284(r15)
    c21a:	b0 12 d6 cc 	call	#0xccd6	
    c21e:	b2 53 26 02 	add	#-1,	&0x0226	;r3 As==11
    c222:	0f 43       	clr	r15		
    c224:	30 41       	ret			
    c226:	30 12 a6 cd 	push	#-12890	;#0xcda6
    c22a:	b0 12 2e c8 	call	#0xc82e	
    c22e:	21 53       	incd	r1		
    c230:	0f 43       	clr	r15		
    c232:	30 41       	ret			
    c234:	1f 42 84 02 	mov	&0x0284,r15	
    c238:	2f 4f       	mov	@r15,	r15	
    c23a:	b0 12 d6 cc 	call	#0xccd6	
    c23e:	1f 42 26 02 	mov	&0x0226,r15	
    c242:	3f 53       	add	#-1,	r15	;r3 As==11
    c244:	0f 5f       	rla	r15		
    c246:	1f 4f 84 02 	mov	644(r15),r15	;0x0284(r15)
    c24a:	b0 12 d6 cc 	call	#0xccd6	
    c24e:	b2 53 26 02 	add	#-1,	&0x0226	;r3 As==11
    c252:	f2 f0 bf ff 	and.b	#-65,	&0x0021	;#0xffbf
    c256:	21 00 
    c258:	0f 43       	clr	r15		
    c25a:	30 41       	ret			
    c25c:	1f 42 8c 02 	mov	&0x028c,r15	
    c260:	2f 4f       	mov	@r15,	r15	
    c262:	b0 12 d6 cc 	call	#0xccd6	
    c266:	1f 42 26 02 	mov	&0x0226,r15	
    c26a:	3f 53       	add	#-1,	r15	;r3 As==11
    c26c:	0f 5f       	rla	r15		
    c26e:	1f 4f 84 02 	mov	644(r15),r15	;0x0284(r15)
    c272:	b0 12 d6 cc 	call	#0xccd6	
    c276:	b2 53 26 02 	add	#-1,	&0x0226	;r3 As==11
    c27a:	f2 f0 fe ff 	and.b	#-2,	&0x0021	;#0xfffe
    c27e:	21 00 
    c280:	f2 d0 40 00 	bis.b	#64,	&0x0021	;#0x0040
    c284:	21 00 
    c286:	cd 3f       	jmp	$-100    	;abs 0xc222

0000c288 <shell_cmd_sell>:
    c288:	0b 12       	push	r11		
    c28a:	0a 12       	push	r10		
    c28c:	1f 42 26 02 	mov	&0x0226,r15	
    c290:	0f 93       	tst	r15		
    c292:	2f 24       	jz	$+96     	;abs 0xc2f2
    c294:	3f 90 05 00 	cmp	#5,	r15	;#0x0005
    c298:	60 24       	jz	$+194    	;abs 0xc35a
    c29a:	1f 93       	cmp	#1,	r15	;r3 As==01
    c29c:	33 24       	jz	$+104    	;abs 0xc304
    c29e:	3f 53       	add	#-1,	r15	;r3 As==11
    c2a0:	0f 5f       	rla	r15		
    c2a2:	1b 4f 84 02 	mov	644(r15),r11	;0x0284(r15)
    c2a6:	1e 4b 04 00 	mov	4(r11),	r14	;0x0004(r11)
    c2aa:	1f 4b 02 00 	mov	2(r11),	r15	;0x0002(r11)
    c2ae:	b0 12 c6 ca 	call	#0xcac6	
    c2b2:	0a 4f       	mov	r15,	r10	
    c2b4:	3e 40 64 00 	mov	#100,	r14	;#0x0064
    c2b8:	b0 12 10 cb 	call	#0xcb10	
    c2bc:	0f 12       	push	r15		
    c2be:	3e 40 64 00 	mov	#100,	r14	;#0x0064
    c2c2:	0f 4a       	mov	r10,	r15	
    c2c4:	b0 12 de ca 	call	#0xcade	
    c2c8:	0f 12       	push	r15		
    c2ca:	2b 12       	push	@r11		
    c2cc:	30 12 c1 cd 	push	#-12863	;#0xcdc1
    c2d0:	b0 12 2e c8 	call	#0xc82e	
    c2d4:	31 52       	add	#8,	r1	;r2 As==11
    c2d6:	1f 42 26 02 	mov	&0x0226,r15	
    c2da:	3f 53       	add	#-1,	r15	;r3 As==11
    c2dc:	0f 5f       	rla	r15		
    c2de:	1f 4f 84 02 	mov	644(r15),r15	;0x0284(r15)
    c2e2:	b0 12 d6 cc 	call	#0xccd6	
    c2e6:	b2 53 26 02 	add	#-1,	&0x0226	;r3 As==11
    c2ea:	0f 43       	clr	r15		
    c2ec:	3a 41       	pop	r10		
    c2ee:	3b 41       	pop	r11		
    c2f0:	30 41       	ret			
    c2f2:	30 12 a6 cd 	push	#-12890	;#0xcda6
    c2f6:	b0 12 2e c8 	call	#0xc82e	
    c2fa:	21 53       	incd	r1		
    c2fc:	0f 43       	clr	r15		
    c2fe:	3a 41       	pop	r10		
    c300:	3b 41       	pop	r11		
    c302:	30 41       	ret			
    c304:	1b 42 84 02 	mov	&0x0284,r11	
    c308:	1e 4b 04 00 	mov	4(r11),	r14	;0x0004(r11)
    c30c:	1f 4b 02 00 	mov	2(r11),	r15	;0x0002(r11)
    c310:	b0 12 c6 ca 	call	#0xcac6	
    c314:	0a 4f       	mov	r15,	r10	
    c316:	3e 40 64 00 	mov	#100,	r14	;#0x0064
    c31a:	b0 12 10 cb 	call	#0xcb10	
    c31e:	0f 12       	push	r15		
    c320:	3e 40 64 00 	mov	#100,	r14	;#0x0064
    c324:	0f 4a       	mov	r10,	r15	
    c326:	b0 12 de ca 	call	#0xcade	
    c32a:	0f 12       	push	r15		
    c32c:	2b 12       	push	@r11		
    c32e:	30 12 c1 cd 	push	#-12863	;#0xcdc1
    c332:	b0 12 2e c8 	call	#0xc82e	
    c336:	31 52       	add	#8,	r1	;r2 As==11
    c338:	1f 42 26 02 	mov	&0x0226,r15	
    c33c:	3f 53       	add	#-1,	r15	;r3 As==11
    c33e:	0f 5f       	rla	r15		
    c340:	1f 4f 84 02 	mov	644(r15),r15	;0x0284(r15)
    c344:	b0 12 d6 cc 	call	#0xccd6	
    c348:	b2 53 26 02 	add	#-1,	&0x0226	;r3 As==11
    c34c:	f2 f0 bf ff 	and.b	#-65,	&0x0021	;#0xffbf
    c350:	21 00 
    c352:	0f 43       	clr	r15		
    c354:	3a 41       	pop	r10		
    c356:	3b 41       	pop	r11		
    c358:	30 41       	ret			
    c35a:	1b 42 8c 02 	mov	&0x028c,r11	
    c35e:	1e 4b 04 00 	mov	4(r11),	r14	;0x0004(r11)
    c362:	1f 4b 02 00 	mov	2(r11),	r15	;0x0002(r11)
    c366:	b0 12 c6 ca 	call	#0xcac6	
    c36a:	0a 4f       	mov	r15,	r10	
    c36c:	3e 40 64 00 	mov	#100,	r14	;#0x0064
    c370:	b0 12 10 cb 	call	#0xcb10	
    c374:	0f 12       	push	r15		
    c376:	3e 40 64 00 	mov	#100,	r14	;#0x0064
    c37a:	0f 4a       	mov	r10,	r15	
    c37c:	b0 12 de ca 	call	#0xcade	
    c380:	0f 12       	push	r15		
    c382:	2b 12       	push	@r11		
    c384:	30 12 c1 cd 	push	#-12863	;#0xcdc1
    c388:	b0 12 2e c8 	call	#0xc82e	
    c38c:	31 52       	add	#8,	r1	;r2 As==11
    c38e:	1f 42 26 02 	mov	&0x0226,r15	
    c392:	3f 53       	add	#-1,	r15	;r3 As==11
    c394:	0f 5f       	rla	r15		
    c396:	1f 4f 84 02 	mov	644(r15),r15	;0x0284(r15)
    c39a:	b0 12 d6 cc 	call	#0xccd6	
    c39e:	b2 53 26 02 	add	#-1,	&0x0226	;r3 As==11
    c3a2:	f2 f0 fe ff 	and.b	#-2,	&0x0021	;#0xfffe
    c3a6:	21 00 
    c3a8:	f2 d0 40 00 	bis.b	#64,	&0x0021	;#0x0040
    c3ac:	21 00 
    c3ae:	9d 3f       	jmp	$-196    	;abs 0xc2ea

0000c3b0 <shell_cmd_push>:
    c3b0:	0b 12       	push	r11		
    c3b2:	0a 12       	push	r10		
    c3b4:	09 12       	push	r9		
    c3b6:	0a 4f       	mov	r15,	r10	
    c3b8:	1b 42 26 02 	mov	&0x0226,r11	
    c3bc:	2b 92       	cmp	#4,	r11	;r2 As==10
    c3be:	0b 38       	jl	$+24     	;abs 0xc3d6
    c3c0:	45 24       	jz	$+140    	;abs 0xc44c
    c3c2:	30 12 cd cd 	push	#-12851	;#0xcdcd
    c3c6:	b0 12 2e c8 	call	#0xc82e	
    c3ca:	21 53       	incd	r1		
    c3cc:	0f 43       	clr	r15		
    c3ce:	39 41       	pop	r9		
    c3d0:	3a 41       	pop	r10		
    c3d2:	3b 41       	pop	r11		
    c3d4:	30 41       	ret			
    c3d6:	3f 40 06 00 	mov	#6,	r15	;#0x0006
    c3da:	b0 12 ce cb 	call	#0xcbce	
    c3de:	09 4f       	mov	r15,	r9	
    c3e0:	0b 5b       	rla	r11		
    c3e2:	8b 4f 84 02 	mov	r15,	644(r11);0x0284(r11)
    c3e6:	0b 4a       	mov	r10,	r11	
    c3e8:	2b 53       	incd	r11		
    c3ea:	0d 4a       	mov	r10,	r13	
    c3ec:	1d 53       	inc	r13		
    c3ee:	1d 53       	inc	r13		
    c3f0:	cd 93 00 00 	tst.b	0(r13)		;0x0000(r13)
    c3f4:	fc 23       	jnz	$-6      	;abs 0xc3ee
    c3f6:	0f 4d       	mov	r13,	r15	
    c3f8:	0f 8b       	sub	r11,	r15	
    c3fa:	1f 53       	inc	r15		
    c3fc:	b0 12 ce cb 	call	#0xcbce	
    c400:	89 4f 00 00 	mov	r15,	0(r9)	;0x0000(r9)
    c404:	0d 4b       	mov	r11,	r13	
    c406:	3d 53       	add	#-1,	r13	;r3 As==11
    c408:	1d 53       	inc	r13		
    c40a:	cd 93 00 00 	tst.b	0(r13)		;0x0000(r13)
    c40e:	fc 23       	jnz	$-6      	;abs 0xc408
    c410:	0d 8b       	sub	r11,	r13	
    c412:	1d 53       	inc	r13		
    c414:	0e 4b       	mov	r11,	r14	
    c416:	b0 12 3a cb 	call	#0xcb3a	
    c41a:	0f 4a       	mov	r10,	r15	
    c41c:	3f 50 12 00 	add	#18,	r15	;#0x0012
    c420:	b0 12 de cc 	call	#0xccde	
    c424:	89 4f 02 00 	mov	r15,	2(r9)	;0x0002(r9)
    c428:	1f 42 26 02 	mov	&0x0226,r15	
    c42c:	0f 5f       	rla	r15		
    c42e:	1b 4f 84 02 	mov	644(r15),r11	;0x0284(r15)
    c432:	0f 4a       	mov	r10,	r15	
    c434:	3f 50 22 00 	add	#34,	r15	;#0x0022
    c438:	b0 12 de cc 	call	#0xccde	
    c43c:	8b 4f 04 00 	mov	r15,	4(r11)	;0x0004(r11)
    c440:	f2 d0 40 00 	bis.b	#64,	&0x0021	;#0x0040
    c444:	21 00 
    c446:	92 53 26 02 	inc	&0x0226	
    c44a:	c0 3f       	jmp	$-126    	;abs 0xc3cc
    c44c:	3f 40 06 00 	mov	#6,	r15	;#0x0006
    c450:	b0 12 ce cb 	call	#0xcbce	
    c454:	09 4f       	mov	r15,	r9	
    c456:	82 4f 8c 02 	mov	r15,	&0x028c	
    c45a:	0b 4a       	mov	r10,	r11	
    c45c:	2b 53       	incd	r11		
    c45e:	0d 4a       	mov	r10,	r13	
    c460:	1d 53       	inc	r13		
    c462:	1d 53       	inc	r13		
    c464:	cd 93 00 00 	tst.b	0(r13)		;0x0000(r13)
    c468:	fc 23       	jnz	$-6      	;abs 0xc462
    c46a:	0f 4d       	mov	r13,	r15	
    c46c:	0f 8b       	sub	r11,	r15	
    c46e:	1f 53       	inc	r15		
    c470:	b0 12 ce cb 	call	#0xcbce	
    c474:	89 4f 00 00 	mov	r15,	0(r9)	;0x0000(r9)
    c478:	0d 4b       	mov	r11,	r13	
    c47a:	3d 53       	add	#-1,	r13	;r3 As==11
    c47c:	1d 53       	inc	r13		
    c47e:	cd 93 00 00 	tst.b	0(r13)		;0x0000(r13)
    c482:	fc 23       	jnz	$-6      	;abs 0xc47c
    c484:	0d 8b       	sub	r11,	r13	
    c486:	1d 53       	inc	r13		
    c488:	0e 4b       	mov	r11,	r14	
    c48a:	b0 12 3a cb 	call	#0xcb3a	
    c48e:	1b 42 8c 02 	mov	&0x028c,r11	
    c492:	0f 4a       	mov	r10,	r15	
    c494:	3f 50 12 00 	add	#18,	r15	;#0x0012
    c498:	b0 12 de cc 	call	#0xccde	
    c49c:	8b 4f 02 00 	mov	r15,	2(r11)	;0x0002(r11)
    c4a0:	1f 42 26 02 	mov	&0x0226,r15	
    c4a4:	0f 5f       	rla	r15		
    c4a6:	1b 4f 84 02 	mov	644(r15),r11	;0x0284(r15)
    c4aa:	0f 4a       	mov	r10,	r15	
    c4ac:	3f 50 22 00 	add	#34,	r15	;#0x0022
    c4b0:	b0 12 de cc 	call	#0xccde	
    c4b4:	8b 4f 04 00 	mov	r15,	4(r11)	;0x0004(r11)
    c4b8:	f2 f0 bf ff 	and.b	#-65,	&0x0021	;#0xffbf
    c4bc:	21 00 
    c4be:	d2 d3 21 00 	bis.b	#1,	&0x0021	;r3 As==01
    c4c2:	92 53 26 02 	inc	&0x0226	
    c4c6:	82 3f       	jmp	$-250    	;abs 0xc3cc

0000c4c8 <shell_process>:
    c4c8:	0e 4f       	mov	r15,	r14	
    c4ca:	3f 40 00 02 	mov	#512,	r15	;#0x0200
    c4ce:	b0 12 5e c6 	call	#0xc65e	
    c4d2:	30 41       	ret			

0000c4d4 <cost>:
    c4d4:	1e 4f 04 00 	mov	4(r15),	r14	;0x0004(r15)
    c4d8:	1f 4f 02 00 	mov	2(r15),	r15	;0x0002(r15)
    c4dc:	b0 12 c6 ca 	call	#0xcac6	
    c4e0:	3e 40 64 00 	mov	#100,	r14	;#0x0064
    c4e4:	b0 12 10 cb 	call	#0xcb10	
    c4e8:	30 41       	ret			

0000c4ea <Port1_ISR>:
    c4ea:	0f 12       	push	r15		
    c4ec:	0e 12       	push	r14		
    c4ee:	0d 12       	push	r13		
    c4f0:	1f 42 26 02 	mov	&0x0226,r15	
    c4f4:	0e 4f       	mov	r15,	r14	
    c4f6:	3e 53       	add	#-1,	r14	;r3 As==11
    c4f8:	0e 5e       	rla	r14		
    c4fa:	3e 50 84 02 	add	#644,	r14	;#0x0284
    c4fe:	2d 4e       	mov	@r14,	r13	
    c500:	2f 83       	decd	r15		
    c502:	0f 5f       	rla	r15		
    c504:	3f 50 84 02 	add	#644,	r15	;#0x0284
    c508:	ae 4f 00 00 	mov	@r15,	0(r14)	;0x0000(r14)
    c50c:	8f 4d 00 00 	mov	r13,	0(r15)	;0x0000(r15)
    c510:	f2 b2 20 00 	bit.b	#8,	&0x0020	;r2 As==11
    c514:	fd 27       	jz	$-4      	;abs 0xc510
    c516:	3f 40 aa 29 	mov	#10666,	r15	;#0x29aa
    c51a:	1f 83       	dec	r15		
    c51c:	fe 23       	jnz	$-2      	;abs 0xc51a
    c51e:	f2 f0 f7 ff 	and.b	#-9,	&0x0023	;#0xfff7
    c522:	23 00 
    c524:	3d 41       	pop	r13		
    c526:	3e 41       	pop	r14		
    c528:	3f 41       	pop	r15		
    c52a:	00 13       	reti			

0000c52c <shell_str_len>:
    c52c:	0e 4f       	mov	r15,	r14	
    c52e:	0f 43       	clr	r15		
    c530:	01 3c       	jmp	$+4      	;abs 0xc534
    c532:	0f 4c       	mov	r12,	r15	
    c534:	0c 4f       	mov	r15,	r12	
    c536:	1c 53       	inc	r12		
    c538:	0d 4e       	mov	r14,	r13	
    c53a:	0d 5f       	add	r15,	r13	
    c53c:	cd 93 00 00 	tst.b	0(r13)		;0x0000(r13)
    c540:	f8 23       	jnz	$-14     	;abs 0xc532
    c542:	30 41       	ret			

0000c544 <shell_str_cmp>:
    c544:	0b 12       	push	r11		
    c546:	0a 12       	push	r10		
    c548:	09 12       	push	r9		
    c54a:	0c 9d       	cmp	r13,	r12	
    c54c:	14 38       	jl	$+42     	;abs 0xc576
    c54e:	0b 43       	clr	r11		
    c550:	08 3c       	jmp	$+18     	;abs 0xc562
    c552:	09 4f       	mov	r15,	r9	
    c554:	09 5b       	add	r11,	r9	
    c556:	0a 4e       	mov	r14,	r10	
    c558:	0a 5b       	add	r11,	r10	
    c55a:	e9 9a 00 00 	cmp.b	@r10,	0(r9)	;0x0000(r9)
    c55e:	0f 20       	jnz	$+32     	;abs 0xc57e
    c560:	1b 53       	inc	r11		
    c562:	0b 9d       	cmp	r13,	r11	
    c564:	f6 3b       	jl	$-18     	;abs 0xc552
    c566:	0d 9c       	cmp	r12,	r13	
    c568:	08 34       	jge	$+18     	;abs 0xc57a
    c56a:	0b 5e       	add	r14,	r11	
    c56c:	fb 90 20 00 	cmp.b	#32,	0(r11)	;#0x0020, 0x0000(r11)
    c570:	00 00 
    c572:	05 20       	jnz	$+12     	;abs 0xc57e
    c574:	02 3c       	jmp	$+6      	;abs 0xc57a
    c576:	1f 43       	mov	#1,	r15	;r3 As==01
    c578:	03 3c       	jmp	$+8      	;abs 0xc580
    c57a:	0f 43       	clr	r15		
    c57c:	01 3c       	jmp	$+4      	;abs 0xc580
    c57e:	2f 43       	mov	#2,	r15	;r3 As==10
    c580:	39 41       	pop	r9		
    c582:	3a 41       	pop	r10		
    c584:	3b 41       	pop	r11		
    c586:	30 41       	ret			

0000c588 <shell_parse_int>:
    c588:	0d 43       	clr	r13		
    c58a:	11 3c       	jmp	$+36     	;abs 0xc5ae
    c58c:	1f 53       	inc	r15		
    c58e:	4e 4c       	mov.b	r12,	r14	
    c590:	7e 50 d0 ff 	add.b	#-48,	r14	;#0xffd0
    c594:	7e 90 0a 00 	cmp.b	#10,	r14	;#0x000a
    c598:	0d 2c       	jc	$+28     	;abs 0xc5b4
    c59a:	0d 5d       	rla	r13		
    c59c:	0e 4d       	mov	r13,	r14	
    c59e:	0e 5e       	rla	r14		
    c5a0:	0e 5e       	rla	r14		
    c5a2:	0d 5e       	add	r14,	r13	
    c5a4:	4e 4c       	mov.b	r12,	r14	
    c5a6:	8e 11       	sxt	r14		
    c5a8:	3e 50 d0 ff 	add	#-48,	r14	;#0xffd0
    c5ac:	0d 5e       	add	r14,	r13	
    c5ae:	6c 4f       	mov.b	@r15,	r12	
    c5b0:	4c 93       	tst.b	r12		
    c5b2:	ec 23       	jnz	$-38     	;abs 0xc58c
    c5b4:	0f 4d       	mov	r13,	r15	
    c5b6:	30 41       	ret			

0000c5b8 <shell_arg_parser>:
    c5b8:	0b 12       	push	r11		
    c5ba:	0a 12       	push	r10		
    c5bc:	09 12       	push	r9		
    c5be:	08 12       	push	r8		
    c5c0:	07 12       	push	r7		
    c5c2:	06 12       	push	r6		
    c5c4:	05 12       	push	r5		
    c5c6:	0a 43       	clr	r10		
    c5c8:	0c 43       	clr	r12		
    c5ca:	0b 43       	clr	r11		
    c5cc:	08 4e       	mov	r14,	r8	
    c5ce:	38 53       	add	#-1,	r8	;r3 As==11
    c5d0:	35 3c       	jmp	$+108    	;abs 0xc63c
    c5d2:	3a 90 06 00 	cmp	#6,	r10	;#0x0006
    c5d6:	38 34       	jge	$+114    	;abs 0xc648
    c5d8:	09 4f       	mov	r15,	r9	
    c5da:	09 5b       	add	r11,	r9	
    c5dc:	f9 90 20 00 	cmp.b	#32,	0(r9)	;#0x0020, 0x0000(r9)
    c5e0:	00 00 
    c5e2:	02 24       	jz	$+6      	;abs 0xc5e8
    c5e4:	0b 98       	cmp	r8,	r11	
    c5e6:	29 20       	jnz	$+84     	;abs 0xc63a
    c5e8:	0b 98       	cmp	r8,	r11	
    c5ea:	01 20       	jnz	$+4      	;abs 0xc5ee
    c5ec:	0b 4e       	mov	r14,	r11	
    c5ee:	0c 93       	tst	r12		
    c5f0:	23 24       	jz	$+72     	;abs 0xc638
    c5f2:	07 4b       	mov	r11,	r7	
    c5f4:	07 8c       	sub	r12,	r7	
    c5f6:	37 90 10 00 	cmp	#16,	r7	;#0x0010
    c5fa:	28 34       	jge	$+82     	;abs 0xc64c
    c5fc:	09 43       	clr	r9		
    c5fe:	37 53       	add	#-1,	r7	;r3 As==11
    c600:	05 4f       	mov	r15,	r5	
    c602:	05 5c       	add	r12,	r5	
    c604:	0d 3c       	jmp	$+28     	;abs 0xc620
    c606:	06 45       	mov	r5,	r6	
    c608:	06 59       	add	r9,	r6	
    c60a:	0c 4a       	mov	r10,	r12	
    c60c:	0c 5c       	rla	r12		
    c60e:	0c 5c       	rla	r12		
    c610:	0c 5c       	rla	r12		
    c612:	0c 5c       	rla	r12		
    c614:	0c 5d       	add	r13,	r12	
    c616:	0c 59       	add	r9,	r12	
    c618:	dc 46 01 00 	mov.b	1(r6),	2(r12)	;0x0001(r6), 0x0002(r12)
    c61c:	02 00 
    c61e:	19 53       	inc	r9		
    c620:	09 97       	cmp	r7,	r9	
    c622:	f1 3b       	jl	$-28     	;abs 0xc606
    c624:	0c 4a       	mov	r10,	r12	
    c626:	0c 5c       	rla	r12		
    c628:	0c 5c       	rla	r12		
    c62a:	0c 5c       	rla	r12		
    c62c:	0c 5c       	rla	r12		
    c62e:	0c 5d       	add	r13,	r12	
    c630:	0c 59       	add	r9,	r12	
    c632:	cc 43 02 00 	mov.b	#0,	2(r12)	;r3 As==00, 0x0002(r12)
    c636:	1a 53       	inc	r10		
    c638:	0c 4b       	mov	r11,	r12	
    c63a:	1b 53       	inc	r11		
    c63c:	0b 9e       	cmp	r14,	r11	
    c63e:	c9 3b       	jl	$-108    	;abs 0xc5d2
    c640:	cd 4a 00 00 	mov.b	r10,	0(r13)	;0x0000(r13)
    c644:	0f 43       	clr	r15		
    c646:	03 3c       	jmp	$+8      	;abs 0xc64e
    c648:	1f 43       	mov	#1,	r15	;r3 As==01
    c64a:	01 3c       	jmp	$+4      	;abs 0xc64e
    c64c:	2f 43       	mov	#2,	r15	;r3 As==10
    c64e:	35 41       	pop	r5		
    c650:	36 41       	pop	r6		
    c652:	37 41       	pop	r7		
    c654:	38 41       	pop	r8		
    c656:	39 41       	pop	r9		
    c658:	3a 41       	pop	r10		
    c65a:	3b 41       	pop	r11		
    c65c:	30 41       	ret			

0000c65e <shell_process_cmds>:
    c65e:	0b 12       	push	r11		
    c660:	0a 12       	push	r10		
    c662:	09 12       	push	r9		
    c664:	08 12       	push	r8		
    c666:	07 12       	push	r7		
    c668:	06 12       	push	r6		
    c66a:	31 50 ae ff 	add	#-82,	r1	;#0xffae
    c66e:	0b 4f       	mov	r15,	r11	
    c670:	08 4e       	mov	r14,	r8	
    c672:	09 4f       	mov	r15,	r9	
    c674:	0a 43       	clr	r10		
    c676:	27 3c       	jmp	$+80     	;abs 0xc6c6
    c678:	0f 48       	mov	r8,	r15	
    c67a:	b0 12 2c c5 	call	#0xc52c	
    c67e:	07 4f       	mov	r15,	r7	
    c680:	16 49 02 00 	mov	2(r9),	r6	;0x0002(r9)
    c684:	0f 46       	mov	r6,	r15	
    c686:	b0 12 2c c5 	call	#0xc52c	
    c68a:	0c 47       	mov	r7,	r12	
    c68c:	0d 4f       	mov	r15,	r13	
    c68e:	0e 48       	mov	r8,	r14	
    c690:	0f 46       	mov	r6,	r15	
    c692:	b0 12 44 c5 	call	#0xc544	
    c696:	39 50 06 00 	add	#6,	r9	;#0x0006
    c69a:	0f 93       	tst	r15		
    c69c:	13 20       	jnz	$+40     	;abs 0xc6c4
    c69e:	0d 41       	mov	r1,	r13	
    c6a0:	0e 47       	mov	r7,	r14	
    c6a2:	0f 48       	mov	r8,	r15	
    c6a4:	b0 12 b8 c5 	call	#0xc5b8	
    c6a8:	1f 93       	cmp	#1,	r15	;r3 As==01
    c6aa:	13 24       	jz	$+40     	;abs 0xc6d2
    c6ac:	2f 93       	cmp	#2,	r15	;r3 As==10
    c6ae:	14 24       	jz	$+42     	;abs 0xc6d8
    c6b0:	0e 4a       	mov	r10,	r14	
    c6b2:	1e 53       	inc	r14		
    c6b4:	0d 4e       	mov	r14,	r13	
    c6b6:	0d 5d       	rla	r13		
    c6b8:	0e 5d       	add	r13,	r14	
    c6ba:	0e 5e       	rla	r14		
    c6bc:	0e 5b       	add	r11,	r14	
    c6be:	0f 41       	mov	r1,	r15	
    c6c0:	ae 12       	call	@r14		
    c6c2:	0c 3c       	jmp	$+26     	;abs 0xc6dc
    c6c4:	1a 53       	inc	r10		
    c6c6:	6f 4b       	mov.b	@r11,	r15	
    c6c8:	0a 9f       	cmp	r15,	r10	
    c6ca:	d6 3b       	jl	$-82     	;abs 0xc678
    c6cc:	3f 40 f2 ff 	mov	#-14,	r15	;#0xfff2
    c6d0:	05 3c       	jmp	$+12     	;abs 0xc6dc
    c6d2:	3f 40 f0 ff 	mov	#-16,	r15	;#0xfff0
    c6d6:	02 3c       	jmp	$+6      	;abs 0xc6dc
    c6d8:	3f 40 f1 ff 	mov	#-15,	r15	;#0xfff1
    c6dc:	31 50 52 00 	add	#82,	r1	;#0x0052
    c6e0:	36 41       	pop	r6		
    c6e2:	37 41       	pop	r7		
    c6e4:	38 41       	pop	r8		
    c6e6:	39 41       	pop	r9		
    c6e8:	3a 41       	pop	r10		
    c6ea:	3b 41       	pop	r11		
    c6ec:	30 41       	ret			

0000c6ee <_xtoa>:
    c6ee:	0b 12       	push	r11		
    c6f0:	0a 12       	push	r10		
    c6f2:	09 12       	push	r9		
    c6f4:	08 12       	push	r8		
    c6f6:	07 12       	push	r7		
    c6f8:	0a 4e       	mov	r14,	r10	
    c6fa:	0b 4f       	mov	r15,	r11	
    c6fc:	07 4d       	mov	r13,	r7	
    c6fe:	0e 93       	tst	r14		
    c700:	04 20       	jnz	$+10     	;abs 0xc70a
    c702:	0b 93       	tst	r11		
    c704:	1f 24       	jz	$+64     	;abs 0xc744
    c706:	01 3c       	jmp	$+4      	;abs 0xc70a
    c708:	27 52       	add	#4,	r7	;r2 As==10
    c70a:	1b 97 02 00 	cmp	2(r7),	r11	;0x0002(r7)
    c70e:	fc 2b       	jnc	$-6      	;abs 0xc708
    c710:	02 20       	jnz	$+6      	;abs 0xc716
    c712:	2a 97       	cmp	@r7,	r10	
    c714:	f9 2b       	jnc	$-12     	;abs 0xc708
    c716:	38 47       	mov	@r7+,	r8	
    c718:	39 47       	mov	@r7+,	r9	
    c71a:	7f 40 30 00 	mov.b	#48,	r15	;#0x0030
    c71e:	03 3c       	jmp	$+8      	;abs 0xc726
    c720:	5f 53       	inc.b	r15		
    c722:	0a 88       	sub	r8,	r10	
    c724:	0b 79       	subc	r9,	r11	
    c726:	0b 99       	cmp	r9,	r11	
    c728:	04 28       	jnc	$+10     	;abs 0xc732
    c72a:	09 9b       	cmp	r11,	r9	
    c72c:	f9 2b       	jnc	$-12     	;abs 0xc720
    c72e:	0a 98       	cmp	r8,	r10	
    c730:	f7 2f       	jc	$-16     	;abs 0xc720
    c732:	b0 12 58 c9 	call	#0xc958	
    c736:	18 f3       	and	#1,	r8	;r3 As==01
    c738:	09 f3       	and	#0,	r9	;r3 As==00
    c73a:	08 93       	tst	r8		
    c73c:	07 20       	jnz	$+16     	;abs 0xc74c
    c73e:	09 93       	tst	r9		
    c740:	ea 27       	jz	$-42     	;abs 0xc716
    c742:	04 3c       	jmp	$+10     	;abs 0xc74c
    c744:	7f 40 30 00 	mov.b	#48,	r15	;#0x0030
    c748:	b0 12 58 c9 	call	#0xc958	
    c74c:	37 41       	pop	r7		
    c74e:	38 41       	pop	r8		
    c750:	39 41       	pop	r9		
    c752:	3a 41       	pop	r10		
    c754:	3b 41       	pop	r11		
    c756:	30 41       	ret			

0000c758 <_puth>:
    c758:	3f f0 0f 00 	and	#15,	r15	;#0x000f
    c75c:	5f 4f 84 cf 	mov.b	-12412(r15),r15	;0xcf84(r15)
    c760:	b0 12 58 c9 	call	#0xc958	
    c764:	30 41       	ret			

0000c766 <cio_print>:
    c766:	0b 12       	push	r11		
    c768:	0b 4f       	mov	r15,	r11	
    c76a:	02 3c       	jmp	$+6      	;abs 0xc770
    c76c:	b0 12 58 c9 	call	#0xc958	
    c770:	7f 4b       	mov.b	@r11+,	r15	
    c772:	4f 93       	tst.b	r15		
    c774:	fb 23       	jnz	$-8      	;abs 0xc76c
    c776:	3b 41       	pop	r11		
    c778:	30 41       	ret			

0000c77a <cio_printi>:
    c77a:	0b 12       	push	r11		
    c77c:	0a 12       	push	r10		
    c77e:	09 12       	push	r9		
    c780:	31 50 e0 ff 	add	#-32,	r1	;#0xffe0
    c784:	0b 4f       	mov	r15,	r11	
    c786:	0f 93       	tst	r15		
    c788:	06 24       	jz	$+14     	;abs 0xc796
    c78a:	09 41       	mov	r1,	r9	
    c78c:	39 50 1e 00 	add	#30,	r9	;#0x001e
    c790:	3a 40 0f 00 	mov	#15,	r10	;#0x000f
    c794:	18 3c       	jmp	$+50     	;abs 0xc7c6
    c796:	7f 40 30 00 	mov.b	#48,	r15	;#0x0030
    c79a:	b0 12 58 c9 	call	#0xc958	
    c79e:	24 3c       	jmp	$+74     	;abs 0xc7e8
    c7a0:	3e 40 0a 00 	mov	#10,	r14	;#0x000a
    c7a4:	0f 4b       	mov	r11,	r15	
    c7a6:	b0 12 10 cb 	call	#0xcb10	
    c7aa:	3f 50 30 00 	add	#48,	r15	;#0x0030
    c7ae:	89 4f 00 00 	mov	r15,	0(r9)	;0x0000(r9)
    c7b2:	3e 40 0a 00 	mov	#10,	r14	;#0x000a
    c7b6:	0f 4b       	mov	r11,	r15	
    c7b8:	b0 12 de ca 	call	#0xcade	
    c7bc:	0b 4f       	mov	r15,	r11	
    c7be:	3a 53       	add	#-1,	r10	;r3 As==11
    c7c0:	29 83       	decd	r9		
    c7c2:	0a 93       	tst	r10		
    c7c4:	02 24       	jz	$+6      	;abs 0xc7ca
    c7c6:	1b 93       	cmp	#1,	r11	;r3 As==01
    c7c8:	eb 37       	jge	$-40     	;abs 0xc7a0
    c7ca:	09 4a       	mov	r10,	r9	
    c7cc:	0b 43       	clr	r11		
    c7ce:	07 3c       	jmp	$+16     	;abs 0xc7de
    c7d0:	0f 4a       	mov	r10,	r15	
    c7d2:	0f 5f       	rla	r15		
    c7d4:	0f 51       	add	r1,	r15	
    c7d6:	0f 5b       	add	r11,	r15	
    c7d8:	6f 4f       	mov.b	@r15,	r15	
    c7da:	b0 12 58 c9 	call	#0xc958	
    c7de:	19 53       	inc	r9		
    c7e0:	2b 53       	incd	r11		
    c7e2:	39 90 10 00 	cmp	#16,	r9	;#0x0010
    c7e6:	f4 23       	jnz	$-22     	;abs 0xc7d0
    c7e8:	31 50 20 00 	add	#32,	r1	;#0x0020
    c7ec:	39 41       	pop	r9		
    c7ee:	3a 41       	pop	r10		
    c7f0:	3b 41       	pop	r11		
    c7f2:	30 41       	ret			

0000c7f4 <cio_printb>:
    c7f4:	0b 12       	push	r11		
    c7f6:	0a 12       	push	r10		
    c7f8:	0a 4f       	mov	r15,	r10	
    c7fa:	0b 4e       	mov	r14,	r11	
    c7fc:	12 3c       	jmp	$+38     	;abs 0xc822
    c7fe:	0d 4a       	mov	r10,	r13	
    c800:	4e 4b       	mov.b	r11,	r14	
    c802:	7e f0 0f 00 	and.b	#15,	r14	;#0x000f
    c806:	4e 93       	tst.b	r14		
    c808:	03 24       	jz	$+8      	;abs 0xc810
    c80a:	0d 11       	rra	r13		
    c80c:	7e 53       	add.b	#-1,	r14	;r3 As==11
    c80e:	fb 3f       	jmp	$-8      	;abs 0xc806
    c810:	1d f3       	and	#1,	r13	;r3 As==01
    c812:	03 24       	jz	$+8      	;abs 0xc81a
    c814:	7f 40 31 00 	mov.b	#49,	r15	;#0x0031
    c818:	02 3c       	jmp	$+6      	;abs 0xc81e
    c81a:	7f 40 30 00 	mov.b	#48,	r15	;#0x0030
    c81e:	b0 12 58 c9 	call	#0xc958	
    c822:	3b 53       	add	#-1,	r11	;r3 As==11
    c824:	0b 93       	tst	r11		
    c826:	eb 37       	jge	$-40     	;abs 0xc7fe
    c828:	3a 41       	pop	r10		
    c82a:	3b 41       	pop	r11		
    c82c:	30 41       	ret			

0000c82e <cio_printf>:
    c82e:	0b 12       	push	r11		
    c830:	0a 12       	push	r10		
    c832:	09 12       	push	r9		
    c834:	08 12       	push	r8		
    c836:	0b 41       	mov	r1,	r11	
    c838:	3b 50 0a 00 	add	#10,	r11	;#0x000a
    c83c:	3a 4b       	mov	@r11+,	r10	
    c83e:	84 3c       	jmp	$+266    	;abs 0xc948
    c840:	7f 90 25 00 	cmp.b	#37,	r15	;#0x0025
    c844:	7e 20       	jnz	$+254    	;abs 0xc942
    c846:	5f 4a 01 00 	mov.b	1(r10),	r15	;0x0001(r10)
    c84a:	2a 53       	incd	r10		
    c84c:	7f 90 6e 00 	cmp.b	#110,	r15	;#0x006e
    c850:	3e 24       	jz	$+126    	;abs 0xc8ce
    c852:	7f 90 6f 00 	cmp.b	#111,	r15	;#0x006f
    c856:	10 34       	jge	$+34     	;abs 0xc878
    c858:	7f 90 69 00 	cmp.b	#105,	r15	;#0x0069
    c85c:	23 24       	jz	$+72     	;abs 0xc8a4
    c85e:	7f 90 6a 00 	cmp.b	#106,	r15	;#0x006a
    c862:	06 34       	jge	$+14     	;abs 0xc870
    c864:	4f 93       	tst.b	r15		
    c866:	73 24       	jz	$+232    	;abs 0xc94e
    c868:	7f 90 63 00 	cmp.b	#99,	r15	;#0x0063
    c86c:	6b 20       	jnz	$+216    	;abs 0xc944
    c86e:	13 3c       	jmp	$+40     	;abs 0xc896
    c870:	7f 90 6c 00 	cmp.b	#108,	r15	;#0x006c
    c874:	67 20       	jnz	$+208    	;abs 0xc944
    c876:	2b 3c       	jmp	$+88     	;abs 0xc8ce
    c878:	7f 90 75 00 	cmp.b	#117,	r15	;#0x0075
    c87c:	13 24       	jz	$+40     	;abs 0xc8a4
    c87e:	7f 90 78 00 	cmp.b	#120,	r15	;#0x0078
    c882:	43 24       	jz	$+136    	;abs 0xc90a
    c884:	7f 90 73 00 	cmp.b	#115,	r15	;#0x0073
    c888:	5d 20       	jnz	$+188    	;abs 0xc944
    c88a:	09 4b       	mov	r11,	r9	
    c88c:	29 53       	incd	r9		
    c88e:	2f 4b       	mov	@r11,	r15	
    c890:	b0 12 66 c7 	call	#0xc766	
    c894:	05 3c       	jmp	$+12     	;abs 0xc8a0
    c896:	09 4b       	mov	r11,	r9	
    c898:	29 53       	incd	r9		
    c89a:	6f 4b       	mov.b	@r11,	r15	
    c89c:	b0 12 58 c9 	call	#0xc958	
    c8a0:	0b 49       	mov	r9,	r11	
    c8a2:	52 3c       	jmp	$+166    	;abs 0xc948
    c8a4:	09 4b       	mov	r11,	r9	
    c8a6:	29 53       	incd	r9		
    c8a8:	2b 4b       	mov	@r11,	r11	
    c8aa:	7f 90 69 00 	cmp.b	#105,	r15	;#0x0069
    c8ae:	08 20       	jnz	$+18     	;abs 0xc8c0
    c8b0:	0b 93       	tst	r11		
    c8b2:	06 34       	jge	$+14     	;abs 0xc8c0
    c8b4:	3b e3       	inv	r11		
    c8b6:	1b 53       	inc	r11		
    c8b8:	7f 40 2d 00 	mov.b	#45,	r15	;#0x002d
    c8bc:	b0 12 58 c9 	call	#0xc958	
    c8c0:	3d 40 70 cf 	mov	#-12432,r13	;#0xcf70
    c8c4:	0e 4b       	mov	r11,	r14	
    c8c6:	0f 43       	clr	r15		
    c8c8:	b0 12 ee c6 	call	#0xc6ee	
    c8cc:	e9 3f       	jmp	$-44     	;abs 0xc8a0
    c8ce:	08 4b       	mov	r11,	r8	
    c8d0:	28 52       	add	#4,	r8	;r2 As==10
    c8d2:	29 4b       	mov	@r11,	r9	
    c8d4:	1b 4b 02 00 	mov	2(r11),	r11	;0x0002(r11)
    c8d8:	7f 90 6c 00 	cmp.b	#108,	r15	;#0x006c
    c8dc:	0e 20       	jnz	$+30     	;abs 0xc8fa
    c8de:	0b 93       	tst	r11		
    c8e0:	0c 34       	jge	$+26     	;abs 0xc8fa
    c8e2:	0c 49       	mov	r9,	r12	
    c8e4:	0d 4b       	mov	r11,	r13	
    c8e6:	3c e3       	inv	r12		
    c8e8:	3d e3       	inv	r13		
    c8ea:	1c 53       	inc	r12		
    c8ec:	0d 63       	adc	r13		
    c8ee:	09 4c       	mov	r12,	r9	
    c8f0:	0b 4d       	mov	r13,	r11	
    c8f2:	7f 40 2d 00 	mov.b	#45,	r15	;#0x002d
    c8f6:	b0 12 58 c9 	call	#0xc958	
    c8fa:	3d 40 5c cf 	mov	#-12452,r13	;#0xcf5c
    c8fe:	0e 49       	mov	r9,	r14	
    c900:	0f 4b       	mov	r11,	r15	
    c902:	b0 12 ee c6 	call	#0xc6ee	
    c906:	0b 48       	mov	r8,	r11	
    c908:	1f 3c       	jmp	$+64     	;abs 0xc948
    c90a:	09 4b       	mov	r11,	r9	
    c90c:	29 53       	incd	r9		
    c90e:	2b 4b       	mov	@r11,	r11	
    c910:	0f 4b       	mov	r11,	r15	
    c912:	8f 10       	swpb	r15		
    c914:	8f 11       	sxt	r15		
    c916:	0f 11       	rra	r15		
    c918:	0f 11       	rra	r15		
    c91a:	0f 11       	rra	r15		
    c91c:	0f 11       	rra	r15		
    c91e:	b0 12 58 c7 	call	#0xc758	
    c922:	0f 4b       	mov	r11,	r15	
    c924:	8f 10       	swpb	r15		
    c926:	8f 11       	sxt	r15		
    c928:	b0 12 58 c7 	call	#0xc758	
    c92c:	0f 4b       	mov	r11,	r15	
    c92e:	0f 11       	rra	r15		
    c930:	0f 11       	rra	r15		
    c932:	0f 11       	rra	r15		
    c934:	0f 11       	rra	r15		
    c936:	b0 12 58 c7 	call	#0xc758	
    c93a:	0f 4b       	mov	r11,	r15	
    c93c:	b0 12 58 c7 	call	#0xc758	
    c940:	af 3f       	jmp	$-160    	;abs 0xc8a0
    c942:	1a 53       	inc	r10		
    c944:	b0 12 58 c9 	call	#0xc958	
    c948:	6f 4a       	mov.b	@r10,	r15	
    c94a:	4f 93       	tst.b	r15		
    c94c:	79 23       	jnz	$-268    	;abs 0xc840
    c94e:	38 41       	pop	r8		
    c950:	39 41       	pop	r9		
    c952:	3a 41       	pop	r10		
    c954:	3b 41       	pop	r11		
    c956:	30 41       	ret			

0000c958 <cio_printc>:
    c958:	b0 12 a4 ca 	call	#0xcaa4	
    c95c:	30 41       	ret			

0000c95e <cio_getc>:
    c95e:	b0 12 b8 ca 	call	#0xcab8	
    c962:	30 41       	ret			

0000c964 <serial_clk_init>:
    c964:	f2 d0 06 00 	bis.b	#6,	&0x0026	;#0x0006
    c968:	26 00 
    c96a:	f2 d0 06 00 	bis.b	#6,	&0x0041	;#0x0006
    c96e:	41 00 
    c970:	f2 d0 80 ff 	bis.b	#-128,	&0x0061	;#0xff80
    c974:	61 00 
    c976:	3e 90 00 12 	cmp	#4608,	r14	;#0x1200
    c97a:	04 20       	jnz	$+10     	;abs 0xc984
    c97c:	3f 90 7a 00 	cmp	#122,	r15	;#0x007a
    c980:	67 20       	jnz	$+208    	;abs 0xca50
    c982:	07 3c       	jmp	$+16     	;abs 0xc992
    c984:	3e 90 00 24 	cmp	#9216,	r14	;#0x2400
    c988:	63 20       	jnz	$+200    	;abs 0xca50
    c98a:	3f 90 f4 00 	cmp	#244,	r15	;#0x00f4
    c98e:	60 20       	jnz	$+194    	;abs 0xca50
    c990:	2a 3c       	jmp	$+86     	;abs 0xc9e6
    c992:	3d 90 00 84 	cmp	#-31744,r13	;#0x8400
    c996:	21 24       	jz	$+68     	;abs 0xc9da
    c998:	3d 90 01 84 	cmp	#-31743,r13	;#0x8401
    c99c:	07 2c       	jc	$+16     	;abs 0xc9ac
    c99e:	3d 90 80 25 	cmp	#9600,	r13	;#0x2580
    c9a2:	38 24       	jz	$+114    	;abs 0xca14
    c9a4:	3d 90 00 4b 	cmp	#19200,	r13	;#0x4b00
    c9a8:	35 20       	jnz	$+108    	;abs 0xca14
    c9aa:	0a 3c       	jmp	$+22     	;abs 0xc9c0
    c9ac:	3d 90 00 c2 	cmp	#-15872,r13	;#0xc200
    c9b0:	42 24       	jz	$+134    	;abs 0xca36
    c9b2:	3d 90 00 e1 	cmp	#-7936,	r13	;#0xe100
    c9b6:	39 24       	jz	$+116    	;abs 0xca2a
    c9b8:	3d 90 00 96 	cmp	#-27136,r13	;#0x9600
    c9bc:	2b 20       	jnz	$+88     	;abs 0xca14
    c9be:	07 3c       	jmp	$+16     	;abs 0xc9ce
    c9c0:	f2 40 1a 00 	mov.b	#26,	&0x0062	;#0x001a
    c9c4:	62 00 
    c9c6:	f2 40 11 00 	mov.b	#17,	&0x0064	;#0x0011
    c9ca:	64 00 
    c9cc:	5a 3c       	jmp	$+182    	;abs 0xca82
    c9ce:	f2 40 0d 00 	mov.b	#13,	&0x0062	;#0x000d
    c9d2:	62 00 
    c9d4:	d2 43 64 00 	mov.b	#1,	&0x0064	;r3 As==01
    c9d8:	54 3c       	jmp	$+170    	;abs 0xca82
    c9da:	e2 43 62 00 	mov.b	#2,	&0x0062	;r3 As==10
    c9de:	f2 40 27 00 	mov.b	#39,	&0x0064	;#0x0027
    c9e2:	64 00 
    c9e4:	4e 3c       	jmp	$+158    	;abs 0xca82
    c9e6:	3d 90 00 84 	cmp	#-31744,r13	;#0x8400
    c9ea:	25 24       	jz	$+76     	;abs 0xca36
    c9ec:	3d 90 01 84 	cmp	#-31743,r13	;#0x8401
    c9f0:	07 2c       	jc	$+16     	;abs 0xca00
    c9f2:	3d 90 80 25 	cmp	#9600,	r13	;#0x2580
    c9f6:	25 24       	jz	$+76     	;abs 0xca42
    c9f8:	3d 90 00 4b 	cmp	#19200,	r13	;#0x4b00
    c9fc:	22 20       	jnz	$+70     	;abs 0xca42
    c9fe:	0a 3c       	jmp	$+22     	;abs 0xca14
    ca00:	3d 90 00 c2 	cmp	#-15872,r13	;#0xc200
    ca04:	12 24       	jz	$+38     	;abs 0xca2a
    ca06:	3d 90 00 e1 	cmp	#-7936,	r13	;#0xe100
    ca0a:	08 24       	jz	$+18     	;abs 0xca1c
    ca0c:	3d 90 00 96 	cmp	#-27136,r13	;#0x9600
    ca10:	18 20       	jnz	$+50     	;abs 0xca42
    ca12:	d6 3f       	jmp	$-82     	;abs 0xc9c0
    ca14:	f2 40 34 00 	mov.b	#52,	&0x0062	;#0x0034
    ca18:	62 00 
    ca1a:	d5 3f       	jmp	$-84     	;abs 0xc9c6
    ca1c:	f2 40 11 00 	mov.b	#17,	&0x0062	;#0x0011
    ca20:	62 00 
    ca22:	f2 40 61 00 	mov.b	#97,	&0x0064	;#0x0061
    ca26:	64 00 
    ca28:	2c 3c       	jmp	$+90     	;abs 0xca82
    ca2a:	f2 42 62 00 	mov.b	#8,	&0x0062	;r2 As==11
    ca2e:	f2 40 b1 ff 	mov.b	#-79,	&0x0064	;#0xffb1
    ca32:	64 00 
    ca34:	26 3c       	jmp	$+78     	;abs 0xca82
    ca36:	e2 42 62 00 	mov.b	#4,	&0x0062	;r2 As==10
    ca3a:	f2 40 3b 00 	mov.b	#59,	&0x0064	;#0x003b
    ca3e:	64 00 
    ca40:	20 3c       	jmp	$+66     	;abs 0xca82
    ca42:	f2 40 68 00 	mov.b	#104,	&0x0062	;#0x0068
    ca46:	62 00 
    ca48:	f2 40 31 00 	mov.b	#49,	&0x0064	;#0x0031
    ca4c:	64 00 
    ca4e:	19 3c       	jmp	$+52     	;abs 0xca82
    ca50:	3d 90 00 4b 	cmp	#19200,	r13	;#0x4b00
    ca54:	0a 24       	jz	$+22     	;abs 0xca6a
    ca56:	3d 90 00 e1 	cmp	#-7936,	r13	;#0xe100
    ca5a:	0e 24       	jz	$+30     	;abs 0xca78
    ca5c:	f2 40 06 00 	mov.b	#6,	&0x0062	;#0x0006
    ca60:	62 00 
    ca62:	f2 40 81 ff 	mov.b	#-127,	&0x0064	;#0xff81
    ca66:	64 00 
    ca68:	0c 3c       	jmp	$+26     	;abs 0xca82
    ca6a:	f2 40 03 00 	mov.b	#3,	&0x0062	;#0x0003
    ca6e:	62 00 
    ca70:	f2 40 41 00 	mov.b	#65,	&0x0064	;#0x0041
    ca74:	64 00 
    ca76:	05 3c       	jmp	$+12     	;abs 0xca82
    ca78:	d2 43 62 00 	mov.b	#1,	&0x0062	;r3 As==01
    ca7c:	f2 40 0f 00 	mov.b	#15,	&0x0064	;#0x000f
    ca80:	64 00 
    ca82:	c2 43 63 00 	mov.b	#0,	&0x0063	;r3 As==00
    ca86:	f2 f0 fe ff 	and.b	#-2,	&0x0061	;#0xfffe
    ca8a:	61 00 
    ca8c:	30 41       	ret			

0000ca8e <serial_init>:
    ca8e:	0d 4f       	mov	r15,	r13	
    ca90:	3e 40 40 42 	mov	#16960,	r14	;#0x4240
    ca94:	3f 40 0f 00 	mov	#15,	r15	;#0x000f
    ca98:	b0 12 64 c9 	call	#0xc964	
    ca9c:	30 41       	ret			

0000ca9e <serial_send>:
    ca9e:	c2 4f 67 00 	mov.b	r15,	&0x0067	
    caa2:	30 41       	ret			

0000caa4 <serial_send_blocking>:
    caa4:	5e 42 03 00 	mov.b	&0x0003,r14	
    caa8:	2e f3       	and	#2,	r14	;r3 As==10
    caaa:	fc 27       	jz	$-6      	;abs 0xcaa4
    caac:	c2 4f 67 00 	mov.b	r15,	&0x0067	
    cab0:	30 41       	ret			

0000cab2 <serial_recv>:
    cab2:	5f 42 66 00 	mov.b	&0x0066,r15	
    cab6:	30 41       	ret			

0000cab8 <serial_recv_blocking>:
    cab8:	5f 42 03 00 	mov.b	&0x0003,r15	
    cabc:	1f f3       	and	#1,	r15	;r3 As==01
    cabe:	fc 27       	jz	$-6      	;abs 0xcab8
    cac0:	5f 42 66 00 	mov.b	&0x0066,r15	
    cac4:	30 41       	ret			

0000cac6 <__mulhi3>:
    cac6:	0d 4f       	mov	r15,	r13	
    cac8:	0f 43       	clr	r15		
    caca:	0e 93       	tst	r14		
    cacc:	07 24       	jz	$+16     	;abs 0xcadc
    cace:	12 c3       	clrc			
    cad0:	0d 10       	rrc	r13		
    cad2:	01 28       	jnc	$+4      	;abs 0xcad6
    cad4:	0f 5e       	add	r14,	r15	
    cad6:	0e 5e       	rla	r14		
    cad8:	0d 93       	tst	r13		
    cada:	f7 23       	jnz	$-16     	;abs 0xcaca
    cadc:	30 41       	ret			

0000cade <__divhi3>:
    cade:	0d 43       	clr	r13		
    cae0:	0f 93       	tst	r15		
    cae2:	04 34       	jge	$+10     	;abs 0xcaec
    cae4:	3d 40 03 00 	mov	#3,	r13	;#0x0003
    cae8:	3f e3       	inv	r15		
    caea:	1f 53       	inc	r15		
    caec:	0e 93       	tst	r14		
    caee:	03 34       	jge	$+8      	;abs 0xcaf6
    caf0:	5d e3       	xor.b	#1,	r13	;r3 As==01
    caf2:	3e e3       	inv	r14		
    caf4:	1e 53       	inc	r14		
    caf6:	0d 12       	push	r13		
    caf8:	b0 12 18 cb 	call	#0xcb18	
    cafc:	3d 41       	pop	r13		
    cafe:	6d b3       	bit.b	#2,	r13	;r3 As==10
    cb00:	02 24       	jz	$+6      	;abs 0xcb06
    cb02:	3e e3       	inv	r14		
    cb04:	1e 53       	inc	r14		
    cb06:	5d b3       	bit.b	#1,	r13	;r3 As==01
    cb08:	02 24       	jz	$+6      	;abs 0xcb0e
    cb0a:	3f e3       	inv	r15		
    cb0c:	1f 53       	inc	r15		
    cb0e:	30 41       	ret			

0000cb10 <__modhi3>:
    cb10:	b0 12 de ca 	call	#0xcade	
    cb14:	0f 4e       	mov	r14,	r15	
    cb16:	30 41       	ret			

0000cb18 <__udivhi3>:
    cb18:	7c 40 10 00 	mov.b	#16,	r12	;#0x0010
    cb1c:	0d 4e       	mov	r14,	r13	
    cb1e:	0e 43       	clr	r14		
    cb20:	0f 5f       	rla	r15		
    cb22:	0e 6e       	rlc	r14		
    cb24:	0e 9d       	cmp	r13,	r14	
    cb26:	02 28       	jnc	$+6      	;abs 0xcb2c
    cb28:	0e 8d       	sub	r13,	r14	
    cb2a:	1f d3       	bis	#1,	r15	;r3 As==01
    cb2c:	1c 83       	dec	r12		
    cb2e:	f8 23       	jnz	$-14     	;abs 0xcb20
    cb30:	30 41       	ret			

0000cb32 <__umodhi3>:
    cb32:	b0 12 18 cb 	call	#0xcb18	
    cb36:	0f 4e       	mov	r14,	r15	
    cb38:	30 41       	ret			

0000cb3a <strncpy>:
    cb3a:	0b 12       	push	r11		
    cb3c:	0d 93       	tst	r13		
    cb3e:	10 24       	jz	$+34     	;abs 0xcb60
    cb40:	0c 4f       	mov	r15,	r12	
    cb42:	7b 4e       	mov.b	@r14+,	r11	
    cb44:	cc 4b 00 00 	mov.b	r11,	0(r12)	;0x0000(r12)
    cb48:	1c 53       	inc	r12		
    cb4a:	4b 93       	tst.b	r11		
    cb4c:	07 20       	jnz	$+16     	;abs 0xcb5c
    cb4e:	03 3c       	jmp	$+8      	;abs 0xcb56
    cb50:	cc 43 00 00 	mov.b	#0,	0(r12)	;r3 As==00, 0x0000(r12)
    cb54:	1c 53       	inc	r12		
    cb56:	3d 53       	add	#-1,	r13	;r3 As==11
    cb58:	fb 23       	jnz	$-8      	;abs 0xcb50
    cb5a:	02 3c       	jmp	$+6      	;abs 0xcb60
    cb5c:	3d 53       	add	#-1,	r13	;r3 As==11
    cb5e:	f1 23       	jnz	$-28     	;abs 0xcb42
    cb60:	3b 41       	pop	r11		
    cb62:	30 41       	ret			

0000cb64 <memset>:
    cb64:	0b 12       	push	r11		
    cb66:	0a 12       	push	r10		
    cb68:	09 12       	push	r9		
    cb6a:	08 12       	push	r8		
    cb6c:	3d 90 06 00 	cmp	#6,	r13	;#0x0006
    cb70:	09 2c       	jc	$+20     	;abs 0xcb84
    cb72:	0c 4f       	mov	r15,	r12	
    cb74:	04 3c       	jmp	$+10     	;abs 0xcb7e
    cb76:	cc 4e 00 00 	mov.b	r14,	0(r12)	;0x0000(r12)
    cb7a:	1c 53       	inc	r12		
    cb7c:	3d 53       	add	#-1,	r13	;r3 As==11
    cb7e:	0d 93       	tst	r13		
    cb80:	fa 23       	jnz	$-10     	;abs 0xcb76
    cb82:	20 3c       	jmp	$+66     	;abs 0xcbc4
    cb84:	4e 4e       	mov.b	r14,	r14	
    cb86:	4b 4e       	mov.b	r14,	r11	
    cb88:	0b 93       	tst	r11		
    cb8a:	03 24       	jz	$+8      	;abs 0xcb92
    cb8c:	0c 4b       	mov	r11,	r12	
    cb8e:	8c 10       	swpb	r12		
    cb90:	0b dc       	bis	r12,	r11	
    cb92:	1f b3       	bit	#1,	r15	;r3 As==01
    cb94:	06 24       	jz	$+14     	;abs 0xcba2
    cb96:	3d 53       	add	#-1,	r13	;r3 As==11
    cb98:	cf 4e 00 00 	mov.b	r14,	0(r15)	;0x0000(r15)
    cb9c:	09 4f       	mov	r15,	r9	
    cb9e:	19 53       	inc	r9		
    cba0:	01 3c       	jmp	$+4      	;abs 0xcba4
    cba2:	09 4f       	mov	r15,	r9	
    cba4:	0c 4d       	mov	r13,	r12	
    cba6:	12 c3       	clrc			
    cba8:	0c 10       	rrc	r12		
    cbaa:	0a 49       	mov	r9,	r10	
    cbac:	08 4c       	mov	r12,	r8	
    cbae:	8a 4b 00 00 	mov	r11,	0(r10)	;0x0000(r10)
    cbb2:	2a 53       	incd	r10		
    cbb4:	38 53       	add	#-1,	r8	;r3 As==11
    cbb6:	fb 23       	jnz	$-8      	;abs 0xcbae
    cbb8:	0c 5c       	rla	r12		
    cbba:	0c 59       	add	r9,	r12	
    cbbc:	1d f3       	and	#1,	r13	;r3 As==01
    cbbe:	02 24       	jz	$+6      	;abs 0xcbc4
    cbc0:	cc 4e 00 00 	mov.b	r14,	0(r12)	;0x0000(r12)
    cbc4:	38 41       	pop	r8		
    cbc6:	39 41       	pop	r9		
    cbc8:	3a 41       	pop	r10		
    cbca:	3b 41       	pop	r11		
    cbcc:	30 41       	ret			

0000cbce <malloc>:
    cbce:	0b 12       	push	r11		
    cbd0:	0a 12       	push	r10		
    cbd2:	09 12       	push	r9		
    cbd4:	08 12       	push	r8		
    cbd6:	07 12       	push	r7		
    cbd8:	06 12       	push	r6		
    cbda:	05 12       	push	r5		
    cbdc:	04 12       	push	r4		
    cbde:	3d 40 91 02 	mov	#657,	r13	;#0x0291
    cbe2:	3d f0 fe ff 	and	#-2,	r13	;#0xfffe
    cbe6:	c2 93 28 02 	tst.b	&0x0228	
    cbea:	05 20       	jnz	$+12     	;abs 0xcbf6
    cbec:	d2 43 28 02 	mov.b	#1,	&0x0228	;r3 As==01
    cbf0:	bd 40 fe ff 	mov	#-2,	0(r13)	;#0xfffe, 0x0000(r13)
    cbf4:	00 00 
    cbf6:	0a 41       	mov	r1,	r10	
    cbf8:	3a 50 d8 ff 	add	#-40,	r10	;#0xffd8
    cbfc:	0c 4f       	mov	r15,	r12	
    cbfe:	1c 53       	inc	r12		
    cc00:	12 c3       	clrc			
    cc02:	0c 10       	rrc	r12		
    cc04:	03 3c       	jmp	$+8      	;abs 0xcc0c
    cc06:	1e 53       	inc	r14		
    cc08:	0e 5e       	rla	r14		
    cc0a:	0d 5e       	add	r14,	r13	
    cc0c:	2f 4d       	mov	@r13,	r15	
    cc0e:	0e 4f       	mov	r15,	r14	
    cc10:	12 c3       	clrc			
    cc12:	0e 10       	rrc	r14		
    cc14:	55 43       	mov.b	#1,	r5	;r3 As==01
    cc16:	3e 90 ff 7f 	cmp	#32767,	r14	;#0x7fff
    cc1a:	01 24       	jz	$+4      	;abs 0xcc1e
    cc1c:	45 43       	clr.b	r5		
    cc1e:	1f f3       	and	#1,	r15	;r3 As==01
    cc20:	4e 20       	jnz	$+158    	;abs 0xccbe
    cc22:	45 93       	tst.b	r5		
    cc24:	16 24       	jz	$+46     	;abs 0xcc52
    cc26:	08 4a       	mov	r10,	r8	
    cc28:	0e 4a       	mov	r10,	r14	
    cc2a:	8e 10       	swpb	r14		
    cc2c:	8e 11       	sxt	r14		
    cc2e:	8e 10       	swpb	r14		
    cc30:	8e 11       	sxt	r14		
    cc32:	09 4e       	mov	r14,	r9	
    cc34:	06 4d       	mov	r13,	r6	
    cc36:	0e 4d       	mov	r13,	r14	
    cc38:	8e 10       	swpb	r14		
    cc3a:	8e 11       	sxt	r14		
    cc3c:	8e 10       	swpb	r14		
    cc3e:	8e 11       	sxt	r14		
    cc40:	07 4e       	mov	r14,	r7	
    cc42:	0e 48       	mov	r8,	r14	
    cc44:	0f 49       	mov	r9,	r15	
    cc46:	0e 86       	sub	r6,	r14	
    cc48:	0f 77       	subc	r7,	r15	
    cc4a:	0f 11       	rra	r15		
    cc4c:	0e 10       	rrc	r14		
    cc4e:	3e 53       	add	#-1,	r14	;r3 As==11
    cc50:	18 3c       	jmp	$+50     	;abs 0xcc82
    cc52:	04 4e       	mov	r14,	r4	
    cc54:	14 53       	inc	r4		
    cc56:	0b 44       	mov	r4,	r11	
    cc58:	0b 5b       	rla	r11		
    cc5a:	0b 5d       	add	r13,	r11	
    cc5c:	2f 4b       	mov	@r11,	r15	
    cc5e:	1f b3       	bit	#1,	r15	;r3 As==01
    cc60:	10 20       	jnz	$+34     	;abs 0xcc82
    cc62:	0e 4f       	mov	r15,	r14	
    cc64:	3e f0 fe ff 	and	#-2,	r14	;#0xfffe
    cc68:	3e 90 fe ff 	cmp	#-2,	r14	;#0xfffe
    cc6c:	05 24       	jz	$+12     	;abs 0xcc78
    cc6e:	12 c3       	clrc			
    cc70:	0f 10       	rrc	r15		
    cc72:	0f 54       	add	r4,	r15	
    cc74:	0f 5f       	rla	r15		
    cc76:	02 3c       	jmp	$+6      	;abs 0xcc7c
    cc78:	3f 40 fe ff 	mov	#-2,	r15	;#0xfffe
    cc7c:	8d 4f 00 00 	mov	r15,	0(r13)	;0x0000(r13)
    cc80:	c5 3f       	jmp	$-116    	;abs 0xcc0c
    cc82:	0e 9c       	cmp	r12,	r14	
    cc84:	1c 28       	jnc	$+58     	;abs 0xccbe
    cc86:	0f 4c       	mov	r12,	r15	
    cc88:	1f 53       	inc	r15		
    cc8a:	0f 5f       	rla	r15		
    cc8c:	0f 5d       	add	r13,	r15	
    cc8e:	0a 9f       	cmp	r15,	r10	
    cc90:	18 28       	jnc	$+50     	;abs 0xccc2
    cc92:	45 93       	tst.b	r5		
    cc94:	04 24       	jz	$+10     	;abs 0xcc9e
    cc96:	bf 40 fe ff 	mov	#-2,	0(r15)	;#0xfffe, 0x0000(r15)
    cc9a:	00 00 
    cc9c:	09 3c       	jmp	$+20     	;abs 0xccb0
    cc9e:	0e 9c       	cmp	r12,	r14	
    cca0:	07 24       	jz	$+16     	;abs 0xccb0
    cca2:	0b 4c       	mov	r12,	r11	
    cca4:	3b e3       	inv	r11		
    cca6:	0b 5e       	add	r14,	r11	
    cca8:	8f 4b 00 00 	mov	r11,	0(r15)	;0x0000(r15)
    ccac:	af 5f 00 00 	add	@r15,	0(r15)	;0x0000(r15)
    ccb0:	0c 5c       	rla	r12		
    ccb2:	1c d3       	bis	#1,	r12	;r3 As==01
    ccb4:	8d 4c 00 00 	mov	r12,	0(r13)	;0x0000(r13)
    ccb8:	0f 4d       	mov	r13,	r15	
    ccba:	2f 53       	incd	r15		
    ccbc:	03 3c       	jmp	$+8      	;abs 0xccc4
    ccbe:	45 93       	tst.b	r5		
    ccc0:	a2 27       	jz	$-186    	;abs 0xcc06
    ccc2:	0f 43       	clr	r15		
    ccc4:	34 41       	pop	r4		
    ccc6:	35 41       	pop	r5		
    ccc8:	36 41       	pop	r6		
    ccca:	37 41       	pop	r7		
    cccc:	38 41       	pop	r8		
    ccce:	39 41       	pop	r9		
    ccd0:	3a 41       	pop	r10		
    ccd2:	3b 41       	pop	r11		
    ccd4:	30 41       	ret			

0000ccd6 <free>:
    ccd6:	bf f0 fe ff 	and	#-2,	-2(r15)	;#0xfffe, 0xfffe(r15)
    ccda:	fe ff 
    ccdc:	30 41       	ret			

0000ccde <atoi>:
    ccde:	0b 12       	push	r11		
    cce0:	0e 4f       	mov	r15,	r14	
    cce2:	01 3c       	jmp	$+4      	;abs 0xcce6
    cce4:	1e 53       	inc	r14		
    cce6:	6f 4e       	mov.b	@r14,	r15	
    cce8:	7f 90 20 00 	cmp.b	#32,	r15	;#0x0020
    ccec:	fb 27       	jz	$-8      	;abs 0xcce4
    ccee:	7f 90 09 00 	cmp.b	#9,	r15	;#0x0009
    ccf2:	f8 27       	jz	$-14     	;abs 0xcce4
    ccf4:	7f 90 0a 00 	cmp.b	#10,	r15	;#0x000a
    ccf8:	f5 27       	jz	$-20     	;abs 0xcce4
    ccfa:	7f 90 0c 00 	cmp.b	#12,	r15	;#0x000c
    ccfe:	f2 27       	jz	$-26     	;abs 0xcce4
    cd00:	7f 90 0d 00 	cmp.b	#13,	r15	;#0x000d
    cd04:	ef 27       	jz	$-32     	;abs 0xcce4
    cd06:	7f 90 0b 00 	cmp.b	#11,	r15	;#0x000b
    cd0a:	ec 27       	jz	$-38     	;abs 0xcce4
    cd0c:	7f 90 2d 00 	cmp.b	#45,	r15	;#0x002d
    cd10:	03 20       	jnz	$+8      	;abs 0xcd18
    cd12:	1e 53       	inc	r14		
    cd14:	1b 43       	mov	#1,	r11	;r3 As==01
    cd16:	05 3c       	jmp	$+12     	;abs 0xcd22
    cd18:	7f 90 2b 00 	cmp.b	#43,	r15	;#0x002b
    cd1c:	01 20       	jnz	$+4      	;abs 0xcd20
    cd1e:	1e 53       	inc	r14		
    cd20:	0b 43       	clr	r11		
    cd22:	6f 4e       	mov.b	@r14,	r15	
    cd24:	8f 11       	sxt	r15		
    cd26:	3f 50 d0 ff 	add	#-48,	r15	;#0xffd0
    cd2a:	3f 90 0a 00 	cmp	#10,	r15	;#0x000a
    cd2e:	19 2c       	jc	$+52     	;abs 0xcd62
    cd30:	0d 43       	clr	r13		
    cd32:	7c 4e       	mov.b	@r14+,	r12	
    cd34:	8c 11       	sxt	r12		
    cd36:	0f 4c       	mov	r12,	r15	
    cd38:	3f 50 d0 ff 	add	#-48,	r15	;#0xffd0
    cd3c:	0f 5d       	add	r13,	r15	
    cd3e:	6d 4e       	mov.b	@r14,	r13	
    cd40:	8d 11       	sxt	r13		
    cd42:	3d 50 d0 ff 	add	#-48,	r13	;#0xffd0
    cd46:	3d 90 0a 00 	cmp	#10,	r13	;#0x000a
    cd4a:	06 2c       	jc	$+14     	;abs 0xcd58
    cd4c:	0f 5f       	rla	r15		
    cd4e:	0d 4f       	mov	r15,	r13	
    cd50:	0d 5d       	rla	r13		
    cd52:	0d 5d       	rla	r13		
    cd54:	0d 5f       	add	r15,	r13	
    cd56:	ed 3f       	jmp	$-36     	;abs 0xcd32
    cd58:	0b 93       	tst	r11		
    cd5a:	04 24       	jz	$+10     	;abs 0xcd64
    cd5c:	3f e3       	inv	r15		
    cd5e:	1f 53       	inc	r15		
    cd60:	01 3c       	jmp	$+4      	;abs 0xcd64
    cd62:	0f 43       	clr	r15		
    cd64:	3b 41       	pop	r11		
    cd66:	30 41       	ret			

0000cd68 <_unexpected_>:
    cd68:	00 13       	reti			

Disassembly of section .rodata:

0000cd6a <_dv-0x1f2>:
    cd6a:	2d 20       	jnz	$+92     	;abs 0xcdc6
    cd6c:	25 73       	subc	#2,	r5	;r3 As==10
    cd6e:	20 25       	jz	$+578    	;abs 0xcfb0
    cd70:	69 20       	jnz	$+212    	;abs 0xce44
    cd72:	25 69       	addc	@r9,	r5	
    cd74:	20 0a       	.word	0x0a20;	????	
    cd76:	0d 00       	.word	0x000d;	????	
    cd78:	53 74       	.word	0x7453;	????	Illegal as 2-op instr
    cd7a:	61 63       	addc.b	#2,	r1	;r3 As==10
    cd7c:	6b 20       	jnz	$+216    	;abs 0xce54
    cd7e:	69 73       	subc.b	#2,	r9	;r3 As==10
    cd80:	20 65       	addc	@r5,	r0	
    cd82:	6d 70       	subc.b	@r0,	r13	
    cd84:	74 79       	subc.b	@r9+,	r4	
    cd86:	00 61       	addc	r1,	r0	
    cd88:	72 67       	addc.b	@r7+,	r2	
    cd8a:	73 20       	jnz	$+232    	;abs 0xce72
    cd8c:	67 69       	addc.b	@r9,	r7	
    cd8e:	76 65       	addc.b	@r5+,	r6	
    cd90:	6e 3a       	jl	$-802    	;abs 0xca6e
    cd92:	0a 0d       	.word	0x0d0a;	????	
    cd94:	00 20       	jnz	$+2      	;abs 0xcd96
    cd96:	2d 20       	jnz	$+92     	;abs 0xcdf2
    cd98:	25 73       	subc	#2,	r5	;r3 As==10
    cd9a:	0a 0d       	.word	0x0d0a;	????	
    cd9c:	00 25       	jz	$+514    	;abs 0xcf9e
    cd9e:	73 3a       	jl	$-792    	;abs 0xca86
    cda0:	20 25       	jz	$+578    	;abs 0xcfe2
    cda2:	73 0a       	.word	0x0a73;	????	
    cda4:	0d 00       	.word	0x000d;	????	
    cda6:	45 6d       	addc.b	r13,	r5	
    cda8:	70 74       	subc.b	@r4+,	r0	
    cdaa:	79 20       	jnz	$+244    	;abs 0xce9e
    cdac:	73 74       	.word	0x7473;	????	Illegal as 2-op instr
    cdae:	61 63       	addc.b	#2,	r1	;r3 As==10
    cdb0:	6b 2c       	jc	$+216    	;abs 0xce88
    cdb2:	20 63       	addc	#2,	r0	;r3 As==10
    cdb4:	61 6e       	addc.b	@r14,	r1	
    cdb6:	6e 6f       	addc.b	@r15,	r14	
    cdb8:	74 20       	jnz	$+234    	;abs 0xcea2
    cdba:	72 65       	addc.b	@r5+,	r2	
    cdbc:	6d 6f       	addc.b	@r15,	r13	
    cdbe:	76 65       	addc.b	@r5+,	r6	
    cdc0:	00 25       	jz	$+514    	;abs 0xcfc2
    cdc2:	73 20       	jnz	$+232    	;abs 0xceaa
    cdc4:	3a 20       	jnz	$+118    	;abs 0xce3a
    cdc6:	24 25       	jz	$+586    	;abs 0xd010
    cdc8:	69 2e       	jc	$-812    	;abs 0xca9c
    cdca:	25 69       	addc	@r9,	r5	
    cdcc:	00 46       	br	r6		
    cdce:	75 6c       	addc.b	@r12+,	r5	
    cdd0:	6c 20       	jnz	$+218    	;abs 0xceaa
    cdd2:	73 74       	.word	0x7473;	????	Illegal as 2-op instr
    cdd4:	61 63       	addc.b	#2,	r1	;r3 As==10
    cdd6:	6b 20       	jnz	$+216    	;abs 0xceae
    cdd8:	63 61       	.word	0x6163;	????	Illegal as 2-op instr
    cdda:	6e 6e       	addc.b	@r14,	r14	
    cddc:	6f 74       	subc.b	@r4,	r15	
    cdde:	20 61       	addc	@r1,	r0	
    cde0:	64 64       	addc.b	@r4,	r4	
    cde2:	20 6d       	addc	@r13,	r0	
    cde4:	6f 72       	subc.b	#4,	r15	;r2 As==10
    cde6:	65 00       	.word	0x0065;	????	
    cde8:	24 20       	jnz	$+74     	;abs 0xce32
    cdea:	00 0a       	.word	0x0a00;	????	
    cdec:	0a 0d       	.word	0x0d0a;	????	
    cdee:	00 45       	br	r5		
    cdf0:	52 52 4f 52 	add.b	&0x524f,r2	
    cdf4:	2c 20       	jnz	$+90     	;abs 0xce4e
    cdf6:	75 6e       	addc.b	@r14+,	r5	
    cdf8:	6b 6e       	addc.b	@r14,	r11	
    cdfa:	6f 77       	subc.b	@r7,	r15	
    cdfc:	6e 20       	jnz	$+222    	;abs 0xceda
    cdfe:	63 6f       	.word	0x6f63;	????	Illegal as 2-op instr
    ce00:	6d 6d       	addc.b	@r13,	r13	
    ce02:	61 6e       	addc.b	@r14,	r1	
    ce04:	64 20       	jnz	$+202    	;abs 0xcece
    ce06:	67 69       	addc.b	@r9,	r7	
    ce08:	76 65       	addc.b	@r5+,	r6	
    ce0a:	6e 0a       	.word	0x0a6e;	????	
    ce0c:	0d 00       	.word	0x000d;	????	
    ce0e:	45 52       	add.b	r2,	r5	
    ce10:	52 4f 52 2c 	mov.b	11346(r15),r2	;0x2c52(r15)
    ce14:	20 61       	addc	@r1,	r0	
    ce16:	6e 20       	jnz	$+222    	;abs 0xcef4
    ce18:	61 72       	subc.b	#4,	r1	;r2 As==10
    ce1a:	67 75       	subc.b	@r5,	r7	
    ce1c:	65 6d       	addc.b	@r13,	r5	
    ce1e:	65 6e       	addc.b	@r14,	r5	
    ce20:	74 20       	jnz	$+234    	;abs 0xcf0a
    ce22:	69 73       	subc.b	#2,	r9	;r3 As==10
    ce24:	20 74       	subc	@r4,	r0	
    ce26:	6f 6f       	addc.b	@r15,	r15	
    ce28:	20 6c       	addc	@r12,	r0	
    ce2a:	65 6e       	addc.b	@r14,	r5	
    ce2c:	67 74       	subc.b	@r4,	r7	
    ce2e:	68 79       	subc.b	@r9,	r8	
    ce30:	0a 0d       	.word	0x0d0a;	????	
    ce32:	00 45       	br	r5		
    ce34:	52 52 4f 52 	add.b	&0x524f,r2	
    ce38:	2c 20       	jnz	$+90     	;abs 0xce92
    ce3a:	74 6f       	addc.b	@r15+,	r4	
    ce3c:	6f 20       	jnz	$+224    	;abs 0xcf1c
    ce3e:	6d 61       	addc.b	@r1,	r13	
    ce40:	6e 79       	subc.b	@r9,	r14	
    ce42:	20 61       	addc	@r1,	r0	
    ce44:	72 67       	addc.b	@r7+,	r2	
    ce46:	75 65       	addc.b	@r5+,	r5	
    ce48:	6d 65       	addc.b	@r5,	r13	
    ce4a:	6e 74       	subc.b	@r4,	r14	
    ce4c:	73 20       	jnz	$+232    	;abs 0xcf34
    ce4e:	67 69       	addc.b	@r9,	r7	
    ce50:	76 65       	addc.b	@r5+,	r6	
    ce52:	6e 0a       	.word	0x0a6e;	????	
    ce54:	0d 00       	.word	0x000d;	????	
    ce56:	0a 00       	.word	0x000a;	????	
    ce58:	68 65       	addc.b	@r5,	r8	
    ce5a:	6c 70       	subc.b	@r0,	r12	
    ce5c:	00 6c       	addc	r12,	r0	
    ce5e:	69 73       	subc.b	#2,	r9	;r3 As==10
    ce60:	74 20       	jnz	$+234    	;abs 0xcf4a
    ce62:	61 76       	subc.b	@r6,	r1	
    ce64:	61 69       	addc.b	@r9,	r1	
    ce66:	6c 61       	addc.b	@r1,	r12	
    ce68:	62 6c       	addc.b	@r12,	r2	
    ce6a:	65 20       	jnz	$+204    	;abs 0xcf36
    ce6c:	63 6f       	.word	0x6f63;	????	Illegal as 2-op instr
    ce6e:	6d 6d       	addc.b	@r13,	r13	
    ce70:	61 6e       	addc.b	@r14,	r1	
    ce72:	64 73       	subc.b	#2,	r4	;r3 As==10
    ce74:	00 61       	addc	r1,	r0	
    ce76:	72 67       	addc.b	@r7+,	r2	
    ce78:	73 00       	.word	0x0073;	????	
    ce7a:	70 72       	subc.b	#8,	r0	;r2 As==11
    ce7c:	69 6e       	addc.b	@r14,	r9	
    ce7e:	74 20       	jnz	$+234    	;abs 0xcf68
    ce80:	62 61       	addc.b	@r1,	r2	
    ce82:	63 6b       	.word	0x6b63;	????	Illegal as 2-op instr
    ce84:	20 67       	addc	@r7,	r0	
    ce86:	69 76       	subc.b	@r6,	r9	
    ce88:	65 6e       	addc.b	@r14,	r5	
    ce8a:	20 61       	addc	@r1,	r0	
    ce8c:	72 67       	addc.b	@r7+,	r2	
    ce8e:	75 6d       	addc.b	@r13+,	r5	
    ce90:	65 6e       	addc.b	@r14,	r5	
    ce92:	74 73       	subc.b	#-1,	r4	;r3 As==11
    ce94:	00 70       	subc	r0,	r0	
    ce96:	75 73       	subc.b	#-1,	r5	;r3 As==11
    ce98:	68 00       	.word	0x0068;	????	
    ce9a:	61 64       	addc.b	@r4,	r1	
    ce9c:	64 20       	jnz	$+202    	;abs 0xcf66
    ce9e:	61 20       	jnz	$+196    	;abs 0xcf62
    cea0:	62 6f       	addc.b	@r15,	r2	
    cea2:	78 20       	jnz	$+242    	;abs 0xcf94
    cea4:	6f 66       	addc.b	@r6,	r15	
    cea6:	20 69       	addc	@r9,	r0	
    cea8:	74 65       	addc.b	@r5+,	r4	
    ceaa:	6d 73       	subc.b	#2,	r13	;r3 As==10
    ceac:	20 74       	subc	@r4,	r0	
    ceae:	6f 20       	jnz	$+224    	;abs 0xcf8e
    ceb0:	74 68       	addc.b	@r8+,	r4	
    ceb2:	65 20       	jnz	$+204    	;abs 0xcf7e
    ceb4:	74 6f       	addc.b	@r15+,	r4	
    ceb6:	70 20       	jnz	$+226    	;abs 0xcf98
    ceb8:	6f 66       	addc.b	@r6,	r15	
    ceba:	20 74       	subc	@r4,	r0	
    cebc:	68 65       	addc.b	@r5,	r8	
    cebe:	20 73       	subc	#2,	r0	;r3 As==10
    cec0:	74 61       	addc.b	@r1+,	r4	
    cec2:	63 6b       	.word	0x6b63;	????	Illegal as 2-op instr
    cec4:	00 70       	subc	r0,	r0	
    cec6:	6f 70       	subc.b	@r0,	r15	
    cec8:	00 72       	subc	r2,	r0	
    ceca:	65 6d       	addc.b	@r13,	r5	
    cecc:	6f 76       	subc.b	@r6,	r15	
    cece:	65 20       	jnz	$+204    	;abs 0xcf9a
    ced0:	61 20       	jnz	$+196    	;abs 0xcf94
    ced2:	62 6f       	addc.b	@r15,	r2	
    ced4:	78 20       	jnz	$+242    	;abs 0xcfc6
    ced6:	6f 66       	addc.b	@r6,	r15	
    ced8:	20 69       	addc	@r9,	r0	
    ceda:	74 65       	addc.b	@r5+,	r4	
    cedc:	6d 73       	subc.b	#2,	r13	;r3 As==10
    cede:	20 66       	addc	@r6,	r0	
    cee0:	72 6f       	addc.b	@r15+,	r2	
    cee2:	6d 20       	jnz	$+220    	;abs 0xcfbe
    cee4:	74 68       	addc.b	@r8+,	r4	
    cee6:	65 20       	jnz	$+204    	;abs 0xcfb2
    cee8:	74 6f       	addc.b	@r15+,	r4	
    ceea:	70 20       	jnz	$+226    	;abs 0xcfcc
    ceec:	6f 66       	addc.b	@r6,	r15	
    ceee:	20 74       	subc	@r4,	r0	
    cef0:	68 65       	addc.b	@r5,	r8	
    cef2:	20 73       	subc	#2,	r0	;r3 As==10
    cef4:	74 61       	addc.b	@r1+,	r4	
    cef6:	63 6b       	.word	0x6b63;	????	Illegal as 2-op instr
    cef8:	00 73       	sbc	r0		
    cefa:	65 6c       	addc.b	@r12,	r5	
    cefc:	6c 00       	.word	0x006c;	????	
    cefe:	73 65       	.word	0x6573;	????	Illegal as 2-op instr
    cf00:	6c 6c       	addc.b	@r12,	r12	
    cf02:	20 74       	subc	@r4,	r0	
    cf04:	68 65       	addc.b	@r5,	r8	
    cf06:	20 74       	subc	@r4,	r0	
    cf08:	6f 70       	subc.b	@r0,	r15	
    cf0a:	20 62       	addc	#4,	r0	;r2 As==10
    cf0c:	6f 78       	subc.b	@r8,	r15	
    cf0e:	20 6f       	addc	@r15,	r0	
    cf10:	6e 20       	jnz	$+222    	;abs 0xcfee
    cf12:	74 68       	addc.b	@r8+,	r4	
    cf14:	65 20       	jnz	$+204    	;abs 0xcfe0
    cf16:	73 74       	.word	0x7473;	????	Illegal as 2-op instr
    cf18:	61 63       	addc.b	#2,	r1	;r3 As==10
    cf1a:	6b 2c       	jc	$+216    	;abs 0xcff2
    cf1c:	20 73       	subc	#2,	r0	;r3 As==10
    cf1e:	68 6f       	addc.b	@r15,	r8	
    cf20:	77 69       	addc.b	@r9+,	r7	
    cf22:	6e 67       	addc.b	@r7,	r14	
    cf24:	20 69       	addc	@r9,	r0	
    cf26:	74 73       	subc.b	#-1,	r4	;r3 As==11
    cf28:	20 63       	addc	#2,	r0	;r3 As==10
    cf2a:	6f 73       	subc.b	#2,	r15	;r3 As==10
    cf2c:	74 00       	.word	0x0074;	????	
    cf2e:	73 68       	.word	0x6873;	????	Illegal as 2-op instr
    cf30:	6f 77       	subc.b	@r7,	r15	
    cf32:	00 64       	addc	r4,	r0	
    cf34:	69 73       	subc.b	#2,	r9	;r3 As==10
    cf36:	70 6c       	addc.b	@r12+,	r0	
    cf38:	61 79       	subc.b	@r9,	r1	
    cf3a:	20 74       	subc	@r4,	r0	
    cf3c:	68 65       	addc.b	@r5,	r8	
    cf3e:	20 63       	addc	#2,	r0	;r3 As==10
    cf40:	6f 6e       	addc.b	@r14,	r15	
    cf42:	74 65       	addc.b	@r5+,	r4	
    cf44:	6e 74       	subc.b	@r4,	r14	
    cf46:	73 20       	jnz	$+232    	;abs 0xd02e
    cf48:	6f 66       	addc.b	@r6,	r15	
    cf4a:	20 74       	subc	@r4,	r0	
    cf4c:	68 65       	addc.b	@r5,	r8	
    cf4e:	20 77       	subc	@r7,	r0	
    cf50:	68 6f       	addc.b	@r15,	r8	
    cf52:	6c 65       	addc.b	@r5,	r12	
    cf54:	20 73       	subc	#2,	r0	;r3 As==10
    cf56:	74 61       	addc.b	@r1+,	r4	
    cf58:	63 6b       	.word	0x6b63;	????	Illegal as 2-op instr
	...

0000cf5c <_dv>:
    cf5c:	00 ca       	bic	r10,	r0	
    cf5e:	9a 3b       	jl	$-202    	;abs 0xce94
    cf60:	00 e1       	xor	r1,	r0	
    cf62:	f5 05       	.word	0x05f5;	????	
    cf64:	80 96 98 00 	cmp	r6,	152(r0)	;PC rel. 0xcffe
    cf68:	40 42       	br	r2		
    cf6a:	0f 00       	.word	0x000f;	????	
    cf6c:	a0 86 01 00 	sub	@r6,	1(r0)	;PC rel. 0xcf6f
    cf70:	10 27       	jz	$-478    	;abs 0xcd92
    cf72:	00 00       	.word	0x0000;	????	
    cf74:	e8 03       	.word	0x03e8;	????	
    cf76:	00 00       	.word	0x0000;	????	
    cf78:	64 00       	.word	0x0064;	????	
    cf7a:	00 00       	.word	0x0000;	????	
    cf7c:	0a 00       	.word	0x000a;	????	
    cf7e:	00 00       	.word	0x0000;	????	
    cf80:	01 00       	.word	0x0001;	????	
	...

0000cf84 <hex.1308>:
    cf84:	30 31       	jn	$+610    	;abs 0xd1e6
    cf86:	32 33       	jn	$-410    	;abs 0xcdec
    cf88:	34 35       	jge	$+618    	;abs 0xd1f2
    cf8a:	36 37       	jge	$-402    	;abs 0xcdf8
    cf8c:	38 39       	jl	$+626    	;abs 0xd1fe
    cf8e:	41 42       	mov.b	r2,	r1	
    cf90:	43 44       	.word	0x4443;	????	Illegal as 2-op instr
    cf92:	45 46       	mov.b	r6,	r5	

Disassembly of section .data:

00000200 <__data_start>:
 200:	06 00       	.word	0x0006;	????	
 202:	58 ce 5d ce 	bic.b	-12707(r14),r8	;0xce5d(r14)
 206:	b6 c1 75 ce 	bic	@r1+,	-12683(r6);0xce75(r6)
 20a:	7a ce       	bic.b	@r14+,	r10	
 20c:	76 c1       	bic.b	@r1+,	r6	
 20e:	95 ce 9a ce 	bic	-12646(r14),-15440(r5);0xce9a(r14), 0xc3b0(r5)
 212:	b0 c3 
 214:	c5 ce c9 ce 	bic.b	r14,	-12599(r5);0xcec9(r5)
 218:	ee c1 f9 ce 	bic.b	@r1,	-12551(r14);0xcef9(r14)
 21c:	fe ce 88 c2 	bic.b	@r14+,	-15736(r14);0xc288(r14)
 220:	2e cf       	bic	@r15,	r14	
 222:	33 cf       	.word	0xcf33;	????	Illegal as 2-op instr
 224:	28 c1       	bic	@r1,	r8	

Disassembly of section .bss:

00000226 <__bss_start>:
	...

00000228 <once.1420>:
	...

0000022a <cmd_line>:
	...

00000284 <stack>:
	...

Disassembly of section .noinit:

0000028e <__wdt_clear_value>:
	...

Disassembly of section .vectors:

0000ffe0 <__ivtbl_16>:
    ffe0:	24 c1       	bic	@r1,	r4	
    ffe2:	24 c1       	bic	@r1,	r4	
    ffe4:	ea c4 24 c1 	bic.b	@r4,	-16092(r10);0xc124(r10)
    ffe8:	24 c1       	bic	@r1,	r4	
    ffea:	24 c1       	bic	@r1,	r4	
    ffec:	24 c1       	bic	@r1,	r4	
    ffee:	24 c1       	bic	@r1,	r4	
    fff0:	24 c1       	bic	@r1,	r4	
    fff2:	24 c1       	bic	@r1,	r4	
    fff4:	24 c1       	bic	@r1,	r4	
    fff6:	24 c1       	bic	@r1,	r4	
    fff8:	24 c1       	bic	@r1,	r4	
    fffa:	24 c1       	bic	@r1,	r4	
    fffc:	24 c1       	bic	@r1,	r4	
    fffe:	00 c0       	bic	r0,	r0	

Disassembly of section .debug_aranges:

00000000 <.debug_aranges>:
   0:	14 00       	.word	0x0014;	????	
   2:	00 00       	.word	0x0000;	????	
   4:	02 00       	.word	0x0002;	????	
   6:	00 00       	.word	0x0000;	????	
   8:	00 00       	.word	0x0000;	????	
   a:	02 00       	.word	0x0002;	????	
   c:	28 c1       	bic	@r1,	r8	
   e:	04 04       	.word	0x0404;	????	
  10:	3e c0 e0 00 	bic	#224,	r14	;#0x00e0
  14:	00 00       	.word	0x0000;	????	
  16:	00 00       	.word	0x0000;	????	
  18:	10 00       	.word	0x0010;	????	
  1a:	00 00       	.word	0x0000;	????	
  1c:	02 00       	.word	0x0002;	????	
  1e:	d3 05       	.word	0x05d3;	????	
  20:	00 00       	.word	0x0000;	????	
  22:	02 00       	.word	0x0002;	????	
  24:	2c c5       	bic	@r5,	r12	
  26:	c2 01       	.word	0x01c2;	????	
  28:	00 00       	.word	0x0000;	????	
  2a:	00 00       	.word	0x0000;	????	
  2c:	10 00       	.word	0x0010;	????	
  2e:	00 00       	.word	0x0000;	????	
  30:	02 00       	.word	0x0002;	????	
  32:	12 09       	.word	0x0912;	????	
  34:	00 00       	.word	0x0000;	????	
  36:	02 00       	.word	0x0002;	????	
  38:	ee c6 6a 02 	bic.b	@r6,	618(r14);0x026a(r14)
  3c:	00 00       	.word	0x0000;	????	
  3e:	00 00       	.word	0x0000;	????	
  40:	10 00       	.word	0x0010;	????	
  42:	00 00       	.word	0x0000;	????	
  44:	02 00       	.word	0x0002;	????	
  46:	66 0b       	.word	0x0b66;	????	
  48:	00 00       	.word	0x0000;	????	
  4a:	02 00       	.word	0x0002;	????	
  4c:	58 c9 0c 00 	bic.b	12(r9),	r8	;0x000c(r9)
  50:	00 00       	.word	0x0000;	????	
  52:	00 00       	.word	0x0000;	????	
  54:	10 00       	.word	0x0010;	????	
  56:	00 00       	.word	0x0000;	????	
  58:	02 00       	.word	0x0002;	????	
  5a:	c4 0b       	.word	0x0bc4;	????	
  5c:	00 00       	.word	0x0000;	????	
  5e:	02 00       	.word	0x0002;	????	
  60:	64 c9       	bic.b	@r9,	r4	
  62:	62 01       	.word	0x0162;	????	
  64:	00 00       	.word	0x0000;	????	
  66:	00 00       	.word	0x0000;	????	
  68:	10 00       	.word	0x0010;	????	
  6a:	00 00       	.word	0x0000;	????	
  6c:	02 00       	.word	0x0002;	????	
  6e:	8b 0d       	.word	0x0d8b;	????	
  70:	00 00       	.word	0x0000;	????	
  72:	02 00       	.word	0x0002;	????	
  74:	c6 ca 18 00 	bic.b	r10,	24(r6)	;0x0018(r6)
  78:	00 00       	.word	0x0000;	????	
  7a:	00 00       	.word	0x0000;	????	
  7c:	10 00       	.word	0x0010;	????	
  7e:	00 00       	.word	0x0000;	????	
  80:	02 00       	.word	0x0002;	????	
  82:	13 0e       	.word	0x0e13;	????	
  84:	00 00       	.word	0x0000;	????	
  86:	02 00       	.word	0x0002;	????	
  88:	de ca 3a 00 	bic.b	58(r10),0(r14)	;0x003a(r10), 0x0000(r14)
  8c:	00 00 
  8e:	00 00       	.word	0x0000;	????	
  90:	10 00       	.word	0x0010;	????	
  92:	00 00       	.word	0x0000;	????	
  94:	02 00       	.word	0x0002;	????	
  96:	9b 0e       	.word	0x0e9b;	????	
  98:	00 00       	.word	0x0000;	????	
  9a:	02 00       	.word	0x0002;	????	
  9c:	18 cb 22 00 	bic	34(r11),r8	;0x0022(r11)
  a0:	00 00       	.word	0x0000;	????	
  a2:	00 00       	.word	0x0000;	????	
  a4:	10 00       	.word	0x0010;	????	
  a6:	00 00       	.word	0x0000;	????	
  a8:	02 00       	.word	0x0002;	????	
  aa:	23 0f       	.word	0x0f23;	????	
  ac:	00 00       	.word	0x0000;	????	
  ae:	02 00       	.word	0x0002;	????	
  b0:	3a cb       	bic	@r11+,	r10	
  b2:	2a 00       	.word	0x002a;	????	
  b4:	00 00       	.word	0x0000;	????	
  b6:	00 00       	.word	0x0000;	????	
  b8:	10 00       	.word	0x0010;	????	
  ba:	00 00       	.word	0x0000;	????	
  bc:	02 00       	.word	0x0002;	????	
  be:	04 10       	rrc	r4		
  c0:	00 00       	.word	0x0000;	????	
  c2:	02 00       	.word	0x0002;	????	
  c4:	64 cb       	bic.b	@r11,	r4	
  c6:	6a 00       	.word	0x006a;	????	
  c8:	00 00       	.word	0x0000;	????	
  ca:	00 00       	.word	0x0000;	????	
  cc:	10 00       	.word	0x0010;	????	
  ce:	00 00       	.word	0x0000;	????	
  d0:	02 00       	.word	0x0002;	????	
  d2:	02 11       	rra	r2		
  d4:	00 00       	.word	0x0000;	????	
  d6:	02 00       	.word	0x0002;	????	
  d8:	ce cb 10 01 	bic.b	r11,	272(r14);0x0110(r14)
  dc:	00 00       	.word	0x0000;	????	
  de:	00 00       	.word	0x0000;	????	
  e0:	10 00       	.word	0x0010;	????	
  e2:	00 00       	.word	0x0000;	????	
  e4:	02 00       	.word	0x0002;	????	
  e6:	53 12       	push.b	#1		;r3 As==01
  e8:	00 00       	.word	0x0000;	????	
  ea:	02 00       	.word	0x0002;	????	
  ec:	de cc 8a 00 	bic.b	138(r12),0(r14)	;0x008a(r12), 0x0000(r14)
  f0:	00 00 
  f2:	00 00       	.word	0x0000;	????	
  f4:	10 00       	.word	0x0010;	????	
  f6:	00 00       	.word	0x0000;	????	
  f8:	02 00       	.word	0x0002;	????	
  fa:	07 13       	reti			;return from interupt
  fc:	00 00       	.word	0x0000;	????	
  fe:	02 00       	.word	0x0002;	????	
 100:	00 c0       	bic	r0,	r0	
 102:	0c 00       	.word	0x000c;	????	
 104:	00 00       	.word	0x0000;	????	
 106:	00 00       	.word	0x0000;	????	
 108:	10 00       	.word	0x0010;	????	
 10a:	00 00       	.word	0x0000;	????	
 10c:	02 00       	.word	0x0002;	????	
 10e:	76 13       	.word	0x1376;	????	
 110:	00 00       	.word	0x0000;	????	
 112:	02 00       	.word	0x0002;	????	
 114:	0c c0       	bic	r0,	r12	
 116:	04 00       	.word	0x0004;	????	
 118:	00 00       	.word	0x0000;	????	
 11a:	00 00       	.word	0x0000;	????	
 11c:	10 00       	.word	0x0010;	????	
 11e:	00 00       	.word	0x0000;	????	
 120:	02 00       	.word	0x0002;	????	
 122:	e5 13       	.word	0x13e5;	????	
 124:	00 00       	.word	0x0000;	????	
 126:	02 00       	.word	0x0002;	????	
 128:	10 c0 18 00 	bic	24(r0),	r0	;PC rel. 0x0142
 12c:	00 00       	.word	0x0000;	????	
 12e:	00 00       	.word	0x0000;	????	
 130:	10 00       	.word	0x0010;	????	
 132:	00 00       	.word	0x0000;	????	
 134:	02 00       	.word	0x0002;	????	
 136:	54 14       	.word	0x1454;	????	
 138:	00 00       	.word	0x0000;	????	
 13a:	02 00       	.word	0x0002;	????	
 13c:	28 c0       	bic	@r0,	r8	
 13e:	16 00       	.word	0x0016;	????	
 140:	00 00       	.word	0x0000;	????	
 142:	00 00       	.word	0x0000;	????	
 144:	10 00       	.word	0x0010;	????	
 146:	00 00       	.word	0x0000;	????	
 148:	02 00       	.word	0x0002;	????	
 14a:	c3 14       	.word	0x14c3;	????	
 14c:	00 00       	.word	0x0000;	????	
 14e:	02 00       	.word	0x0002;	????	
 150:	1e c1 06 00 	bic	6(r1),	r14	;0x0006(r1)
 154:	00 00       	.word	0x0000;	????	
 156:	00 00       	.word	0x0000;	????	
 158:	10 00       	.word	0x0010;	????	
 15a:	00 00       	.word	0x0000;	????	
 15c:	02 00       	.word	0x0002;	????	
 15e:	32 15       	.word	0x1532;	????	
 160:	00 00       	.word	0x0000;	????	
 162:	02 00       	.word	0x0002;	????	
 164:	68 cd       	bic.b	@r13,	r8	
 166:	02 00       	.word	0x0002;	????	
 168:	00 00       	.word	0x0000;	????	
	...

Disassembly of section .debug_info:

00000000 <.debug_info>:
       0:	cf 05       	.word	0x05cf;	????	
       2:	00 00       	.word	0x0000;	????	
       4:	02 00       	.word	0x0002;	????	
       6:	00 00       	.word	0x0000;	????	
       8:	00 00       	.word	0x0000;	????	
       a:	02 01       	.word	0x0102;	????	
       c:	16 01       	.word	0x0116;	????	
       e:	00 00       	.word	0x0000;	????	
      10:	01 6e       	addc	r14,	r1	
      12:	00 00       	.word	0x0000;	????	
      14:	00 9b       	cmp	r11,	r0	
	...
      22:	00 00       	.word	0x0000;	????	
      24:	00 02       	.word	0x0200;	????	
      26:	02 07       	.word	0x0702;	????	
      28:	96 01       	.word	0x0196;	????	
      2a:	00 00       	.word	0x0000;	????	
      2c:	02 04       	.word	0x0402;	????	
      2e:	05 fb       	and	r11,	r5	
      30:	00 00       	.word	0x0000;	????	
      32:	00 03       	.word	0x0300;	????	
      34:	02 05       	.word	0x0502;	????	
      36:	69 6e       	addc.b	@r14,	r9	
      38:	74 00       	.word	0x0074;	????	
      3a:	02 01       	.word	0x0102;	????	
      3c:	06 80       	sub	r0,	r6	
      3e:	01 00       	.word	0x0001;	????	
      40:	00 02       	.word	0x0200;	????	
      42:	08 05       	.word	0x0508;	????	
      44:	f6 00       	.word	0x00f6;	????	
      46:	00 00       	.word	0x0000;	????	
      48:	02 01       	.word	0x0102;	????	
      4a:	08 7e       	subc	r14,	r8	
      4c:	01 00       	.word	0x0001;	????	
      4e:	00 02       	.word	0x0200;	????	
      50:	04 07       	.word	0x0704;	????	
      52:	91 01       	.word	0x0191;	????	
      54:	00 00       	.word	0x0000;	????	
      56:	02 08       	.word	0x0802;	????	
      58:	07 8c       	sub	r12,	r7	
      5a:	01 00       	.word	0x0001;	????	
      5c:	00 02       	.word	0x0200;	????	
      5e:	02 07       	.word	0x0702;	????	
      60:	df 01       	.word	0x01df;	????	
      62:	00 00       	.word	0x0000;	????	
      64:	04 02       	.word	0x0204;	????	
      66:	6a 00       	.word	0x006a;	????	
      68:	00 00       	.word	0x0000;	????	
      6a:	02 01       	.word	0x0102;	????	
      6c:	06 87       	sub	r7,	r6	
      6e:	01 00       	.word	0x0001;	????	
      70:	00 04       	.word	0x0400;	????	
      72:	02 77       	subc	r7,	r2	
      74:	00 00       	.word	0x0000;	????	
      76:	00 05       	.word	0x0500;	????	
      78:	6a 00       	.word	0x006a;	????	
      7a:	00 00       	.word	0x0000;	????	
      7c:	06 10       	rrc	r6		
      7e:	02 3d       	jmp	$+518    	;abs 0x284
      80:	93 00       	.word	0x0093;	????	
      82:	00 00       	.word	0x0000;	????	
      84:	07 76       	subc	r6,	r7	
      86:	61 6c       	addc.b	@r12,	r1	
      88:	00 02       	.word	0x0200;	????	
      8a:	41 93       	tst.b	r1		
      8c:	00 00       	.word	0x0000;	????	
      8e:	00 02       	.word	0x0200;	????	
      90:	23 00       	.word	0x0023;	????	
      92:	00 08       	.word	0x0800;	????	
      94:	6a 00       	.word	0x006a;	????	
      96:	00 00       	.word	0x0000;	????	
      98:	a3 00       	.word	0x00a3;	????	
      9a:	00 00       	.word	0x0000;	????	
      9c:	09 25       	jz	$+532    	;abs 0x2b0
      9e:	00 00       	.word	0x0000;	????	
      a0:	00 0e       	.word	0x0e00;	????	
      a2:	00 0a       	.word	0x0a00;	????	
      a4:	76 00       	.word	0x0076;	????	
      a6:	00 00       	.word	0x0000;	????	
      a8:	02 42       	mov	r2,	r2	
      aa:	7c 00       	.word	0x007c;	????	
      ac:	00 00       	.word	0x0000;	????	
      ae:	06 52       	add	r2,	r6	
      b0:	02 47       	mov	r7,	r2	
      b2:	d3 00       	.word	0x00d3;	????	
      b4:	00 00       	.word	0x0000;	????	
      b6:	0b 39       	jl	$+536    	;abs 0x2ce
      b8:	02 00       	.word	0x0002;	????	
      ba:	00 02       	.word	0x0200;	????	
      bc:	4b 48       	mov.b	r8,	r11	
      be:	00 00       	.word	0x0000;	????	
      c0:	00 02       	.word	0x0200;	????	
      c2:	23 00       	.word	0x0023;	????	
      c4:	0b cb       	bic	r11,	r11	
      c6:	01 00       	.word	0x0001;	????	
      c8:	00 02       	.word	0x0200;	????	
      ca:	50 d3       	bis.b	#1,	r0	;r3 As==01
      cc:	00 00       	.word	0x0000;	????	
      ce:	00 02       	.word	0x0200;	????	
      d0:	23 02       	.word	0x0223;	????	
      d2:	00 08       	.word	0x0800;	????	
      d4:	a3 00       	.word	0x00a3;	????	
      d6:	00 00       	.word	0x0000;	????	
      d8:	e3 00       	.word	0x00e3;	????	
      da:	00 00       	.word	0x0000;	????	
      dc:	09 25       	jz	$+532    	;abs 0x2f0
      de:	00 00       	.word	0x0000;	????	
      e0:	00 04       	.word	0x0400;	????	
      e2:	00 0a       	.word	0x0a00;	????	
      e4:	c1 01       	.word	0x01c1;	????	
      e6:	00 00       	.word	0x0000;	????	
      e8:	02 51       	add	r1,	r2	
      ea:	ae 00       	.word	0x00ae;	????	
      ec:	00 00       	.word	0x0000;	????	
      ee:	06 06       	.word	0x0606;	????	
      f0:	02 56       	add	r6,	r2	
      f2:	21 01       	.word	0x0121;	????	
      f4:	00 00       	.word	0x0000;	????	
      f6:	07 63       	adc	r7		
      f8:	6d 64       	addc.b	@r4,	r13	
      fa:	00 02       	.word	0x0200;	????	
      fc:	5a 71 00 00 	subc.b	0(r1),	r10	;0x0000(r1)
     100:	00 02       	.word	0x0200;	????	
     102:	23 00       	.word	0x0023;	????	
     104:	0b bc       	bit	r12,	r11	
     106:	01 00       	.word	0x0001;	????	
     108:	00 02       	.word	0x0200;	????	
     10a:	5f 71 00 00 	subc.b	0(r1),	r15	;0x0000(r1)
     10e:	00 02       	.word	0x0200;	????	
     110:	23 02       	.word	0x0223;	????	
     112:	0b f1       	and	r1,	r11	
     114:	00 00       	.word	0x0000;	????	
     116:	00 02       	.word	0x0200;	????	
     118:	64 37       	jge	$-310    	;abs 0xffe2
     11a:	01 00       	.word	0x0001;	????	
     11c:	00 02       	.word	0x0200;	????	
     11e:	23 04       	.word	0x0423;	????	
     120:	00 0c       	.word	0x0c00;	????	
     122:	01 33       	jn	$-508    	;abs 0xff26
     124:	00 00       	.word	0x0000;	????	
     126:	00 31       	jn	$+514    	;abs 0x328
     128:	01 00       	.word	0x0001;	????	
     12a:	00 0d       	.word	0x0d00;	????	
     12c:	31 01       	.word	0x0131;	????	
     12e:	00 00       	.word	0x0000;	????	
     130:	00 04       	.word	0x0400;	????	
     132:	02 e3       	xor	#0,	r2	;r3 As==00
     134:	00 00       	.word	0x0000;	????	
     136:	00 04       	.word	0x0400;	????	
     138:	02 21       	jnz	$+518    	;abs 0x33e
     13a:	01 00       	.word	0x0001;	????	
     13c:	00 0a       	.word	0x0a00;	????	
     13e:	25 00       	.word	0x0025;	????	
     140:	00 00       	.word	0x0000;	????	
     142:	02 65       	addc	r5,	r2	
     144:	ee 00       	.word	0x00ee;	????	
     146:	00 00       	.word	0x0000;	????	
     148:	06 02       	.word	0x0206;	????	
     14a:	02 6a       	addc	r10,	r2	
     14c:	6d 01       	.word	0x016d;	????	
     14e:	00 00       	.word	0x0000;	????	
     150:	0b 39       	jl	$+536    	;abs 0x368
     152:	02 00       	.word	0x0002;	????	
     154:	00 02       	.word	0x0200;	????	
     156:	6e 48       	mov.b	@r8,	r14	
     158:	00 00       	.word	0x0000;	????	
     15a:	00 02       	.word	0x0200;	????	
     15c:	23 00       	.word	0x0023;	????	
     15e:	0b 06       	.word	0x060b;	????	
     160:	02 00       	.word	0x0002;	????	
     162:	00 02       	.word	0x0200;	????	
     164:	73 6d       	.word	0x6d73;	????	Illegal as 2-op instr
     166:	01 00       	.word	0x0001;	????	
     168:	00 02       	.word	0x0200;	????	
     16a:	23 02       	.word	0x0223;	????	
     16c:	00 08       	.word	0x0800;	????	
     16e:	3d 01       	.word	0x013d;	????	
     170:	00 00       	.word	0x0000;	????	
     172:	7c 01       	.word	0x017c;	????	
     174:	00 00       	.word	0x0000;	????	
     176:	0e 25       	jz	$+542    	;abs 0x394
     178:	00 00       	.word	0x0000;	????	
     17a:	00 00       	.word	0x0000;	????	
     17c:	0a 00       	.word	0x000a;	????	
     17e:	02 00       	.word	0x0002;	????	
     180:	00 02       	.word	0x0200;	????	
     182:	74 48       	mov.b	@r8+,	r4	
     184:	01 00       	.word	0x0001;	????	
     186:	00 0f       	.word	0x0f00;	????	
     188:	13 02       	.word	0x0213;	????	
     18a:	00 00       	.word	0x0000;	????	
     18c:	06 03       	.word	0x0306;	????	
     18e:	0c be       	bit	r14,	r12	
     190:	01 00       	.word	0x0001;	????	
     192:	00 0b       	.word	0x0b00;	????	
     194:	63 01       	.word	0x0163;	????	
     196:	00 00       	.word	0x0000;	????	
     198:	03 0d       	.word	0x0d03;	????	
     19a:	64 00       	.word	0x0064;	????	
     19c:	00 00       	.word	0x0000;	????	
     19e:	02 23       	jnz	$-506    	;abs 0xffa4
     1a0:	00 0b       	.word	0x0b00;	????	
     1a2:	65 00       	.word	0x0065;	????	
     1a4:	00 00       	.word	0x0000;	????	
     1a6:	03 0e       	.word	0x0e03;	????	
     1a8:	33 00       	.word	0x0033;	????	
     1aa:	00 00       	.word	0x0000;	????	
     1ac:	02 23       	jnz	$-506    	;abs 0xffb2
     1ae:	02 0b       	.word	0x0b02;	????	
     1b0:	ad 01       	.word	0x01ad;	????	
     1b2:	00 00       	.word	0x0000;	????	
     1b4:	03 0f       	.word	0x0f03;	????	
     1b6:	33 00       	.word	0x0033;	????	
     1b8:	00 00       	.word	0x0000;	????	
     1ba:	02 23       	jnz	$-506    	;abs 0xffc0
     1bc:	04 00       	.word	0x0004;	????	
     1be:	0a 14       	.word	0x140a;	????	
     1c0:	02 00       	.word	0x0002;	????	
     1c2:	00 03       	.word	0x0300;	????	
     1c4:	10 87 01 00 	sub	1(r7),	r0	;0x0001(r7)
     1c8:	00 10       	rrc	r0		
     1ca:	01 f8       	and	r8,	r1	
     1cc:	01 00       	.word	0x0001;	????	
     1ce:	00 01       	.word	0x0100;	????	
     1d0:	9b 01       	.word	0x019b;	????	
     1d2:	33 00       	.word	0x0033;	????	
     1d4:	00 00       	.word	0x0000;	????	
     1d6:	01 fd       	and	r13,	r1	
     1d8:	01 00       	.word	0x0001;	????	
     1da:	00 11       	rra	r0		
     1dc:	62 6f       	addc.b	@r15,	r2	
     1de:	78 00       	.word	0x0078;	????	
     1e0:	01 9b       	cmp	r11,	r1	
     1e2:	fd 01       	.word	0x01fd;	????	
     1e4:	00 00       	.word	0x0000;	????	
     1e6:	12 5b 01 00 	add	1(r11),	r2	;0x0001(r11)
     1ea:	00 01       	.word	0x0100;	????	
     1ec:	9c 33       	jn	$-198    	;abs 0x126
     1ee:	00 00       	.word	0x0000;	????	
     1f0:	00 12       	push	r0		
     1f2:	f2 01       	.word	0x01f2;	????	
     1f4:	00 00       	.word	0x0000;	????	
     1f6:	01 9d       	cmp	r13,	r1	
     1f8:	33 00       	.word	0x0033;	????	
     1fa:	00 00       	.word	0x0000;	????	
     1fc:	00 04       	.word	0x0400;	????	
     1fe:	02 be       	bit	r14,	r2	
     200:	01 00       	.word	0x0001;	????	
     202:	00 13       	reti			
     204:	01 34       	jge	$+4      	;abs 0x208
     206:	00 00       	.word	0x0000;	????	
     208:	00 01       	.word	0x0100;	????	
     20a:	82 01       	.word	0x0182;	????	
     20c:	33 00       	.word	0x0033;	????	
     20e:	00 00       	.word	0x0000;	????	
     210:	28 c1       	bic	@r1,	r8	
     212:	76 c1       	bic.b	@r1+,	r6	
     214:	00 00       	.word	0x0000;	????	
     216:	00 00       	.word	0x0000;	????	
     218:	3f 02       	.word	0x023f;	????	
     21a:	00 00       	.word	0x0000;	????	
     21c:	14 cb 01 00 	bic	1(r11),	r4	;0x0001(r11)
     220:	00 01       	.word	0x0100;	????	
     222:	82 31       	jn	$+774    	;abs 0x528
     224:	01 00       	.word	0x0001;	????	
     226:	00 54       	add	r4,	r0	
     228:	00 00       	.word	0x0000;	????	
     22a:	00 15       	.word	0x1500;	????	
     22c:	34 c1       	bic	@r1+,	r4	
     22e:	5c c1 16 69 	bic.b	26902(r1),r12	;0x6916(r1)
     232:	00 01       	.word	0x0100;	????	
     234:	85 33       	jn	$-244    	;abs 0x140
     236:	00 00       	.word	0x0000;	????	
     238:	00 66       	addc	r6,	r0	
     23a:	00 00       	.word	0x0000;	????	
     23c:	00 00       	.word	0x0000;	????	
     23e:	00 13       	reti			
     240:	01 d0       	bis	r0,	r1	
     242:	01 00       	.word	0x0001;	????	
     244:	00 01       	.word	0x0100;	????	
     246:	1a 01       	.word	0x011a;	????	
     248:	33 00       	.word	0x0033;	????	
     24a:	00 00       	.word	0x0000;	????	
     24c:	76 c1       	bic.b	@r1+,	r6	
     24e:	b6 c1 71 00 	bic	@r1+,	113(r6)	;0x0071(r6)
     252:	00 00       	.word	0x0000;	????	
     254:	75 02       	.word	0x0275;	????	
     256:	00 00       	.word	0x0000;	????	
     258:	14 cb 01 00 	bic	1(r11),	r4	;0x0001(r11)
     25c:	00 01       	.word	0x0100;	????	
     25e:	1a 31       	jn	$+566    	;abs 0x494
     260:	01 00       	.word	0x0001;	????	
     262:	00 a5       	dadd	r5,	r0	
     264:	00 00       	.word	0x0000;	????	
     266:	00 16       	.word	0x1600;	????	
     268:	6b 00       	.word	0x006b;	????	
     26a:	01 1c       	.word	0x1c01;	????	
     26c:	33 00       	.word	0x0033;	????	
     26e:	00 00       	.word	0x0000;	????	
     270:	b7 00       	.word	0x00b7;	????	
     272:	00 00       	.word	0x0000;	????	
     274:	00 13       	reti			
     276:	01 56       	add	r6,	r1	
     278:	00 00       	.word	0x0000;	????	
     27a:	00 01       	.word	0x0100;	????	
     27c:	0f 01       	.word	0x010f;	????	
     27e:	33 00       	.word	0x0033;	????	
     280:	00 00       	.word	0x0000;	????	
     282:	b6 c1 ee c1 	bic	@r1+,	-15890(r6);0xc1ee(r6)
     286:	ca 00       	.word	0x00ca;	????	
     288:	00 00       	.word	0x0000;	????	
     28a:	ab 02       	.word	0x02ab;	????	
     28c:	00 00       	.word	0x0000;	????	
     28e:	14 cb 01 00 	bic	1(r11),	r4	;0x0001(r11)
     292:	00 01       	.word	0x0100;	????	
     294:	0f 31       	jn	$+544    	;abs 0x4b4
     296:	01 00       	.word	0x0001;	????	
     298:	00 06       	.word	0x0600;	????	
     29a:	01 00       	.word	0x0001;	????	
     29c:	00 16       	.word	0x1600;	????	
     29e:	6b 00       	.word	0x006b;	????	
     2a0:	01 11       	rra	r1		
     2a2:	33 00       	.word	0x0033;	????	
     2a4:	00 00       	.word	0x0000;	????	
     2a6:	11 01       	.word	0x0111;	????	
     2a8:	00 00       	.word	0x0000;	????	
     2aa:	00 13       	reti			
     2ac:	01 24       	jz	$+4      	;abs 0x2b0
     2ae:	02 00       	.word	0x0002;	????	
     2b0:	00 01       	.word	0x0100;	????	
     2b2:	47 01       	.word	0x0147;	????	
     2b4:	33 00       	.word	0x0033;	????	
     2b6:	00 00       	.word	0x0000;	????	
     2b8:	ee c1 88 c2 	bic.b	@r1,	-15736(r14);0xc288(r14)
     2bc:	24 01       	.word	0x0124;	????	
     2be:	00 00       	.word	0x0000;	????	
     2c0:	d4 02       	.word	0x02d4;	????	
     2c2:	00 00       	.word	0x0000;	????	
     2c4:	14 cb 01 00 	bic	1(r11),	r4	;0x0001(r11)
     2c8:	00 01       	.word	0x0100;	????	
     2ca:	47 31       	jn	$+656    	;abs 0x55a
     2cc:	01 00       	.word	0x0001;	????	
     2ce:	00 40       	br	r0		
     2d0:	01 00       	.word	0x0001;	????	
     2d2:	00 00       	.word	0x0000;	????	
     2d4:	13 01       	.word	0x0113;	????	
     2d6:	16 00       	.word	0x0016;	????	
     2d8:	00 00       	.word	0x0000;	????	
     2da:	01 62       	addc	r2,	r1	
     2dc:	01 33       	jn	$-508    	;abs 0xe0
     2de:	00 00       	.word	0x0000;	????	
     2e0:	00 88       	sub	r8,	r0	
     2e2:	c2 b0 c3 4b 	bit.b	r0,	&0x4bc3	
     2e6:	01 00       	.word	0x0001;	????	
     2e8:	00 8c       	sub	r12,	r0	
     2ea:	03 00       	.word	0x0003;	????	
     2ec:	00 14       	.word	0x1400;	????	
     2ee:	cb 01       	.word	0x01cb;	????	
     2f0:	00 00       	.word	0x0000;	????	
     2f2:	01 62       	addc	r2,	r1	
     2f4:	31 01       	.word	0x0131;	????	
     2f6:	00 00       	.word	0x0000;	????	
     2f8:	ef 01       	.word	0x01ef;	????	
     2fa:	00 00       	.word	0x0000;	????	
     2fc:	17 c9 01 00 	bic	1(r9),	r7	;0x0001(r9)
     300:	00 a6       	dadd	r6,	r0	
     302:	c2 bc c2 01 	bit.b	r12,	&0x01c2	
     306:	78 2d       	jc	$+754    	;abs 0x5f8
     308:	03 00       	.word	0x0003;	????	
     30a:	00 18       	.word	0x1800;	????	
     30c:	db 01       	.word	0x01db;	????	
     30e:	00 00       	.word	0x0000;	????	
     310:	fa 01       	.word	0x01fa;	????	
     312:	00 00       	.word	0x0000;	????	
     314:	15 a6 c2 bc 	dadd	-17214(r6),r5	;0xbcc2(r6)
     318:	c2 19       	.word	0x19c2;	????	
     31a:	e6 01       	.word	0x01e6;	????	
     31c:	00 00       	.word	0x0000;	????	
     31e:	11 02       	.word	0x0211;	????	
     320:	00 00       	.word	0x0000;	????	
     322:	19 f1 01 00 	and	1(r1),	r9	;0x0001(r1)
     326:	00 23       	jnz	$-510    	;abs 0x128
     328:	02 00       	.word	0x0002;	????	
     32a:	00 00       	.word	0x0000;	????	
     32c:	00 17       	.word	0x1700;	????	
     32e:	c9 01       	.word	0x01c9;	????	
     330:	00 00       	.word	0x0000;	????	
     332:	08 c3       	bic	#0,	r8	;r3 As==00
     334:	1e c3       	bic	#1,	r14	;r3 As==01
     336:	01 71       	subc	r1,	r1	
     338:	5e 03       	.word	0x035e;	????	
     33a:	00 00       	.word	0x0000;	????	
     33c:	18 db 01 00 	bis	1(r11),	r8	;0x0001(r11)
     340:	00 47       	br	r7		
     342:	02 00       	.word	0x0002;	????	
     344:	00 15       	.word	0x1500;	????	
     346:	08 c3       	bic	#0,	r8	;r3 As==00
     348:	1e c3       	bic	#1,	r14	;r3 As==01
     34a:	19 e6 01 00 	xor	1(r6),	r9	;0x0001(r6)
     34e:	00 5b       	add	r11,	r0	
     350:	02 00       	.word	0x0002;	????	
     352:	00 19       	.word	0x1900;	????	
     354:	f1 01       	.word	0x01f1;	????	
     356:	00 00       	.word	0x0000;	????	
     358:	6d 02       	.word	0x026d;	????	
     35a:	00 00       	.word	0x0000;	????	
     35c:	00 00       	.word	0x0000;	????	
     35e:	1a c9 01 00 	bic	1(r9),	r10	;0x0001(r9)
     362:	00 5e       	add	r14,	r0	
     364:	c3 74       	subc.b	r4,	#1	;r3 As==01
     366:	c3 01       	.word	0x01c3;	????	
     368:	68 18       	.word	0x1868;	????	
     36a:	db 01       	.word	0x01db;	????	
     36c:	00 00       	.word	0x0000;	????	
     36e:	91 02       	.word	0x0291;	????	
     370:	00 00       	.word	0x0000;	????	
     372:	15 5e c3 74 	add	29891(r14),r5	;0x74c3(r14)
     376:	c3 19       	.word	0x19c3;	????	
     378:	e6 01       	.word	0x01e6;	????	
     37a:	00 00       	.word	0x0000;	????	
     37c:	a5 02       	.word	0x02a5;	????	
     37e:	00 00       	.word	0x0000;	????	
     380:	19 f1 01 00 	and	1(r1),	r9	;0x0001(r1)
     384:	00 b7       	bit	r7,	r0	
     386:	02 00       	.word	0x0002;	????	
     388:	00 00       	.word	0x0000;	????	
     38a:	00 00       	.word	0x0000;	????	
     38c:	13 01       	.word	0x0113;	????	
     38e:	84 00       	.word	0x0084;	????	
     390:	00 00       	.word	0x0000;	????	
     392:	01 27       	jz	$-508    	;abs 0x196
     394:	01 33       	jn	$-508    	;abs 0x198
     396:	00 00       	.word	0x0000;	????	
     398:	00 b0       	bit	r0,	r0	
     39a:	c3 c8       	bic.b	r8,	#1	;r3 As==01
     39c:	c4 db 02 00 	bis.b	r11,	2(r4)	;0x0002(r4)
     3a0:	00 b5       	bit	r5,	r0	
     3a2:	03 00       	.word	0x0003;	????	
     3a4:	00 14       	.word	0x1400;	????	
     3a6:	cb 01       	.word	0x01cb;	????	
     3a8:	00 00       	.word	0x0000;	????	
     3aa:	01 27       	jz	$-508    	;abs 0x1ae
     3ac:	31 01       	.word	0x0131;	????	
     3ae:	00 00       	.word	0x0000;	????	
     3b0:	0f 03       	.word	0x030f;	????	
     3b2:	00 00       	.word	0x0000;	????	
     3b4:	00 1b       	.word	0x1b00;	????	
     3b6:	01 08       	.word	0x0801;	????	
     3b8:	00 00       	.word	0x0000;	????	
     3ba:	00 02       	.word	0x0200;	????	
     3bc:	ab 01       	.word	0x01ab;	????	
     3be:	33 00       	.word	0x0033;	????	
     3c0:	00 00       	.word	0x0000;	????	
     3c2:	c8 c4 d4 c4 	bic.b	r4,	-15148(r8);0xc4d4(r8)
     3c6:	02 71       	subc	r1,	r2	
     3c8:	02 dd       	bis	r13,	r2	
     3ca:	03 00       	.word	0x0003;	????	
     3cc:	00 14       	.word	0x1400;	????	
     3ce:	b3 01       	.word	0x01b3;	????	
     3d0:	00 00       	.word	0x0000;	????	
     3d2:	01 90       	cmp	r0,	r1	
     3d4:	64 00       	.word	0x0064;	????	
     3d6:	00 00       	.word	0x0000;	????	
     3d8:	28 03       	.word	0x0328;	????	
     3da:	00 00       	.word	0x0000;	????	
     3dc:	00 1c       	.word	0x1c00;	????	
     3de:	c9 01       	.word	0x01c9;	????	
     3e0:	00 00       	.word	0x0000;	????	
     3e2:	d4 c4 ea c4 	bic.b	-15126(r4),28930(r4);0xc4ea(r4), 0x7102(r4)
     3e6:	02 71 
     3e8:	02 09       	.word	0x0902;	????	
     3ea:	04 00       	.word	0x0004;	????	
     3ec:	00 18       	.word	0x1800;	????	
     3ee:	db 01       	.word	0x01db;	????	
     3f0:	00 00       	.word	0x0000;	????	
     3f2:	3a 03       	.word	0x033a;	????	
     3f4:	00 00       	.word	0x0000;	????	
     3f6:	19 e6 01 00 	xor	1(r6),	r9	;0x0001(r6)
     3fa:	00 45       	br	r5		
     3fc:	03 00       	.word	0x0003;	????	
     3fe:	00 19       	.word	0x1900;	????	
     400:	f1 01       	.word	0x01f1;	????	
     402:	00 00       	.word	0x0000;	????	
     404:	63 03       	.word	0x0363;	????	
     406:	00 00       	.word	0x0000;	????	
     408:	00 1b       	.word	0x1b00;	????	
     40a:	01 43       	clr	r1		
     40c:	00 00       	.word	0x0000;	????	
     40e:	00 01       	.word	0x0100;	????	
     410:	a6 01       	.word	0x01a6;	????	
     412:	33 00       	.word	0x0033;	????	
     414:	00 00       	.word	0x0000;	????	
     416:	3e c0 1e c1 	bic	#-16098,r14	;#0xc11e
     41a:	02 71       	subc	r1,	r2	
     41c:	00 42       	br	r2		
     41e:	04 00       	.word	0x0004;	????	
     420:	00 15       	.word	0x1500;	????	
     422:	7c c0 1c c1 	bic.b	#-16100,r12	;#0xc11c
     426:	16 6a 00 01 	addc	256(r10),r6	;0x0100(r10)
     42a:	c2 33       	jn	$-122    	;abs 0x3b0
     42c:	00 00       	.word	0x0000;	????	
     42e:	00 8f       	sub	r15,	r0	
     430:	03 00       	.word	0x0003;	????	
     432:	00 16       	.word	0x1600;	????	
     434:	63 00       	.word	0x0063;	????	
     436:	01 c6       	bic	r6,	r1	
     438:	6a 00       	.word	0x006a;	????	
     43a:	00 00       	.word	0x0000;	????	
     43c:	a9 03       	.word	0x03a9;	????	
     43e:	00 00       	.word	0x0000;	????	
     440:	00 00       	.word	0x0000;	????	
     442:	1d 01       	.word	0x011d;	????	
     444:	a3 01       	.word	0x01a3;	????	
     446:	00 00       	.word	0x0000;	????	
     448:	01 f0       	and	r0,	r1	
     44a:	01 ea       	xor	r10,	r1	
     44c:	c4 2c       	jc	$+394    	;abs 0x5d6
     44e:	c5 c2 03 00 	bic.b	r2,	3(r5)	;0x0003(r5)
     452:	00 67       	addc	r7,	r0	
     454:	04 00       	.word	0x0004;	????	
     456:	00 1e       	.word	0x1e00;	????	
     458:	2f 00       	.word	0x002f;	????	
     45a:	00 00       	.word	0x0000;	????	
     45c:	01 f3       	and	#0,	r1	;r3 As==00
     45e:	fd 01       	.word	0x01fd;	????	
     460:	00 00       	.word	0x0000;	????	
     462:	e6 03       	.word	0x03e6;	????	
     464:	00 00       	.word	0x0000;	????	
     466:	00 1f       	.word	0x1f00;	????	
     468:	06 01       	.word	0x0106;	????	
     46a:	00 00       	.word	0x0000;	????	
     46c:	04 24       	jz	$+10     	;abs 0x476
     46e:	01 04       	.word	0x0401;	????	
     470:	01 00       	.word	0x0001;	????	
     472:	00 79       	subc	r9,	r0	
     474:	04 00       	.word	0x0004;	????	
     476:	00 01       	.word	0x0100;	????	
     478:	01 20       	jnz	$+4      	;abs 0x47c
     47a:	48 00       	.word	0x0048;	????	
     47c:	00 00       	.word	0x0000;	????	
     47e:	1f 1c       	.word	0x1c1f;	????	
     480:	02 00       	.word	0x0002;	????	
     482:	00 04       	.word	0x0400;	????	
     484:	26 01       	.word	0x0126;	????	
     486:	1a 02       	.word	0x021a;	????	
     488:	00 00       	.word	0x0000;	????	
     48a:	79 04       	.word	0x0479;	????	
     48c:	00 00       	.word	0x0000;	????	
     48e:	01 01       	.word	0x0101;	????	
     490:	1f 41 02 00 	mov	2(r1),	r15	;0x0002(r1)
     494:	00 04       	.word	0x0400;	????	
     496:	d8 01       	.word	0x01d8;	????	
     498:	3f 02       	.word	0x023f;	????	
     49a:	00 00       	.word	0x0000;	????	
     49c:	a2 04       	.word	0x04a2;	????	
     49e:	00 00       	.word	0x0000;	????	
     4a0:	01 01       	.word	0x0101;	????	
     4a2:	05 79       	subc	r9,	r5	
     4a4:	04 00       	.word	0x0004;	????	
     4a6:	00 1f       	.word	0x1f00;	????	
     4a8:	02 00       	.word	0x0002;	????	
     4aa:	00 00       	.word	0x0000;	????	
     4ac:	04 da       	bis	r10,	r4	
     4ae:	01 00       	.word	0x0001;	????	
     4b0:	00 00       	.word	0x0000;	????	
     4b2:	00 79       	subc	r9,	r0	
     4b4:	04 00       	.word	0x0004;	????	
     4b6:	00 01       	.word	0x0100;	????	
     4b8:	01 1f       	.word	0x1f01;	????	
     4ba:	50 00       	.word	0x0050;	????	
     4bc:	00 00       	.word	0x0000;	????	
     4be:	04 dc       	bis	r12,	r4	
     4c0:	01 4e       	mov	r14,	r1	
     4c2:	00 00       	.word	0x0000;	????	
     4c4:	00 79       	subc	r9,	r0	
     4c6:	04 00       	.word	0x0004;	????	
     4c8:	00 01       	.word	0x0100;	????	
     4ca:	01 1f       	.word	0x1f01;	????	
     4cc:	0d 02       	.word	0x020d;	????	
     4ce:	00 00       	.word	0x0000;	????	
     4d0:	04 de       	bis	r14,	r4	
     4d2:	01 0b       	.word	0x0b01;	????	
     4d4:	02 00       	.word	0x0002;	????	
     4d6:	00 79       	subc	r9,	r0	
     4d8:	04 00       	.word	0x0004;	????	
     4da:	00 01       	.word	0x0100;	????	
     4dc:	01 1f       	.word	0x1f01;	????	
     4de:	6a 01       	.word	0x016a;	????	
     4e0:	00 00       	.word	0x0000;	????	
     4e2:	04 e0       	xor	r0,	r4	
     4e4:	01 68       	addc	r8,	r1	
     4e6:	01 00       	.word	0x0001;	????	
     4e8:	00 79       	subc	r9,	r0	
     4ea:	04 00       	.word	0x0004;	????	
     4ec:	00 01       	.word	0x0100;	????	
     4ee:	01 1f       	.word	0x1f01;	????	
     4f0:	34 02       	.word	0x0234;	????	
     4f2:	00 00       	.word	0x0000;	????	
     4f4:	04 e2       	xor	r2,	r4	
     4f6:	01 32       	jn	$-1020   	;abs 0xfa
     4f8:	02 00       	.word	0x0002;	????	
     4fa:	00 79       	subc	r9,	r0	
     4fc:	04 00       	.word	0x0004;	????	
     4fe:	00 01       	.word	0x0100;	????	
     500:	01 1f       	.word	0x1f01;	????	
     502:	55 01       	.word	0x0155;	????	
     504:	00 00       	.word	0x0000;	????	
     506:	04 e8       	xor	r8,	r4	
     508:	01 53       	add	#0,	r1	;r3 As==00
     50a:	01 00       	.word	0x0001;	????	
     50c:	00 79       	subc	r9,	r0	
     50e:	04 00       	.word	0x0004;	????	
     510:	00 01       	.word	0x0100;	????	
     512:	01 1f       	.word	0x1f01;	????	
     514:	95 00       	.word	0x0095;	????	
     516:	00 00       	.word	0x0000;	????	
     518:	04 ed       	xor	r13,	r4	
     51a:	01 93       	tst	r1		
     51c:	00 00       	.word	0x0000;	????	
     51e:	00 79       	subc	r9,	r0	
     520:	04 00       	.word	0x0004;	????	
     522:	00 01       	.word	0x0100;	????	
     524:	01 1f       	.word	0x1f01;	????	
     526:	4d 01       	.word	0x014d;	????	
     528:	00 00       	.word	0x0000;	????	
     52a:	04 ef       	xor	r15,	r4	
     52c:	01 4b       	mov	r11,	r1	
     52e:	01 00       	.word	0x0001;	????	
     530:	00 79       	subc	r9,	r0	
     532:	04 00       	.word	0x0004;	????	
     534:	00 01       	.word	0x0100;	????	
     536:	01 1f       	.word	0x1f01;	????	
     538:	0f 01       	.word	0x010f;	????	
     53a:	00 00       	.word	0x0000;	????	
     53c:	04 8a       	sub	r10,	r4	
     53e:	03 0d       	.word	0x0d03;	????	
     540:	01 00       	.word	0x0001;	????	
     542:	00 49       	br	r9		
     544:	05 00       	.word	0x0005;	????	
     546:	00 01       	.word	0x0100;	????	
     548:	01 20       	jnz	$+4      	;abs 0x54c
     54a:	25 00       	.word	0x0025;	????	
     54c:	00 00       	.word	0x0000;	????	
     54e:	1f 72 01 00 	subc	&0x0001,r15	
     552:	00 04       	.word	0x0400;	????	
     554:	c6 03       	.word	0x03c6;	????	
     556:	70 01       	.word	0x0170;	????	
     558:	00 00       	.word	0x0000;	????	
     55a:	a2 04       	.word	0x04a2;	????	
     55c:	00 00       	.word	0x0000;	????	
     55e:	01 01       	.word	0x0101;	????	
     560:	1f 52 02 00 	add	&0x0002,r15	
     564:	00 04       	.word	0x0400;	????	
     566:	c8 03       	.word	0x03c8;	????	
     568:	50 02       	.word	0x0250;	????	
     56a:	00 00       	.word	0x0000;	????	
     56c:	a2 04       	.word	0x04a2;	????	
     56e:	00 00       	.word	0x0000;	????	
     570:	01 01       	.word	0x0101;	????	
     572:	21 fd       	and	@r13,	r1	
     574:	01 00       	.word	0x0001;	????	
     576:	00 03       	.word	0x0300;	????	
     578:	26 7c       	subc	@r12,	r6	
     57a:	01 00       	.word	0x0001;	????	
     57c:	00 01       	.word	0x0100;	????	
     57e:	03 03       	.word	0x0303;	????	
     580:	00 02       	.word	0x0200;	????	
     582:	08 fd       	and	r13,	r8	
     584:	01 00       	.word	0x0001;	????	
     586:	00 92       	cmp	r2,	r0	
     588:	05 00       	.word	0x0005;	????	
     58a:	00 09       	.word	0x0900;	????	
     58c:	25 00       	.word	0x0025;	????	
     58e:	00 00       	.word	0x0000;	????	
     590:	04 00       	.word	0x0004;	????	
     592:	21 48       	mov	@r8,	r1	
     594:	00 00       	.word	0x0000;	????	
     596:	00 03       	.word	0x0300;	????	
     598:	50 82 05 00 	sub.b	&0x0005,r0	
     59c:	00 01       	.word	0x0100;	????	
     59e:	03 03       	.word	0x0303;	????	
     5a0:	84 02       	.word	0x0284;	????	
     5a2:	21 46       	mov	@r6,	r1	
     5a4:	02 00       	.word	0x0002;	????	
     5a6:	00 03       	.word	0x0300;	????	
     5a8:	51 33       	jn	$-348    	;abs 0x44c
     5aa:	00 00       	.word	0x0000;	????	
     5ac:	00 01       	.word	0x0100;	????	
     5ae:	03 03       	.word	0x0303;	????	
     5b0:	26 02       	.word	0x0226;	????	
     5b2:	08 6a       	addc	r10,	r8	
     5b4:	00 00       	.word	0x0000;	????	
     5b6:	00 c2       	bic	r2,	r0	
     5b8:	05 00       	.word	0x0005;	????	
     5ba:	00 09       	.word	0x0900;	????	
     5bc:	25 00       	.word	0x0025;	????	
     5be:	00 00       	.word	0x0000;	????	
     5c0:	59 00       	.word	0x0059;	????	
     5c2:	21 b3       	bit	#2,	r1	;r3 As==10
     5c4:	01 00       	.word	0x0001;	????	
     5c6:	00 03       	.word	0x0300;	????	
     5c8:	52 b2 05 00 	bit.b	&0x0005,r2	
     5cc:	00 01       	.word	0x0100;	????	
     5ce:	03 03       	.word	0x0303;	????	
     5d0:	2a 02       	.word	0x022a;	????	
     5d2:	00 3b       	jl	$-510    	;abs 0x3d4
     5d4:	03 00       	.word	0x0003;	????	
     5d6:	00 02       	.word	0x0200;	????	
     5d8:	00 c9       	bic	r9,	r0	
     5da:	01 00       	.word	0x0001;	????	
     5dc:	00 02       	.word	0x0200;	????	
     5de:	01 16       	.word	0x1601;	????	
     5e0:	01 00       	.word	0x0001;	????	
     5e2:	00 01       	.word	0x0100;	????	
     5e4:	6e 00       	.word	0x006e;	????	
     5e6:	00 00       	.word	0x0000;	????	
     5e8:	e1 02       	.word	0x02e1;	????	
     5ea:	00 00       	.word	0x0000;	????	
     5ec:	2c c5       	bic	@r5,	r12	
     5ee:	ee c6 93 02 	bic.b	@r6,	659(r14);0x0293(r14)
     5f2:	00 00       	.word	0x0000;	????	
     5f4:	02 10       	rrc	r2		
     5f6:	02 3d       	jmp	$+518    	;abs 0x7fc
     5f8:	38 00       	.word	0x0038;	????	
     5fa:	00 00       	.word	0x0000;	????	
     5fc:	03 76       	.word	0x7603;	????	Illegal as 2-op instr
     5fe:	61 6c       	addc.b	@r12,	r1	
     600:	00 02       	.word	0x0200;	????	
     602:	41 38       	jl	$+132    	;abs 0x686
     604:	00 00       	.word	0x0000;	????	
     606:	00 02       	.word	0x0200;	????	
     608:	23 00       	.word	0x0023;	????	
     60a:	00 04       	.word	0x0400;	????	
     60c:	4f 00       	.word	0x004f;	????	
     60e:	00 00       	.word	0x0000;	????	
     610:	48 00       	.word	0x0048;	????	
     612:	00 00       	.word	0x0000;	????	
     614:	05 48       	mov	r8,	r5	
     616:	00 00       	.word	0x0000;	????	
     618:	00 0e       	.word	0x0e00;	????	
     61a:	00 06       	.word	0x0600;	????	
     61c:	02 07       	.word	0x0702;	????	
     61e:	96 01       	.word	0x0196;	????	
     620:	00 00       	.word	0x0000;	????	
     622:	06 01       	.word	0x0106;	????	
     624:	06 87       	sub	r7,	r6	
     626:	01 00       	.word	0x0001;	????	
     628:	00 07       	.word	0x0700;	????	
     62a:	76 00       	.word	0x0076;	????	
     62c:	00 00       	.word	0x0000;	????	
     62e:	02 42       	mov	r2,	r2	
     630:	21 00       	.word	0x0021;	????	
     632:	00 00       	.word	0x0000;	????	
     634:	02 52       	rla	r2		
     636:	02 47       	mov	r7,	r2	
     638:	86 00       	.word	0x0086;	????	
     63a:	00 00       	.word	0x0000;	????	
     63c:	08 39       	jl	$+530    	;abs 0x84e
     63e:	02 00       	.word	0x0002;	????	
     640:	00 02       	.word	0x0200;	????	
     642:	4b 86       	sub.b	r6,	r11	
     644:	00 00       	.word	0x0000;	????	
     646:	00 02       	.word	0x0200;	????	
     648:	23 00       	.word	0x0023;	????	
     64a:	08 cb       	bic	r11,	r8	
     64c:	01 00       	.word	0x0001;	????	
     64e:	00 02       	.word	0x0200;	????	
     650:	50 8d 00 00 	sub.b	0(r13),	r0	;0x0000(r13)
     654:	00 02       	.word	0x0200;	????	
     656:	23 02       	.word	0x0223;	????	
     658:	00 06       	.word	0x0600;	????	
     65a:	01 08       	.word	0x0801;	????	
     65c:	7e 01       	.word	0x017e;	????	
     65e:	00 00       	.word	0x0000;	????	
     660:	04 56       	add	r6,	r4	
     662:	00 00       	.word	0x0000;	????	
     664:	00 9d       	cmp	r13,	r0	
     666:	00 00       	.word	0x0000;	????	
     668:	00 05       	.word	0x0500;	????	
     66a:	48 00       	.word	0x0048;	????	
     66c:	00 00       	.word	0x0000;	????	
     66e:	04 00       	.word	0x0004;	????	
     670:	07 c1       	bic	r1,	r7	
     672:	01 00       	.word	0x0001;	????	
     674:	00 02       	.word	0x0200;	????	
     676:	51 61 00 00 	addc.b	0(r1),	r1	;0x0000(r1)
     67a:	00 02       	.word	0x0200;	????	
     67c:	06 02       	.word	0x0206;	????	
     67e:	56 db 00 00 	bis.b	0(r11),	r6	;0x0000(r11)
     682:	00 03       	.word	0x0300;	????	
     684:	63 6d       	.word	0x6d63;	????	Illegal as 2-op instr
     686:	64 00       	.word	0x0064;	????	
     688:	02 5a       	add	r10,	r2	
     68a:	db 00       	.word	0x00db;	????	
     68c:	00 00       	.word	0x0000;	????	
     68e:	02 23       	jnz	$-506    	;abs 0x494
     690:	00 08       	.word	0x0800;	????	
     692:	bc 01       	.word	0x01bc;	????	
     694:	00 00       	.word	0x0000;	????	
     696:	02 5f       	add	r15,	r2	
     698:	db 00       	.word	0x00db;	????	
     69a:	00 00       	.word	0x0000;	????	
     69c:	02 23       	jnz	$-506    	;abs 0x4a2
     69e:	02 08       	.word	0x0802;	????	
     6a0:	f1 00       	.word	0x00f1;	????	
     6a2:	00 00       	.word	0x0000;	????	
     6a4:	02 64       	addc	r4,	r2	
     6a6:	03 01       	.word	0x0103;	????	
     6a8:	00 00       	.word	0x0000;	????	
     6aa:	02 23       	jnz	$-506    	;abs 0x4b0
     6ac:	04 00       	.word	0x0004;	????	
     6ae:	09 02       	.word	0x0209;	????	
     6b0:	e1 00       	.word	0x00e1;	????	
     6b2:	00 00       	.word	0x0000;	????	
     6b4:	0a 4f       	mov	r15,	r10	
     6b6:	00 00       	.word	0x0000;	????	
     6b8:	00 0b       	.word	0x0b00;	????	
     6ba:	01 f6       	and	r6,	r1	
     6bc:	00 00       	.word	0x0000;	????	
     6be:	00 f6       	and	r6,	r0	
     6c0:	00 00       	.word	0x0000;	????	
     6c2:	00 0c       	.word	0x0c00;	????	
     6c4:	fd 00       	.word	0x00fd;	????	
     6c6:	00 00       	.word	0x0000;	????	
     6c8:	00 0d       	.word	0x0d00;	????	
     6ca:	02 05       	.word	0x0502;	????	
     6cc:	69 6e       	addc.b	@r14,	r9	
     6ce:	74 00       	.word	0x0074;	????	
     6d0:	09 02       	.word	0x0209;	????	
     6d2:	9d 00       	.word	0x009d;	????	
     6d4:	00 00       	.word	0x0000;	????	
     6d6:	09 02       	.word	0x0209;	????	
     6d8:	e6 00       	.word	0x00e6;	????	
     6da:	00 00       	.word	0x0000;	????	
     6dc:	07 25       	jz	$+528    	;abs 0x8ec
     6de:	00 00       	.word	0x0000;	????	
     6e0:	00 02       	.word	0x0200;	????	
     6e2:	65 a8       	dadd.b	@r8,	r5	
     6e4:	00 00       	.word	0x0000;	????	
     6e6:	00 02       	.word	0x0200;	????	
     6e8:	02 02       	.word	0x0202;	????	
     6ea:	6a 39       	jl	$+726    	;abs 0x9c0
     6ec:	01 00       	.word	0x0001;	????	
     6ee:	00 08       	.word	0x0800;	????	
     6f0:	39 02       	.word	0x0239;	????	
     6f2:	00 00       	.word	0x0000;	????	
     6f4:	02 6e       	addc	r14,	r2	
     6f6:	86 00       	.word	0x0086;	????	
     6f8:	00 00       	.word	0x0000;	????	
     6fa:	02 23       	jnz	$-506    	;abs 0x500
     6fc:	00 08       	.word	0x0800;	????	
     6fe:	06 02       	.word	0x0206;	????	
     700:	00 00       	.word	0x0000;	????	
     702:	02 73       	sbc	r2		
     704:	39 01       	.word	0x0139;	????	
     706:	00 00       	.word	0x0000;	????	
     708:	02 23       	jnz	$-506    	;abs 0x50e
     70a:	02 00       	.word	0x0002;	????	
     70c:	04 09       	.word	0x0904;	????	
     70e:	01 00       	.word	0x0001;	????	
     710:	00 48       	br	r8		
     712:	01 00       	.word	0x0001;	????	
     714:	00 0e       	.word	0x0e00;	????	
     716:	48 00       	.word	0x0048;	????	
     718:	00 00       	.word	0x0000;	????	
     71a:	00 07       	.word	0x0700;	????	
     71c:	00 02       	.word	0x0200;	????	
     71e:	00 00       	.word	0x0000;	????	
     720:	02 74       	subc	r4,	r2	
     722:	14 01       	.word	0x0114;	????	
     724:	00 00       	.word	0x0000;	????	
     726:	0f 01       	.word	0x010f;	????	
     728:	a1 02       	.word	0x02a1;	????	
     72a:	00 00       	.word	0x0000;	????	
     72c:	01 16       	.word	0x1601;	????	
     72e:	01 f6       	and	r6,	r1	
     730:	00 00       	.word	0x0000;	????	
     732:	00 2c       	jc	$+2      	;abs 0x734
     734:	c5 44 c5 02 	mov.b	r4,	709(r5)	;0x02c5(r5)
     738:	71 02       	.word	0x0271;	????	
     73a:	88 01       	.word	0x0188;	????	
     73c:	00 00       	.word	0x0000;	????	
     73e:	10 73       	subc	#1,	r0	;r3 As==01
     740:	74 72       	subc.b	#8,	r4	;r2 As==11
     742:	00 01       	.word	0x0100;	????	
     744:	16 88 01 00 	sub	1(r8),	r6	;0x0001(r8)
     748:	00 f2       	and	r2,	r0	
     74a:	03 00       	.word	0x0003;	????	
     74c:	00 11       	rra	r0		
     74e:	69 00       	.word	0x0069;	????	
     750:	01 18       	.word	0x1801;	????	
     752:	f6 00       	.word	0x00f6;	????	
     754:	00 00       	.word	0x0000;	????	
     756:	04 04       	.word	0x0404;	????	
     758:	00 00       	.word	0x0000;	????	
     75a:	00 09       	.word	0x0900;	????	
     75c:	02 4f       	mov	r15,	r2	
     75e:	00 00       	.word	0x0000;	????	
     760:	00 12       	push	r0		
     762:	01 7c       	subc	r12,	r1	
     764:	02 00       	.word	0x0002;	????	
     766:	00 01       	.word	0x0100;	????	
     768:	1f 01       	.word	0x011f;	????	
     76a:	f6 00       	.word	0x00f6;	????	
     76c:	00 00       	.word	0x0000;	????	
     76e:	44 c5       	bic.b	r5,	r4	
     770:	88 c5 25 04 	bic	r5,	1061(r8);0x0425(r8)
     774:	00 00       	.word	0x0000;	????	
     776:	eb 01       	.word	0x01eb;	????	
     778:	00 00       	.word	0x0000;	????	
     77a:	13 dc       	.word	0xdc13;	????	Illegal as 2-op instr
     77c:	02 00       	.word	0x0002;	????	
     77e:	00 01       	.word	0x0100;	????	
     780:	1f 88 01 00 	sub	1(r8),	r15	;0x0001(r8)
     784:	00 49       	br	r9		
     786:	04 00       	.word	0x0004;	????	
     788:	00 14       	.word	0x1400;	????	
     78a:	97 02       	.word	0x0297;	????	
     78c:	00 00       	.word	0x0000;	????	
     78e:	01 1f       	.word	0x1f01;	????	
     790:	88 01       	.word	0x0188;	????	
     792:	00 00       	.word	0x0000;	????	
     794:	01 5e       	add	r14,	r1	
     796:	14 af 02 00 	dadd	2(r15),	r4	;0x0002(r15)
     79a:	00 01       	.word	0x0100;	????	
     79c:	1f f6 00 00 	and	0(r6),	r15	;0x0000(r6)
     7a0:	00 01       	.word	0x0100;	????	
     7a2:	5d 14       	.word	0x145d;	????	
     7a4:	b4 02       	.word	0x02b4;	????	
     7a6:	00 00       	.word	0x0000;	????	
     7a8:	01 1f       	.word	0x1f01;	????	
     7aa:	f6 00       	.word	0x00f6;	????	
     7ac:	00 00       	.word	0x0000;	????	
     7ae:	01 5c       	add	r12,	r1	
     7b0:	11 69 00 01 	addc	256(r9),r1	;0x0100(r9)
     7b4:	21 f6       	and	@r6,	r1	
     7b6:	00 00       	.word	0x0000;	????	
     7b8:	00 62       	addc	r2,	r0	
     7ba:	04 00       	.word	0x0004;	????	
     7bc:	00 00       	.word	0x0000;	????	
     7be:	0f 01       	.word	0x010f;	????	
     7c0:	cc 02       	.word	0x02cc;	????	
     7c2:	00 00       	.word	0x0000;	????	
     7c4:	01 32       	jn	$-1020   	;abs 0x3c8
     7c6:	01 f6       	and	r6,	r1	
     7c8:	00 00       	.word	0x0000;	????	
     7ca:	00 88       	sub	r8,	r0	
     7cc:	c5 b8 c5 02 	bit.b	r8,	709(r5)	;0x02c5(r5)
     7d0:	71 02       	.word	0x0271;	????	
     7d2:	3c 02       	.word	0x023c;	????	
     7d4:	00 00       	.word	0x0000;	????	
     7d6:	10 73       	subc	#1,	r0	;r3 As==01
     7d8:	74 72       	subc.b	#8,	r4	;r2 As==11
     7da:	00 01       	.word	0x0100;	????	
     7dc:	32 88       	sub	@r8+,	r2	
     7de:	01 00       	.word	0x0001;	????	
     7e0:	00 6d       	addc	r13,	r0	
     7e2:	04 00       	.word	0x0004;	????	
     7e4:	00 11       	rra	r0		
     7e6:	76 61       	addc.b	@r1+,	r6	
     7e8:	6c 00       	.word	0x006c;	????	
     7ea:	01 35       	jge	$+516    	;abs 0x9ee
     7ec:	f6 00       	.word	0x00f6;	????	
     7ee:	00 00       	.word	0x0000;	????	
     7f0:	78 04       	.word	0x0478;	????	
     7f2:	00 00       	.word	0x0000;	????	
     7f4:	11 69 00 01 	addc	256(r9),r1	;0x0100(r9)
     7f8:	36 f6       	and	@r6+,	r6	
     7fa:	00 00       	.word	0x0000;	????	
     7fc:	00 92       	cmp	r2,	r0	
     7fe:	04 00       	.word	0x0004;	????	
     800:	00 11       	rra	r0		
     802:	63 00       	.word	0x0063;	????	
     804:	01 38       	jl	$+4      	;abs 0x808
     806:	4f 00       	.word	0x004f;	????	
     808:	00 00       	.word	0x0000;	????	
     80a:	9e 04       	.word	0x049e;	????	
     80c:	00 00       	.word	0x0000;	????	
     80e:	00 12       	push	r0		
     810:	01 5e       	add	r14,	r1	
     812:	02 00       	.word	0x0002;	????	
     814:	00 01       	.word	0x0100;	????	
     816:	44 01       	.word	0x0144;	????	
     818:	f6 00       	.word	0x00f6;	????	
     81a:	00 00       	.word	0x0000;	????	
     81c:	b8 c5 5e c6 	bic	@r5+,	-14754(r8);0xc65e(r8)
     820:	b8 04       	.word	0x04b8;	????	
     822:	00 00       	.word	0x0000;	????	
     824:	b7 02       	.word	0x02b7;	????	
     826:	00 00       	.word	0x0000;	????	
     828:	13 b3       	.word	0xb313;	????	Illegal as 2-op instr
     82a:	01 00       	.word	0x0001;	????	
     82c:	00 01       	.word	0x0100;	????	
     82e:	44 88       	sub.b	r8,	r4	
     830:	01 00       	.word	0x0001;	????	
     832:	00 fc       	and	r12,	r0	
     834:	04 00       	.word	0x0004;	????	
     836:	00 15       	.word	0x1500;	????	
     838:	6c 65       	addc.b	@r5,	r12	
     83a:	6e 00       	.word	0x006e;	????	
     83c:	01 44       	mov	r4,	r1	
     83e:	f6 00       	.word	0x00f6;	????	
     840:	00 00       	.word	0x0000;	????	
     842:	01 5e       	add	r14,	r1	
     844:	14 cb 01 00 	bic	1(r11),	r4	;0x0001(r11)
     848:	00 01       	.word	0x0100;	????	
     84a:	44 fd       	and.b	r13,	r4	
     84c:	00 00       	.word	0x0000;	????	
     84e:	00 01       	.word	0x0100;	????	
     850:	5d 11 69 00 	rra.b	105(r13)	;0x0069(r13)
     854:	01 46       	mov	r6,	r1	
     856:	f6 00       	.word	0x00f6;	????	
     858:	00 00       	.word	0x0000;	????	
     85a:	15 05       	.word	0x0515;	????	
     85c:	00 00       	.word	0x0000;	????	
     85e:	11 6a 00 01 	addc	256(r10),r1	;0x0100(r10)
     862:	47 f6       	and.b	r6,	r7	
     864:	00 00       	.word	0x0000;	????	
     866:	00 28       	jnc	$+2      	;abs 0x868
     868:	05 00       	.word	0x0005;	????	
     86a:	00 16       	.word	0x1600;	????	
     86c:	8a 02       	.word	0x028a;	????	
     86e:	00 00       	.word	0x0000;	????	
     870:	01 48       	mov	r8,	r1	
     872:	f6 00       	.word	0x00f6;	????	
     874:	00 00       	.word	0x0000;	????	
     876:	33 05       	.word	0x0533;	????	
     878:	00 00       	.word	0x0000;	????	
     87a:	16 9c 02 00 	cmp	2(r12),	r6	;0x0002(r12)
     87e:	00 01       	.word	0x0100;	????	
     880:	49 f6       	and.b	r6,	r9	
     882:	00 00       	.word	0x0000;	????	
     884:	00 4d       	br	r13		
     886:	05 00       	.word	0x0005;	????	
     888:	00 00       	.word	0x0000;	????	
     88a:	12 01       	.word	0x0112;	????	
     88c:	b9 02       	.word	0x02b9;	????	
     88e:	00 00       	.word	0x0000;	????	
     890:	01 68       	addc	r8,	r1	
     892:	01 f6       	and	r6,	r1	
     894:	00 00       	.word	0x0000;	????	
     896:	00 5e       	add	r14,	r0	
     898:	c6 ee c6 60 	xor.b	r14,	24774(r6);0x60c6(r6)
     89c:	05 00       	.word	0x0005;	????	
     89e:	00 38       	jl	$+2      	;abs 0x8a0
     8a0:	03 00       	.word	0x0003;	????	
     8a2:	00 13       	reti			
     8a4:	06 02       	.word	0x0206;	????	
     8a6:	00 00       	.word	0x0000;	????	
     8a8:	01 68       	addc	r8,	r1	
     8aa:	38 03       	.word	0x0338;	????	
     8ac:	00 00       	.word	0x0000;	????	
     8ae:	a5 05       	.word	0x05a5;	????	
     8b0:	00 00       	.word	0x0000;	????	
     8b2:	13 b3       	.word	0xb313;	????	Illegal as 2-op instr
     8b4:	01 00       	.word	0x0001;	????	
     8b6:	00 01       	.word	0x0100;	????	
     8b8:	68 88       	sub.b	@r8,	r8	
     8ba:	01 00       	.word	0x0001;	????	
     8bc:	00 b7       	bit	r7,	r0	
     8be:	05 00       	.word	0x0005;	????	
     8c0:	00 11       	rra	r0		
     8c2:	69 00       	.word	0x0069;	????	
     8c4:	01 6a       	addc	r10,	r1	
     8c6:	f6 00       	.word	0x00f6;	????	
     8c8:	00 00       	.word	0x0000;	????	
     8ca:	c9 05       	.word	0x05c9;	????	
     8cc:	00 00       	.word	0x0000;	????	
     8ce:	11 72 65 74 	subc	&0x7465,r1	
     8d2:	00 01       	.word	0x0100;	????	
     8d4:	6b f6       	and.b	@r6,	r11	
     8d6:	00 00       	.word	0x0000;	????	
     8d8:	00 dc       	bis	r12,	r0	
     8da:	05 00       	.word	0x0005;	????	
     8dc:	00 16       	.word	0x1600;	????	
     8de:	8f 02       	.word	0x028f;	????	
     8e0:	00 00       	.word	0x0000;	????	
     8e2:	01 6c       	addc	r12,	r1	
     8e4:	f6 00       	.word	0x00f6;	????	
     8e6:	00 00       	.word	0x0000;	????	
     8e8:	f5 05       	.word	0x05f5;	????	
     8ea:	00 00       	.word	0x0000;	????	
     8ec:	16 6f 02 00 	addc	2(r15),	r6	;0x0002(r15)
     8f0:	00 01       	.word	0x0100;	????	
     8f2:	6d f6       	and.b	@r6,	r13	
     8f4:	00 00       	.word	0x0000;	????	
     8f6:	00 07       	.word	0x0700;	????	
     8f8:	06 00       	.word	0x0006;	????	
     8fa:	00 17       	.word	0x1700;	????	
     8fc:	cb 01       	.word	0x01cb;	????	
     8fe:	00 00       	.word	0x0000;	????	
     900:	01 6f       	addc	r15,	r1	
     902:	9d 00       	.word	0x009d;	????	
     904:	00 00       	.word	0x0000;	????	
     906:	03 91       	.word	0x9103;	????	Illegal as 2-op instr
     908:	a0 7f 00 09 	subc	@r15,	2304(r0);PC rel. 0x120a
     90c:	02 48       	mov	r8,	r2	
     90e:	01 00       	.word	0x0001;	????	
     910:	00 00       	.word	0x0000;	????	
     912:	50 02       	.word	0x0250;	????	
     914:	00 00       	.word	0x0000;	????	
     916:	02 00       	.word	0x0002;	????	
     918:	01 03       	.word	0x0301;	????	
     91a:	00 00       	.word	0x0000;	????	
     91c:	02 01       	.word	0x0102;	????	
     91e:	16 01       	.word	0x0116;	????	
     920:	00 00       	.word	0x0000;	????	
     922:	01 9c       	cmp	r12,	r1	
     924:	03 00       	.word	0x0003;	????	
     926:	00 26       	jz	$-1022   	;abs 0x528
     928:	03 00       	.word	0x0003;	????	
     92a:	00 ee       	xor	r14,	r0	
     92c:	c6 58 c9 95 	add.b	r8,	-27191(r6);0x95c9(r6)
     930:	03 00       	.word	0x0003;	????	
     932:	00 02       	.word	0x0200;	????	
     934:	b5 03       	.word	0x03b5;	????	
     936:	00 00       	.word	0x0000;	????	
     938:	02 28       	jnc	$+6      	;abs 0x93e
     93a:	2c 00       	.word	0x002c;	????	
     93c:	00 00       	.word	0x0000;	????	
     93e:	03 02       	.word	0x0203;	????	
     940:	6b 03       	.word	0x036b;	????	
     942:	00 00       	.word	0x0000;	????	
     944:	02 bc       	bit	r12,	r2	
     946:	03 00       	.word	0x0003;	????	
     948:	00 02       	.word	0x0200;	????	
     94a:	66 21       	jnz	$+718    	;abs 0xc18
     94c:	00 00       	.word	0x0000;	????	
     94e:	00 04       	.word	0x0400;	????	
     950:	88 03       	.word	0x0388;	????	
     952:	00 00       	.word	0x0000;	????	
     954:	01 59       	add	r9,	r1	
     956:	01 ee       	xor	r14,	r1	
     958:	c6 58 c7 20 	add.b	r8,	8391(r6);0x20c7(r6)
     95c:	06 00       	.word	0x0006;	????	
     95e:	00 87       	sub	r7,	r0	
     960:	00 00       	.word	0x0000;	????	
     962:	00 05       	.word	0x0500;	????	
     964:	78 00       	.word	0x0078;	????	
     966:	01 59       	add	r9,	r1	
     968:	87 00       	.word	0x0087;	????	
     96a:	00 00       	.word	0x0000;	????	
     96c:	54 06       	.word	0x0654;	????	
     96e:	00 00       	.word	0x0000;	????	
     970:	05 64       	addc	r4,	r5	
     972:	70 00       	.word	0x0070;	????	
     974:	01 59       	add	r9,	r1	
     976:	8e 00       	.word	0x008e;	????	
     978:	00 00       	.word	0x0000;	????	
     97a:	70 06       	.word	0x0670;	????	
     97c:	00 00       	.word	0x0000;	????	
     97e:	06 63       	adc	r6		
     980:	00 01       	.word	0x0100;	????	
     982:	5b 99 00 00 	cmp.b	0(r9),	r11	;0x0000(r9)
     986:	00 82       	sub	r2,	r0	
     988:	06 00       	.word	0x0006;	????	
     98a:	00 06       	.word	0x0600;	????	
     98c:	64 00       	.word	0x0064;	????	
     98e:	01 5c       	add	r12,	r1	
     990:	87 00       	.word	0x0087;	????	
     992:	00 00       	.word	0x0000;	????	
     994:	96 06       	.word	0x0696;	????	
     996:	00 00       	.word	0x0000;	????	
     998:	00 07       	.word	0x0700;	????	
     99a:	04 07       	.word	0x0704;	????	
     99c:	91 01       	.word	0x0191;	????	
     99e:	00 00       	.word	0x0000;	????	
     9a0:	08 02       	.word	0x0208;	????	
     9a2:	94 00       	.word	0x0094;	????	
     9a4:	00 00       	.word	0x0000;	????	
     9a6:	09 87       	sub	r7,	r9	
     9a8:	00 00       	.word	0x0000;	????	
     9aa:	00 07       	.word	0x0700;	????	
     9ac:	01 06       	.word	0x0601;	????	
     9ae:	87 01       	.word	0x0187;	????	
     9b0:	00 00       	.word	0x0000;	????	
     9b2:	0a 96       	cmp	r6,	r10	
     9b4:	03 00       	.word	0x0003;	????	
     9b6:	00 01       	.word	0x0100;	????	
     9b8:	53 01       	.word	0x0153;	????	
     9ba:	58 c7 66 c7 	bic.b	-14490(r7),r8	;0xc766(r7)
     9be:	02 71       	subc	r1,	r2	
     9c0:	02 d0       	bis	r0,	r2	
     9c2:	00 00       	.word	0x0000;	????	
     9c4:	00 05       	.word	0x0500;	????	
     9c6:	6e 00       	.word	0x006e;	????	
     9c8:	01 53       	add	#0,	r1	;r3 As==00
     9ca:	d0 00       	.word	0x00d0;	????	
     9cc:	00 00       	.word	0x0000;	????	
     9ce:	ae 06       	.word	0x06ae;	????	
     9d0:	00 00       	.word	0x0000;	????	
     9d2:	0b 68       	addc	r8,	r11	
     9d4:	65 78       	subc.b	@r8,	r5	
     9d6:	00 01       	.word	0x0100;	????	
     9d8:	55 e7 00 00 	xor.b	0(r7),	r5	;0x0000(r7)
     9dc:	00 03       	.word	0x0300;	????	
     9de:	03 84       	.word	0x8403;	????	Illegal as 2-op instr
     9e0:	cf 00       	.word	0x00cf;	????	
     9e2:	07 02       	.word	0x0207;	????	
     9e4:	07 96       	cmp	r6,	r7	
     9e6:	01 00       	.word	0x0001;	????	
     9e8:	00 0c       	.word	0x0c00;	????	
     9ea:	99 00       	.word	0x0099;	????	
     9ec:	00 00       	.word	0x0000;	????	
     9ee:	e7 00       	.word	0x00e7;	????	
     9f0:	00 00       	.word	0x0000;	????	
     9f2:	0d d0       	bis	r0,	r13	
     9f4:	00 00       	.word	0x0000;	????	
     9f6:	00 0f       	.word	0x0f00;	????	
     9f8:	00 09       	.word	0x0900;	????	
     9fa:	d7 00       	.word	0x00d7;	????	
     9fc:	00 00       	.word	0x0000;	????	
     9fe:	0e 01       	.word	0x010e;	????	
     a00:	ab 03       	.word	0x03ab;	????	
     a02:	00 00       	.word	0x0000;	????	
     a04:	01 18       	.word	0x1801;	????	
     a06:	01 66       	addc	r6,	r1	
     a08:	c7 7a c7 b9 	subc.b	r10,	-17977(r7);0xb9c7(r7)
     a0c:	06 00       	.word	0x0006;	????	
     a0e:	00 1e       	.word	0x1e00;	????	
     a10:	01 00       	.word	0x0001;	????	
     a12:	00 0f       	.word	0x0f00;	????	
     a14:	b7 01       	.word	0x01b7;	????	
     a16:	00 00       	.word	0x0000;	????	
     a18:	01 18       	.word	0x1801;	????	
     a1a:	1e 01       	.word	0x011e;	????	
     a1c:	00 00       	.word	0x0000;	????	
     a1e:	cd 06       	.word	0x06cd;	????	
     a20:	00 00       	.word	0x0000;	????	
     a22:	06 69       	addc	r9,	r6	
     a24:	00 01       	.word	0x0100;	????	
     a26:	1a 24       	jz	$+54     	;abs 0xa5c
     a28:	01 00       	.word	0x0001;	????	
     a2a:	00 d8       	bis	r8,	r0	
     a2c:	06 00       	.word	0x0006;	????	
     a2e:	00 00       	.word	0x0000;	????	
     a30:	08 02       	.word	0x0208;	????	
     a32:	99 00       	.word	0x0099;	????	
     a34:	00 00       	.word	0x0000;	????	
     a36:	10 02       	.word	0x0210;	????	
     a38:	05 69       	addc	r9,	r5	
     a3a:	6e 74       	subc.b	@r4,	r14	
     a3c:	00 0e       	.word	0x0e00;	????	
     a3e:	01 7d       	subc	r13,	r1	
     a40:	03 00       	.word	0x0003;	????	
     a42:	00 01       	.word	0x0100;	????	
     a44:	21 01       	.word	0x0121;	????	
     a46:	7a c7       	bic.b	@r7+,	r10	
     a48:	f4 c7 e4 06 	bic.b	@r7+,	1764(r4);0x06e4(r4)
     a4c:	00 00       	.word	0x0000;	????	
     a4e:	76 01       	.word	0x0176;	????	
     a50:	00 00       	.word	0x0000;	????	
     a52:	05 6e       	addc	r14,	r5	
     a54:	00 01       	.word	0x0100;	????	
     a56:	21 24       	jz	$+68     	;abs 0xa9a
     a58:	01 00       	.word	0x0001;	????	
     a5a:	00 10       	rrc	r0		
     a5c:	07 00       	.word	0x0007;	????	
     a5e:	00 11       	rra	r0		
     a60:	c4 03       	.word	0x03c4;	????	
     a62:	00 00       	.word	0x0000;	????	
     a64:	01 23       	jnz	$-508    	;abs 0x868
     a66:	76 01       	.word	0x0176;	????	
     a68:	00 00       	.word	0x0000;	????	
     a6a:	02 91       	cmp	r1,	r2	
     a6c:	58 06       	.word	0x0658;	????	
     a6e:	69 00       	.word	0x0069;	????	
     a70:	01 24       	jz	$+4      	;abs 0xa74
     a72:	24 01       	.word	0x0124;	????	
     a74:	00 00       	.word	0x0000;	????	
     a76:	37 07       	.word	0x0737;	????	
     a78:	00 00       	.word	0x0000;	????	
     a7a:	06 6a       	addc	r10,	r6	
     a7c:	00 01       	.word	0x0100;	????	
     a7e:	25 24       	jz	$+76     	;abs 0xaca
     a80:	01 00       	.word	0x0001;	????	
     a82:	00 42       	br	r2		
     a84:	07 00       	.word	0x0007;	????	
     a86:	00 00       	.word	0x0000;	????	
     a88:	0c 24       	jz	$+26     	;abs 0xaa2
     a8a:	01 00       	.word	0x0001;	????	
     a8c:	00 86       	sub	r6,	r0	
     a8e:	01 00       	.word	0x0001;	????	
     a90:	00 0d       	.word	0x0d00;	????	
     a92:	d0 00       	.word	0x00d0;	????	
     a94:	00 00       	.word	0x0000;	????	
     a96:	0f 00       	.word	0x000f;	????	
     a98:	0e 01       	.word	0x010e;	????	
     a9a:	1b 03       	.word	0x031b;	????	
     a9c:	00 00       	.word	0x0000;	????	
     a9e:	01 36       	jge	$-1020   	;abs 0x6a2
     aa0:	01 f4       	and	r4,	r1	
     aa2:	c7 2e       	jc	$-624    	;abs 0x832
     aa4:	c8 4f 07 00 	mov.b	r15,	7(r8)	;0x0007(r8)
     aa8:	00 c5       	bic	r5,	r0	
     aaa:	01 00       	.word	0x0001;	????	
     aac:	00 05       	.word	0x0500;	????	
     aae:	6e 00       	.word	0x006e;	????	
     ab0:	01 36       	jge	$-1020   	;abs 0x6b4
     ab2:	24 01       	.word	0x0124;	????	
     ab4:	00 00       	.word	0x0000;	????	
     ab6:	6b 07       	.word	0x076b;	????	
     ab8:	00 00       	.word	0x0000;	????	
     aba:	0f 92       	cmp	r2,	r15	
     abc:	05 00       	.word	0x0005;	????	
     abe:	00 01       	.word	0x0100;	????	
     ac0:	36 24       	jz	$+110    	;abs 0xb2e
     ac2:	01 00       	.word	0x0001;	????	
     ac4:	00 7d       	subc	r13,	r0	
     ac6:	07 00       	.word	0x0007;	????	
     ac8:	00 06       	.word	0x0600;	????	
     aca:	69 00       	.word	0x0069;	????	
     acc:	01 38       	jl	$+4      	;abs 0xad0
     ace:	24 01       	.word	0x0124;	????	
     ad0:	00 00       	.word	0x0000;	????	
     ad2:	88 07       	.word	0x0788;	????	
     ad4:	00 00       	.word	0x0000;	????	
     ad6:	00 0e       	.word	0x0e00;	????	
     ad8:	01 60       	addc	r0,	r1	
     ada:	03 00       	.word	0x0003;	????	
     adc:	00 01       	.word	0x0100;	????	
     ade:	6a 01       	.word	0x016a;	????	
     ae0:	2e c8       	bic	@r8,	r14	
     ae2:	58 c9 9a 07 	bic.b	1946(r9),r8	;0x079a(r9)
     ae6:	00 00       	.word	0x0000;	????	
     ae8:	28 02       	.word	0x0228;	????	
     aea:	00 00       	.word	0x0000;	????	
     aec:	0f a4       	dadd	r4,	r15	
     aee:	03 00       	.word	0x0003;	????	
     af0:	00 01       	.word	0x0100;	????	
     af2:	6a 1e       	.word	0x1e6a;	????	
     af4:	01 00       	.word	0x0001;	????	
     af6:	00 c6       	bic	r6,	r0	
     af8:	07 00       	.word	0x0007;	????	
     afa:	00 12       	push	r0		
     afc:	06 63       	adc	r6		
     afe:	00 01       	.word	0x0100;	????	
     b00:	6c 99       	cmp.b	@r9,	r12	
     b02:	00 00       	.word	0x0000;	????	
     b04:	00 fb       	and	r11,	r0	
     b06:	07 00       	.word	0x0007;	????	
     b08:	00 06       	.word	0x0600;	????	
     b0a:	69 00       	.word	0x0069;	????	
     b0c:	01 6d       	addc	r13,	r1	
     b0e:	24 01       	.word	0x0124;	????	
     b10:	00 00       	.word	0x0000;	????	
     b12:	68 08       	.word	0x0868;	????	
     b14:	00 00       	.word	0x0000;	????	
     b16:	06 6e       	addc	r14,	r6	
     b18:	00 01       	.word	0x0100;	????	
     b1a:	6e 28       	jnc	$+222    	;abs 0xbf8
     b1c:	02 00       	.word	0x0002;	????	
     b1e:	00 8a       	sub	r10,	r0	
     b20:	08 00       	.word	0x0008;	????	
     b22:	00 06       	.word	0x0600;	????	
     b24:	61 00       	.word	0x0061;	????	
     b26:	01 70       	subc	r0,	r1	
     b28:	32 00       	.word	0x0032;	????	
     b2a:	00 00       	.word	0x0000;	????	
     b2c:	b5 08       	.word	0x08b5;	????	
     b2e:	00 00       	.word	0x0000;	????	
     b30:	13 8e       	.word	0x8e13;	????	Illegal as 2-op instr
     b32:	03 00       	.word	0x0003;	????	
     b34:	00 01       	.word	0x0100;	????	
     b36:	95 44 c9 00 	mov	201(r4),1031(r5);0x00c9(r4), 0x0407(r5)
     b3a:	07 04 
     b3c:	05 fb       	and	r11,	r5	
     b3e:	00 00       	.word	0x0000;	????	
     b40:	00 0c       	.word	0x0c00;	????	
     b42:	87 00       	.word	0x0087;	????	
     b44:	00 00       	.word	0x0000;	????	
     b46:	3f 02       	.word	0x023f;	????	
     b48:	00 00       	.word	0x0000;	????	
     b4a:	0d d0       	bis	r0,	r13	
     b4c:	00 00       	.word	0x0000;	????	
     b4e:	00 09       	.word	0x0900;	????	
     b50:	00 0b       	.word	0x0b00;	????	
     b52:	5f 64 76 00 	addc.b	118(r4),r15	;0x0076(r4)
     b56:	01 44       	mov	r4,	r1	
     b58:	4e 02       	.word	0x024e;	????	
     b5a:	00 00       	.word	0x0000;	????	
     b5c:	03 03       	.word	0x0303;	????	
     b5e:	5c cf 09 2f 	bic.b	12041(r15),r12	;0x2f09(r15)
     b62:	02 00       	.word	0x0002;	????	
     b64:	00 00       	.word	0x0000;	????	
     b66:	5a 00       	.word	0x005a;	????	
     b68:	00 00       	.word	0x0000;	????	
     b6a:	02 00       	.word	0x0002;	????	
     b6c:	01 04       	.word	0x0401;	????	
     b6e:	00 00       	.word	0x0000;	????	
     b70:	02 01       	.word	0x0102;	????	
     b72:	16 01       	.word	0x0116;	????	
     b74:	00 00       	.word	0x0000;	????	
     b76:	01 df       	bis	r15,	r1	
     b78:	03 00       	.word	0x0003;	????	
     b7a:	00 26       	jz	$-1022   	;abs 0x77c
     b7c:	03 00       	.word	0x0003;	????	
     b7e:	00 58       	add	r8,	r0	
     b80:	c9 64 c9 fe 	addc.b	r4,	-311(r9);0xfec9(r9)
     b84:	04 00       	.word	0x0004;	????	
     b86:	00 02       	.word	0x0200;	????	
     b88:	01 d4       	bis	r4,	r1	
     b8a:	03 00       	.word	0x0003;	????	
     b8c:	00 01       	.word	0x0100;	????	
     b8e:	17 01       	.word	0x0117;	????	
     b90:	58 c9 5e c9 	bic.b	-13986(r9),r8	;0xc95e(r9)
     b94:	02 71       	subc	r1,	r2	
     b96:	02 43       	clr	r2		
     b98:	00 00       	.word	0x0000;	????	
     b9a:	00 03       	.word	0x0300;	????	
     b9c:	63 00       	.word	0x0063;	????	
     b9e:	01 17       	.word	0x1701;	????	
     ba0:	43 00       	.word	0x0043;	????	
     ba2:	00 00       	.word	0x0000;	????	
     ba4:	06 09       	.word	0x0906;	????	
     ba6:	00 00       	.word	0x0000;	????	
     ba8:	00 04       	.word	0x0400;	????	
     baa:	01 06       	.word	0x0601;	????	
     bac:	87 01       	.word	0x0187;	????	
     bae:	00 00       	.word	0x0000;	????	
     bb0:	05 01       	.word	0x0105;	????	
     bb2:	cb 03       	.word	0x03cb;	????	
     bb4:	00 00       	.word	0x0000;	????	
     bb6:	01 1c       	.word	0x1c01;	????	
     bb8:	43 00       	.word	0x0043;	????	
     bba:	00 00       	.word	0x0000;	????	
     bbc:	5e c9 64 c9 	bic.b	-13980(r9),r14	;0xc964(r9)
     bc0:	02 71       	subc	r1,	r2	
     bc2:	02 00       	.word	0x0002;	????	
     bc4:	c3 01       	.word	0x01c3;	????	
     bc6:	00 00       	.word	0x0000;	????	
     bc8:	02 00       	.word	0x0002;	????	
     bca:	5b 04       	.word	0x045b;	????	
     bcc:	00 00       	.word	0x0000;	????	
     bce:	02 01       	.word	0x0102;	????	
     bd0:	16 01       	.word	0x0116;	????	
     bd2:	00 00       	.word	0x0000;	????	
     bd4:	01 03       	.word	0x0301;	????	
     bd6:	04 00       	.word	0x0004;	????	
     bd8:	00 2f       	jc	$-510    	;abs 0x9da
     bda:	04 00       	.word	0x0004;	????	
     bdc:	00 64       	addc	r4,	r0	
     bde:	c9 c6 ca 3f 	bic.b	r6,	16330(r9);0x3fca(r9)
     be2:	05 00       	.word	0x0005;	????	
     be4:	00 02       	.word	0x0200;	????	
     be6:	02 07       	.word	0x0702;	????	
     be8:	96 01       	.word	0x0196;	????	
     bea:	00 00       	.word	0x0000;	????	
     bec:	02 01       	.word	0x0102;	????	
     bee:	06 80       	sub	r0,	r6	
     bf0:	01 00       	.word	0x0001;	????	
     bf2:	00 03       	.word	0x0300;	????	
     bf4:	02 05       	.word	0x0502;	????	
     bf6:	69 6e       	addc.b	@r14,	r9	
     bf8:	74 00       	.word	0x0074;	????	
     bfa:	02 04       	.word	0x0402;	????	
     bfc:	05 fb       	and	r11,	r5	
     bfe:	00 00       	.word	0x0000;	????	
     c00:	00 02       	.word	0x0200;	????	
     c02:	08 05       	.word	0x0508;	????	
     c04:	f6 00       	.word	0x00f6;	????	
     c06:	00 00       	.word	0x0000;	????	
     c08:	02 01       	.word	0x0102;	????	
     c0a:	08 7e       	subc	r14,	r8	
     c0c:	01 00       	.word	0x0001;	????	
     c0e:	00 02       	.word	0x0200;	????	
     c10:	04 07       	.word	0x0704;	????	
     c12:	91 01       	.word	0x0191;	????	
     c14:	00 00       	.word	0x0000;	????	
     c16:	02 08       	.word	0x0802;	????	
     c18:	07 8c       	sub	r12,	r7	
     c1a:	01 00       	.word	0x0001;	????	
     c1c:	00 04       	.word	0x0400;	????	
     c1e:	01 95       	cmp	r5,	r1	
     c20:	04 00       	.word	0x0004;	????	
     c22:	00 01       	.word	0x0100;	????	
     c24:	2a 01       	.word	0x012a;	????	
     c26:	64 c9       	bic.b	@r9,	r4	
     c28:	8e ca 02 71 	bic	r10,	28930(r14);0x7102(r14)
     c2c:	02 8d       	sub	r13,	r2	
     c2e:	00 00       	.word	0x0000;	????	
     c30:	00 05       	.word	0x0500;	????	
     c32:	ee 03       	.word	0x03ee;	????	
     c34:	00 00       	.word	0x0000;	????	
     c36:	01 2a       	jnc	$-1020   	;abs 0x83a
     c38:	36 00       	.word	0x0036;	????	
     c3a:	00 00       	.word	0x0000;	????	
     c3c:	06 5e       	add	r14,	r6	
     c3e:	93 02       	.word	0x0293;	????	
     c40:	5f 93       	cmp.b	#1,	r15	;r3 As==01
     c42:	02 05       	.word	0x0502;	????	
     c44:	8c 04       	.word	0x048c;	????	
     c46:	00 00       	.word	0x0000;	????	
     c48:	01 2a       	jnc	$-1020   	;abs 0x84c
     c4a:	21 00       	.word	0x0021;	????	
     c4c:	00 00       	.word	0x0000;	????	
     c4e:	01 5d       	add	r13,	r1	
     c50:	00 04       	.word	0x0400;	????	
     c52:	01 c6       	bic	r6,	r1	
     c54:	04 00       	.word	0x0004;	????	
     c56:	00 01       	.word	0x0100;	????	
     c58:	25 01       	.word	0x0125;	????	
     c5a:	8e ca 9e ca 	bic	r10,	-13666(r14);0xca9e(r14)
     c5e:	02 71       	subc	r1,	r2	
     c60:	02 b1       	bit	r1,	r2	
     c62:	00 00       	.word	0x0000;	????	
     c64:	00 06       	.word	0x0600;	????	
     c66:	8c 04       	.word	0x048c;	????	
     c68:	00 00       	.word	0x0000;	????	
     c6a:	01 25       	jz	$+516    	;abs 0xe6e
     c6c:	21 00       	.word	0x0021;	????	
     c6e:	00 00       	.word	0x0000;	????	
     c70:	11 09       	.word	0x0911;	????	
     c72:	00 00       	.word	0x0000;	????	
     c74:	00 04       	.word	0x0400;	????	
     c76:	01 6a       	addc	r10,	r1	
     c78:	04 00       	.word	0x0004;	????	
     c7a:	00 01       	.word	0x0100;	????	
     c7c:	5d 01       	.word	0x015d;	????	
     c7e:	9e ca a4 ca 	bic	-13660(r10),28930(r14);0xcaa4(r10), 0x7102(r14)
     c82:	02 71 
     c84:	02 d3       	bis	#0,	r2	;r3 As==00
     c86:	00 00       	.word	0x0000;	????	
     c88:	00 05       	.word	0x0500;	????	
     c8a:	87 04       	.word	0x0487;	????	
     c8c:	00 00       	.word	0x0000;	????	
     c8e:	01 5d       	add	r13,	r1	
     c90:	44 00       	.word	0x0044;	????	
     c92:	00 00       	.word	0x0000;	????	
     c94:	01 5f       	add	r15,	r1	
     c96:	00 04       	.word	0x0400;	????	
     c98:	01 dd       	bis	r13,	r1	
     c9a:	04 00       	.word	0x0004;	????	
     c9c:	00 01       	.word	0x0100;	????	
     c9e:	62 01       	.word	0x0162;	????	
     ca0:	a4 ca b2 ca 	bic	@r10,	-13646(r4);0xcab2(r4)
     ca4:	02 71       	subc	r1,	r2	
     ca6:	02 f5       	and	r5,	r2	
     ca8:	00 00       	.word	0x0000;	????	
     caa:	00 05       	.word	0x0500;	????	
     cac:	87 04       	.word	0x0487;	????	
     cae:	00 00       	.word	0x0000;	????	
     cb0:	01 62       	addc	r2,	r1	
     cb2:	44 00       	.word	0x0044;	????	
     cb4:	00 00       	.word	0x0000;	????	
     cb6:	01 5f       	add	r15,	r1	
     cb8:	00 07       	.word	0x0700;	????	
     cba:	01 f7       	and	r7,	r1	
     cbc:	03 00       	.word	0x0003;	????	
     cbe:	00 01       	.word	0x0100;	????	
     cc0:	68 44       	mov.b	@r4,	r8	
     cc2:	00 00       	.word	0x0000;	????	
     cc4:	00 b2       	bit	r2,	r0	
     cc6:	ca b8 ca 02 	bit.b	r8,	714(r10);0x02ca(r10)
     cca:	71 02       	.word	0x0271;	????	
     ccc:	07 01       	.word	0x0107;	????	
     cce:	b1 04       	.word	0x04b1;	????	
     cd0:	00 00       	.word	0x0000;	????	
     cd2:	01 6d       	addc	r13,	r1	
     cd4:	44 00       	.word	0x0044;	????	
     cd6:	00 00       	.word	0x0000;	????	
     cd8:	b8 ca c6 ca 	bic	@r10+,	-13626(r8);0xcac6(r8)
     cdc:	02 71       	subc	r1,	r2	
     cde:	02 08       	.word	0x0802;	????	
     ce0:	f4 04       	.word	0x04f4;	????	
     ce2:	00 00       	.word	0x0000;	????	
     ce4:	02 a0       	dadd	r0,	r2	
     ce6:	f2 04       	.word	0x04f2;	????	
     ce8:	00 00       	.word	0x0000;	????	
     cea:	2c 01       	.word	0x012c;	????	
     cec:	00 00       	.word	0x0000;	????	
     cee:	01 01       	.word	0x0101;	????	
     cf0:	09 44       	mov	r4,	r9	
     cf2:	00 00       	.word	0x0000;	????	
     cf4:	00 0a       	.word	0x0a00;	????	
     cf6:	81 04       	.word	0x0481;	????	
     cf8:	00 00       	.word	0x0000;	????	
     cfa:	02 e4       	xor	r4,	r2	
     cfc:	01 7f       	subc	r15,	r1	
     cfe:	04 00       	.word	0x0004;	????	
     d00:	00 2c       	jc	$+2      	;abs 0xd02
     d02:	01 00       	.word	0x0001;	????	
     d04:	00 01       	.word	0x0100;	????	
     d06:	01 0a       	.word	0x0a01;	????	
     d08:	78 04       	.word	0x0478;	????	
     d0a:	00 00       	.word	0x0000;	????	
     d0c:	02 e6       	xor	r6,	r2	
     d0e:	01 76       	subc	r6,	r1	
     d10:	04 00       	.word	0x0004;	????	
     d12:	00 2c       	jc	$+2      	;abs 0xd14
     d14:	01 00       	.word	0x0001;	????	
     d16:	00 01       	.word	0x0100;	????	
     d18:	01 0a       	.word	0x0a01;	????	
     d1a:	26 04       	.word	0x0426;	????	
     d1c:	00 00       	.word	0x0000;	????	
     d1e:	02 b3       	bit	#0,	r2	;r3 As==00
     d20:	02 24       	jz	$+6      	;abs 0xd26
     d22:	04 00       	.word	0x0004;	????	
     d24:	00 2c       	jc	$+2      	;abs 0xd26
     d26:	01 00       	.word	0x0001;	????	
     d28:	00 01       	.word	0x0100;	????	
     d2a:	01 0a       	.word	0x0a01;	????	
     d2c:	fb 04       	.word	0x04fb;	????	
     d2e:	00 00       	.word	0x0000;	????	
     d30:	02 b5       	bit	r5,	r2	
     d32:	02 f9       	and	r9,	r2	
     d34:	04 00       	.word	0x0004;	????	
     d36:	00 2c       	jc	$+2      	;abs 0xd38
     d38:	01 00       	.word	0x0001;	????	
     d3a:	00 01       	.word	0x0100;	????	
     d3c:	01 0a       	.word	0x0a01;	????	
     d3e:	05 05       	.word	0x0505;	????	
     d40:	00 00       	.word	0x0000;	????	
     d42:	02 b7       	bit	r7,	r2	
     d44:	02 03       	.word	0x0302;	????	
     d46:	05 00       	.word	0x0005;	????	
     d48:	00 2c       	jc	$+2      	;abs 0xd4a
     d4a:	01 00       	.word	0x0001;	????	
     d4c:	00 01       	.word	0x0100;	????	
     d4e:	01 0a       	.word	0x0a01;	????	
     d50:	d4 04       	.word	0x04d4;	????	
     d52:	00 00       	.word	0x0000;	????	
     d54:	02 b9       	bit	r9,	r2	
     d56:	02 d2       	bis	r2,	r2	
     d58:	04 00       	.word	0x0004;	????	
     d5a:	00 2c       	jc	$+2      	;abs 0xd5c
     d5c:	01 00       	.word	0x0001;	????	
     d5e:	00 01       	.word	0x0100;	????	
     d60:	01 0a       	.word	0x0a01;	????	
     d62:	1a 04       	.word	0x041a;	????	
     d64:	00 00       	.word	0x0000;	????	
     d66:	02 bd       	bit	r13,	r2	
     d68:	02 18       	.word	0x1802;	????	
     d6a:	04 00       	.word	0x0004;	????	
     d6c:	00 af       	dadd	r15,	r0	
     d6e:	01 00       	.word	0x0001;	????	
     d70:	00 01       	.word	0x0100;	????	
     d72:	01 0b       	.word	0x0b01;	????	
     d74:	2c 01       	.word	0x012c;	????	
     d76:	00 00       	.word	0x0000;	????	
     d78:	0a a7       	dadd	r7,	r10	
     d7a:	04 00       	.word	0x0004;	????	
     d7c:	00 02       	.word	0x0200;	????	
     d7e:	bf 02       	.word	0x02bf;	????	
     d80:	a5 04       	.word	0x04a5;	????	
     d82:	00 00       	.word	0x0000;	????	
     d84:	2c 01       	.word	0x012c;	????	
     d86:	00 00       	.word	0x0000;	????	
     d88:	01 01       	.word	0x0101;	????	
     d8a:	00 84       	sub	r4,	r0	
     d8c:	00 00       	.word	0x0000;	????	
     d8e:	00 02       	.word	0x0200;	????	
     d90:	00 05       	.word	0x0500;	????	
     d92:	05 00       	.word	0x0005;	????	
     d94:	00 02       	.word	0x0200;	????	
     d96:	01 5e       	add	r14,	r1	
     d98:	06 00       	.word	0x0006;	????	
     d9a:	00 c6       	bic	r6,	r0	
     d9c:	ca de ca 2e 	bis.b	r14,	11978(r10);0x2eca(r10)
     da0:	2e 2f       	jc	$-418    	;abs 0xbfe
     da2:	2e 2e       	jc	$-930    	;abs 0xa00
     da4:	2f 2e       	jc	$-928    	;abs 0xa04
     da6:	2e 2f       	jc	$-418    	;abs 0xc04
     da8:	2e 2e       	jc	$-930    	;abs 0xa06
     daa:	2f 67       	addc	@r7,	r15	
     dac:	63 63       	.word	0x6363;	????	Illegal as 2-op instr
     dae:	2f 6c       	addc	@r12,	r15	
     db0:	69 62       	addc.b	#4,	r9	;r2 As==10
     db2:	67 63       	addc.b	#2,	r7	;r3 As==10
     db4:	63 2f       	jc	$-312    	;abs 0xc7c
     db6:	2e 2e       	jc	$-930    	;abs 0xa14
     db8:	2f 67       	addc	@r7,	r15	
     dba:	63 63       	.word	0x6363;	????	Illegal as 2-op instr
     dbc:	2f 63       	addc	#2,	r15	;r3 As==10
     dbe:	6f 6e       	addc.b	@r14,	r15	
     dc0:	66 69       	addc.b	@r9,	r6	
     dc2:	67 2f       	jc	$-304    	;abs 0xc92
     dc4:	6d 73       	subc.b	#2,	r13	;r3 As==10
     dc6:	70 34       	jge	$+226    	;abs 0xea8
     dc8:	33 30       	jn	$+104    	;abs 0xe30
     dca:	2f 6c       	addc	@r12,	r15	
     dcc:	69 62       	addc.b	#4,	r9	;r2 As==10
     dce:	67 63       	addc.b	#2,	r7	;r3 As==10
     dd0:	63 2e       	jc	$-824    	;abs 0xa98
     dd2:	53 00       	.word	0x0053;	????	
     dd4:	2f 55       	add	@r5,	r15	
     dd6:	73 65       	.word	0x6573;	????	Illegal as 2-op instr
     dd8:	72 73       	subc.b	#-1,	r2	;r3 As==11
     dda:	2f 72       	subc	#4,	r15	;r2 As==10
     ddc:	77 65       	addc.b	@r5+,	r7	
     dde:	73 73       	.word	0x7373;	????	Illegal as 2-op instr
     de0:	65 6c       	addc.b	@r12,	r5	
     de2:	73 2f       	jc	$-280    	;abs 0xcca
     de4:	6d 73       	subc.b	#2,	r13	;r3 As==10
     de6:	70 67       	addc.b	@r7+,	r0	
     de8:	63 63       	.word	0x6363;	????	Illegal as 2-op instr
     dea:	2f 42       	mov	#4,	r15	;r2 As==10
     dec:	55 49 4c 44 	mov.b	17484(r9),r5	;0x444c(r9)
     df0:	2f 67       	addc	@r7,	r15	
     df2:	63 63       	.word	0x6363;	????	Illegal as 2-op instr
     df4:	2f 6d       	addc	@r13,	r15	
     df6:	73 70       	.word	0x7073;	????	Illegal as 2-op instr
     df8:	34 33       	jn	$-406    	;abs 0xc62
     dfa:	30 2f       	jc	$-414    	;abs 0xc5c
     dfc:	6c 69       	addc.b	@r9,	r12	
     dfe:	62 67       	addc.b	@r7,	r2	
     e00:	63 63       	.word	0x6363;	????	Illegal as 2-op instr
     e02:	00 47       	br	r7		
     e04:	4e 55       	add.b	r5,	r14	
     e06:	20 41       	br	@r1		
     e08:	53 20       	jnz	$+168    	;abs 0xeb0
     e0a:	32 2e       	jc	$-922    	;abs 0xa70
     e0c:	32 31       	jn	$+614    	;abs 0x1072
     e0e:	2e 31       	jn	$+606    	;abs 0x106c
     e10:	00 01       	.word	0x0100;	????	
     e12:	80 84 00 00 	sub	r4,	0(r0)	;PC rel. 0x0e14
     e16:	00 02       	.word	0x0200;	????	
     e18:	00 19       	.word	0x1900;	????	
     e1a:	05 00       	.word	0x0005;	????	
     e1c:	00 02       	.word	0x0200;	????	
     e1e:	01 cc       	bic	r12,	r1	
     e20:	06 00       	.word	0x0006;	????	
     e22:	00 de       	bis	r14,	r0	
     e24:	ca 18       	.word	0x18ca;	????	
     e26:	cb 2e       	jc	$-616    	;abs 0xbbe
     e28:	2e 2f       	jc	$-418    	;abs 0xc86
     e2a:	2e 2e       	jc	$-930    	;abs 0xa88
     e2c:	2f 2e       	jc	$-928    	;abs 0xa8c
     e2e:	2e 2f       	jc	$-418    	;abs 0xc8c
     e30:	2e 2e       	jc	$-930    	;abs 0xa8e
     e32:	2f 67       	addc	@r7,	r15	
     e34:	63 63       	.word	0x6363;	????	Illegal as 2-op instr
     e36:	2f 6c       	addc	@r12,	r15	
     e38:	69 62       	addc.b	#4,	r9	;r2 As==10
     e3a:	67 63       	addc.b	#2,	r7	;r3 As==10
     e3c:	63 2f       	jc	$-312    	;abs 0xd04
     e3e:	2e 2e       	jc	$-930    	;abs 0xa9c
     e40:	2f 67       	addc	@r7,	r15	
     e42:	63 63       	.word	0x6363;	????	Illegal as 2-op instr
     e44:	2f 63       	addc	#2,	r15	;r3 As==10
     e46:	6f 6e       	addc.b	@r14,	r15	
     e48:	66 69       	addc.b	@r9,	r6	
     e4a:	67 2f       	jc	$-304    	;abs 0xd1a
     e4c:	6d 73       	subc.b	#2,	r13	;r3 As==10
     e4e:	70 34       	jge	$+226    	;abs 0xf30
     e50:	33 30       	jn	$+104    	;abs 0xeb8
     e52:	2f 6c       	addc	@r12,	r15	
     e54:	69 62       	addc.b	#4,	r9	;r2 As==10
     e56:	67 63       	addc.b	#2,	r7	;r3 As==10
     e58:	63 2e       	jc	$-824    	;abs 0xb20
     e5a:	53 00       	.word	0x0053;	????	
     e5c:	2f 55       	add	@r5,	r15	
     e5e:	73 65       	.word	0x6573;	????	Illegal as 2-op instr
     e60:	72 73       	subc.b	#-1,	r2	;r3 As==11
     e62:	2f 72       	subc	#4,	r15	;r2 As==10
     e64:	77 65       	addc.b	@r5+,	r7	
     e66:	73 73       	.word	0x7373;	????	Illegal as 2-op instr
     e68:	65 6c       	addc.b	@r12,	r5	
     e6a:	73 2f       	jc	$-280    	;abs 0xd52
     e6c:	6d 73       	subc.b	#2,	r13	;r3 As==10
     e6e:	70 67       	addc.b	@r7+,	r0	
     e70:	63 63       	.word	0x6363;	????	Illegal as 2-op instr
     e72:	2f 42       	mov	#4,	r15	;r2 As==10
     e74:	55 49 4c 44 	mov.b	17484(r9),r5	;0x444c(r9)
     e78:	2f 67       	addc	@r7,	r15	
     e7a:	63 63       	.word	0x6363;	????	Illegal as 2-op instr
     e7c:	2f 6d       	addc	@r13,	r15	
     e7e:	73 70       	.word	0x7073;	????	Illegal as 2-op instr
     e80:	34 33       	jn	$-406    	;abs 0xcea
     e82:	30 2f       	jc	$-414    	;abs 0xce4
     e84:	6c 69       	addc.b	@r9,	r12	
     e86:	62 67       	addc.b	@r7,	r2	
     e88:	63 63       	.word	0x6363;	????	Illegal as 2-op instr
     e8a:	00 47       	br	r7		
     e8c:	4e 55       	add.b	r5,	r14	
     e8e:	20 41       	br	@r1		
     e90:	53 20       	jnz	$+168    	;abs 0xf38
     e92:	32 2e       	jc	$-922    	;abs 0xaf8
     e94:	32 31       	jn	$+614    	;abs 0x10fa
     e96:	2e 31       	jn	$+606    	;abs 0x10f4
     e98:	00 01       	.word	0x0100;	????	
     e9a:	80 84 00 00 	sub	r4,	0(r0)	;PC rel. 0x0e9c
     e9e:	00 02       	.word	0x0200;	????	
     ea0:	00 2d       	jc	$+514    	;abs 0x10a2
     ea2:	05 00       	.word	0x0005;	????	
     ea4:	00 02       	.word	0x0200;	????	
     ea6:	01 48       	mov	r8,	r1	
     ea8:	07 00       	.word	0x0007;	????	
     eaa:	00 18       	.word	0x1800;	????	
     eac:	cb 3a       	jl	$-616    	;abs 0xc44
     eae:	cb 2e       	jc	$-616    	;abs 0xc46
     eb0:	2e 2f       	jc	$-418    	;abs 0xd0e
     eb2:	2e 2e       	jc	$-930    	;abs 0xb10
     eb4:	2f 2e       	jc	$-928    	;abs 0xb14
     eb6:	2e 2f       	jc	$-418    	;abs 0xd14
     eb8:	2e 2e       	jc	$-930    	;abs 0xb16
     eba:	2f 67       	addc	@r7,	r15	
     ebc:	63 63       	.word	0x6363;	????	Illegal as 2-op instr
     ebe:	2f 6c       	addc	@r12,	r15	
     ec0:	69 62       	addc.b	#4,	r9	;r2 As==10
     ec2:	67 63       	addc.b	#2,	r7	;r3 As==10
     ec4:	63 2f       	jc	$-312    	;abs 0xd8c
     ec6:	2e 2e       	jc	$-930    	;abs 0xb24
     ec8:	2f 67       	addc	@r7,	r15	
     eca:	63 63       	.word	0x6363;	????	Illegal as 2-op instr
     ecc:	2f 63       	addc	#2,	r15	;r3 As==10
     ece:	6f 6e       	addc.b	@r14,	r15	
     ed0:	66 69       	addc.b	@r9,	r6	
     ed2:	67 2f       	jc	$-304    	;abs 0xda2
     ed4:	6d 73       	subc.b	#2,	r13	;r3 As==10
     ed6:	70 34       	jge	$+226    	;abs 0xfb8
     ed8:	33 30       	jn	$+104    	;abs 0xf40
     eda:	2f 6c       	addc	@r12,	r15	
     edc:	69 62       	addc.b	#4,	r9	;r2 As==10
     ede:	67 63       	addc.b	#2,	r7	;r3 As==10
     ee0:	63 2e       	jc	$-824    	;abs 0xba8
     ee2:	53 00       	.word	0x0053;	????	
     ee4:	2f 55       	add	@r5,	r15	
     ee6:	73 65       	.word	0x6573;	????	Illegal as 2-op instr
     ee8:	72 73       	subc.b	#-1,	r2	;r3 As==11
     eea:	2f 72       	subc	#4,	r15	;r2 As==10
     eec:	77 65       	addc.b	@r5+,	r7	
     eee:	73 73       	.word	0x7373;	????	Illegal as 2-op instr
     ef0:	65 6c       	addc.b	@r12,	r5	
     ef2:	73 2f       	jc	$-280    	;abs 0xdda
     ef4:	6d 73       	subc.b	#2,	r13	;r3 As==10
     ef6:	70 67       	addc.b	@r7+,	r0	
     ef8:	63 63       	.word	0x6363;	????	Illegal as 2-op instr
     efa:	2f 42       	mov	#4,	r15	;r2 As==10
     efc:	55 49 4c 44 	mov.b	17484(r9),r5	;0x444c(r9)
     f00:	2f 67       	addc	@r7,	r15	
     f02:	63 63       	.word	0x6363;	????	Illegal as 2-op instr
     f04:	2f 6d       	addc	@r13,	r15	
     f06:	73 70       	.word	0x7073;	????	Illegal as 2-op instr
     f08:	34 33       	jn	$-406    	;abs 0xd72
     f0a:	30 2f       	jc	$-414    	;abs 0xd6c
     f0c:	6c 69       	addc.b	@r9,	r12	
     f0e:	62 67       	addc.b	@r7,	r2	
     f10:	63 63       	.word	0x6363;	????	Illegal as 2-op instr
     f12:	00 47       	br	r7		
     f14:	4e 55       	add.b	r5,	r14	
     f16:	20 41       	br	@r1		
     f18:	53 20       	jnz	$+168    	;abs 0xfc0
     f1a:	32 2e       	jc	$-922    	;abs 0xb80
     f1c:	32 31       	jn	$+614    	;abs 0x1182
     f1e:	2e 31       	jn	$+606    	;abs 0x117c
     f20:	00 01       	.word	0x0100;	????	
     f22:	80 dd 00 00 	bis	r13,	0(r0)	;PC rel. 0x0f24
     f26:	00 02       	.word	0x0200;	????	
     f28:	00 41       	br	r1		
     f2a:	05 00       	.word	0x0005;	????	
     f2c:	00 02       	.word	0x0200;	????	
     f2e:	01 16       	.word	0x1601;	????	
     f30:	01 00       	.word	0x0001;	????	
     f32:	00 01       	.word	0x0100;	????	
     f34:	4c 05       	.word	0x054c;	????	
     f36:	00 00       	.word	0x0000;	????	
     f38:	1c 05       	.word	0x051c;	????	
     f3a:	00 00       	.word	0x0000;	????	
     f3c:	3a cb       	bic	@r11+,	r10	
     f3e:	64 cb       	bic.b	@r11,	r4	
     f40:	b9 07       	.word	0x07b9;	????	
     f42:	00 00       	.word	0x0000;	????	
     f44:	02 04       	.word	0x0402;	????	
     f46:	05 fb       	and	r11,	r5	
     f48:	00 00       	.word	0x0000;	????	
     f4a:	00 03       	.word	0x0300;	????	
     f4c:	0d 05       	.word	0x050d;	????	
     f4e:	00 00       	.word	0x0000;	????	
     f50:	02 d4       	bis	r4,	r2	
     f52:	33 00       	.word	0x0033;	????	
     f54:	00 00       	.word	0x0000;	????	
     f56:	02 02       	.word	0x0202;	????	
     f58:	07 96       	cmp	r6,	r7	
     f5a:	01 00       	.word	0x0001;	????	
     f5c:	00 04       	.word	0x0400;	????	
     f5e:	02 05       	.word	0x0502;	????	
     f60:	69 6e       	addc.b	@r14,	r9	
     f62:	74 00       	.word	0x0074;	????	
     f64:	02 01       	.word	0x0102;	????	
     f66:	06 80       	sub	r0,	r6	
     f68:	01 00       	.word	0x0001;	????	
     f6a:	00 02       	.word	0x0200;	????	
     f6c:	08 05       	.word	0x0508;	????	
     f6e:	f6 00       	.word	0x00f6;	????	
     f70:	00 00       	.word	0x0000;	????	
     f72:	02 01       	.word	0x0102;	????	
     f74:	08 7e       	subc	r14,	r8	
     f76:	01 00       	.word	0x0001;	????	
     f78:	00 02       	.word	0x0200;	????	
     f7a:	04 07       	.word	0x0704;	????	
     f7c:	91 01       	.word	0x0191;	????	
     f7e:	00 00       	.word	0x0000;	????	
     f80:	02 08       	.word	0x0802;	????	
     f82:	07 8c       	sub	r12,	r7	
     f84:	01 00       	.word	0x0001;	????	
     f86:	00 02       	.word	0x0200;	????	
     f88:	02 07       	.word	0x0702;	????	
     f8a:	df 01       	.word	0x01df;	????	
     f8c:	00 00       	.word	0x0000;	????	
     f8e:	05 02       	.word	0x0205;	????	
     f90:	71 00       	.word	0x0071;	????	
     f92:	00 00       	.word	0x0000;	????	
     f94:	02 01       	.word	0x0102;	????	
     f96:	06 87       	sub	r7,	r6	
     f98:	01 00       	.word	0x0001;	????	
     f9a:	00 05       	.word	0x0500;	????	
     f9c:	02 7e       	subc	r14,	r2	
     f9e:	00 00       	.word	0x0000;	????	
     fa0:	00 06       	.word	0x0600;	????	
     fa2:	71 00       	.word	0x0071;	????	
     fa4:	00 00       	.word	0x0000;	????	
     fa6:	07 01       	.word	0x0107;	????	
     fa8:	14 05       	.word	0x0514;	????	
     faa:	00 00       	.word	0x0000;	????	
     fac:	01 29       	jnc	$+516    	;abs 0x11b0
     fae:	01 6b       	addc	r11,	r1	
     fb0:	00 00       	.word	0x0000;	????	
     fb2:	00 3a       	jl	$-1022   	;abs 0xbb4
     fb4:	cb 64 cb 1c 	addc.b	r4,	7371(r11);0x1ccb(r11)
     fb8:	09 00       	.word	0x0009;	????	
     fba:	00 08       	.word	0x0800;	????	
     fbc:	64 73       	subc.b	#2,	r4	;r3 As==10
     fbe:	74 00       	.word	0x0074;	????	
     fc0:	01 2a       	jnc	$-1020   	;abs 0xbc4
     fc2:	6b 00       	.word	0x006b;	????	
     fc4:	00 00       	.word	0x0000;	????	
     fc6:	01 5f       	add	r15,	r1	
     fc8:	09 73       	sbc	r9		
     fca:	72 63       	addc.b	#-1,	r2	;r3 As==11
     fcc:	00 01       	.word	0x0100;	????	
     fce:	2b 78       	subc	@r8,	r11	
     fd0:	00 00       	.word	0x0000;	????	
     fd2:	00 30       	jn	$+2      	;abs 0xfd4
     fd4:	09 00       	.word	0x0009;	????	
     fd6:	00 08       	.word	0x0800;	????	
     fd8:	6e 00       	.word	0x006e;	????	
     fda:	01 2c       	jc	$+4      	;abs 0xfde
     fdc:	28 00       	.word	0x0028;	????	
     fde:	00 00       	.word	0x0000;	????	
     fe0:	01 5d       	add	r13,	r1	
     fe2:	0a 42       	mov	r2,	r10	
     fe4:	cb 60 cb 0b 	addc.b	r0,	3019(r11);0x0bcb(r11)
     fe8:	64 00       	.word	0x0064;	????	
     fea:	01 30       	jn	$+4      	;abs 0xfee
     fec:	6b 00       	.word	0x006b;	????	
     fee:	00 00       	.word	0x0000;	????	
     ff0:	3b 09       	.word	0x093b;	????	
     ff2:	00 00       	.word	0x0000;	????	
     ff4:	0b 73       	sbc	r11		
     ff6:	00 01       	.word	0x0100;	????	
     ff8:	31 78       	subc	@r8+,	r1	
     ffa:	00 00       	.word	0x0000;	????	
     ffc:	00 46       	br	r6		
     ffe:	09 00       	.word	0x0009;	????	
    1000:	00 00       	.word	0x0000;	????	
    1002:	00 00       	.word	0x0000;	????	
    1004:	fa 00       	.word	0x00fa;	????	
    1006:	00 00       	.word	0x0000;	????	
    1008:	02 00       	.word	0x0002;	????	
    100a:	d5 05       	.word	0x05d5;	????	
    100c:	00 00       	.word	0x0000;	????	
    100e:	02 01       	.word	0x0102;	????	
    1010:	16 01       	.word	0x0116;	????	
    1012:	00 00       	.word	0x0000;	????	
    1014:	01 72       	subc	r2,	r1	
    1016:	05 00       	.word	0x0005;	????	
    1018:	00 1c       	.word	0x1c00;	????	
    101a:	05 00       	.word	0x0005;	????	
    101c:	00 64       	addc	r4,	r0	
    101e:	cb ce cb 4f 	bic.b	r14,	20427(r11);0x4fcb(r11)
    1022:	08 00       	.word	0x0008;	????	
    1024:	00 02       	.word	0x0200;	????	
    1026:	01 06       	.word	0x0601;	????	
    1028:	80 01       	.word	0x0180;	????	
    102a:	00 00       	.word	0x0000;	????	
    102c:	03 02       	.word	0x0203;	????	
    102e:	05 69       	addc	r9,	r5	
    1030:	6e 74       	subc.b	@r4,	r14	
    1032:	00 02       	.word	0x0200;	????	
    1034:	04 05       	.word	0x0504;	????	
    1036:	fb 00       	.word	0x00fb;	????	
    1038:	00 00       	.word	0x0000;	????	
    103a:	02 08       	.word	0x0802;	????	
    103c:	05 f6       	and	r6,	r5	
    103e:	00 00       	.word	0x0000;	????	
    1040:	00 02       	.word	0x0200;	????	
    1042:	01 08       	.word	0x0801;	????	
    1044:	7e 01       	.word	0x017e;	????	
    1046:	00 00       	.word	0x0000;	????	
    1048:	02 02       	.word	0x0202;	????	
    104a:	07 96       	cmp	r6,	r7	
    104c:	01 00       	.word	0x0001;	????	
    104e:	00 02       	.word	0x0200;	????	
    1050:	04 07       	.word	0x0704;	????	
    1052:	91 01       	.word	0x0191;	????	
    1054:	00 00       	.word	0x0000;	????	
    1056:	02 08       	.word	0x0802;	????	
    1058:	07 8c       	sub	r12,	r7	
    105a:	01 00       	.word	0x0001;	????	
    105c:	00 04       	.word	0x0400;	????	
    105e:	64 05       	.word	0x0564;	????	
    1060:	00 00       	.word	0x0000;	????	
    1062:	02 30       	jn	$+6      	;abs 0x1068
    1064:	3d 00       	.word	0x003d;	????	
    1066:	00 00       	.word	0x0000;	????	
    1068:	02 02       	.word	0x0202;	????	
    106a:	07 df       	bis	r15,	r7	
    106c:	01 00       	.word	0x0001;	????	
    106e:	00 04       	.word	0x0400;	????	
    1070:	84 05       	.word	0x0584;	????	
    1072:	00 00       	.word	0x0000;	????	
    1074:	02 32       	jn	$-1018   	;abs 0xc7a
    1076:	44 00       	.word	0x0044;	????	
    1078:	00 00       	.word	0x0000;	????	
    107a:	02 01       	.word	0x0102;	????	
    107c:	06 87       	sub	r7,	r6	
    107e:	01 00       	.word	0x0001;	????	
    1080:	00 04       	.word	0x0400;	????	
    1082:	0d 05       	.word	0x050d;	????	
    1084:	00 00       	.word	0x0000;	????	
    1086:	03 d4       	.word	0xd403;	????	Illegal as 2-op instr
    1088:	44 00       	.word	0x0044;	????	
    108a:	00 00       	.word	0x0000;	????	
    108c:	05 01       	.word	0x0105;	????	
    108e:	6b 05       	.word	0x056b;	????	
    1090:	00 00       	.word	0x0000;	????	
    1092:	01 39       	jl	$+516    	;abs 0x1296
    1094:	01 f5       	and	r5,	r1	
    1096:	00 00       	.word	0x0000;	????	
    1098:	00 64       	addc	r4,	r0	
    109a:	cb ce cb 61 	bic.b	r14,	25035(r11);0x61cb(r11)
    109e:	09 00       	.word	0x0009;	????	
    10a0:	00 f5       	and	r5,	r0	
    10a2:	00 00       	.word	0x0000;	????	
    10a4:	00 06       	.word	0x0600;	????	
    10a6:	5f 05       	.word	0x055f;	????	
    10a8:	00 00       	.word	0x0000;	????	
    10aa:	01 3a       	jl	$-1020   	;abs 0xcae
    10ac:	f5 00       	.word	0x00f5;	????	
    10ae:	00 00       	.word	0x0000;	????	
    10b0:	01 5f       	add	r15,	r1	
    10b2:	07 63       	adc	r7		
    10b4:	30 00       	.word	0x0030;	????	
    10b6:	01 3b       	jl	$-508    	;abs 0xeba
    10b8:	28 00       	.word	0x0028;	????	
    10ba:	00 00       	.word	0x0000;	????	
    10bc:	8d 09       	.word	0x098d;	????	
    10be:	00 00       	.word	0x0000;	????	
    10c0:	08 8a       	sub	r10,	r8	
    10c2:	05 00       	.word	0x0005;	????	
    10c4:	00 01       	.word	0x0100;	????	
    10c6:	3c 7d       	subc	@r13+,	r12	
    10c8:	00 00       	.word	0x0000;	????	
    10ca:	00 98       	cmp	r8,	r0	
    10cc:	09 00       	.word	0x0009;	????	
    10ce:	00 09       	.word	0x0900;	????	
    10d0:	74 00       	.word	0x0074;	????	
    10d2:	01 3f       	jmp	$-508    	;abs 0xed6
    10d4:	7d 00       	.word	0x007d;	????	
    10d6:	00 00       	.word	0x0000;	????	
    10d8:	a3 09       	.word	0x09a3;	????	
    10da:	00 00       	.word	0x0000;	????	
    10dc:	09 63       	adc	r9		
    10de:	00 01       	.word	0x0100;	????	
    10e0:	41 6b       	addc.b	r11,	r1	
    10e2:	00 00       	.word	0x0000;	????	
    10e4:	00 f5       	and	r5,	r0	
    10e6:	09 00       	.word	0x0009;	????	
    10e8:	00 09       	.word	0x0900;	????	
    10ea:	64 73       	subc.b	#2,	r4	;r3 As==10
    10ec:	74 00       	.word	0x0074;	????	
    10ee:	01 43       	clr	r1		
    10f0:	f7 00       	.word	0x00f7;	????	
    10f2:	00 00       	.word	0x0000;	????	
    10f4:	00 0a       	.word	0x0a00;	????	
    10f6:	00 00       	.word	0x0000;	????	
    10f8:	00 0a       	.word	0x0a00;	????	
    10fa:	02 0b       	.word	0x0b02;	????	
    10fc:	02 59       	add	r9,	r2	
    10fe:	00 00       	.word	0x0000;	????	
    1100:	00 00       	.word	0x0000;	????	
    1102:	4d 01       	.word	0x014d;	????	
    1104:	00 00       	.word	0x0000;	????	
    1106:	02 00       	.word	0x0002;	????	
    1108:	71 06       	.word	0x0671;	????	
    110a:	00 00       	.word	0x0000;	????	
    110c:	02 01       	.word	0x0102;	????	
    110e:	16 01       	.word	0x0116;	????	
    1110:	00 00       	.word	0x0000;	????	
    1112:	01 cd       	bic	r13,	r1	
    1114:	05 00       	.word	0x0005;	????	
    1116:	00 1c       	.word	0x1c00;	????	
    1118:	05 00       	.word	0x0005;	????	
    111a:	00 ce       	bic	r14,	r0	
    111c:	cb de cc 35 	bis.b	r14,	13772(r11);0x35cc(r11)
    1120:	09 00       	.word	0x0009;	????	
    1122:	00 02       	.word	0x0200;	????	
    1124:	04 05       	.word	0x0504;	????	
    1126:	fb 00       	.word	0x00fb;	????	
    1128:	00 00       	.word	0x0000;	????	
    112a:	03 0d       	.word	0x0d03;	????	
    112c:	05 00       	.word	0x0005;	????	
    112e:	00 02       	.word	0x0200;	????	
    1130:	d4 33       	jn	$-86     	;abs 0x10da
    1132:	00 00       	.word	0x0000;	????	
    1134:	00 02       	.word	0x0200;	????	
    1136:	02 07       	.word	0x0702;	????	
    1138:	96 01       	.word	0x0196;	????	
    113a:	00 00       	.word	0x0000;	????	
    113c:	04 02       	.word	0x0204;	????	
    113e:	05 69       	addc	r9,	r5	
    1140:	6e 74       	subc.b	@r4,	r14	
    1142:	00 02       	.word	0x0200;	????	
    1144:	01 06       	.word	0x0601;	????	
    1146:	80 01       	.word	0x0180;	????	
    1148:	00 00       	.word	0x0000;	????	
    114a:	02 08       	.word	0x0802;	????	
    114c:	05 f6       	and	r6,	r5	
    114e:	00 00       	.word	0x0000;	????	
    1150:	00 02       	.word	0x0200;	????	
    1152:	01 08       	.word	0x0801;	????	
    1154:	7e 01       	.word	0x017e;	????	
    1156:	00 00       	.word	0x0000;	????	
    1158:	02 04       	.word	0x0402;	????	
    115a:	07 91       	cmp	r1,	r7	
    115c:	01 00       	.word	0x0001;	????	
    115e:	00 02       	.word	0x0200;	????	
    1160:	08 07       	.word	0x0708;	????	
    1162:	8c 01       	.word	0x018c;	????	
    1164:	00 00       	.word	0x0000;	????	
    1166:	02 02       	.word	0x0202;	????	
    1168:	07 df       	bis	r15,	r7	
    116a:	01 00       	.word	0x0001;	????	
    116c:	00 02       	.word	0x0200;	????	
    116e:	01 06       	.word	0x0601;	????	
    1170:	87 01       	.word	0x0187;	????	
    1172:	00 00       	.word	0x0000;	????	
    1174:	05 01       	.word	0x0105;	????	
    1176:	df 05       	.word	0x05df;	????	
    1178:	00 00       	.word	0x0000;	????	
    117a:	01 1b       	.word	0x1b01;	????	
    117c:	01 03       	.word	0x0301;	????	
    117e:	01 00       	.word	0x0001;	????	
    1180:	00 ce       	bic	r14,	r0	
    1182:	cb d6 cc 3c 	bis.b	r6,	15564(r11);0x3ccc(r11)
    1186:	0a 00       	.word	0x000a;	????	
    1188:	00 03       	.word	0x0300;	????	
    118a:	01 00       	.word	0x0001;	????	
    118c:	00 06       	.word	0x0600;	????	
    118e:	92 05       	.word	0x0592;	????	
    1190:	00 00       	.word	0x0000;	????	
    1192:	01 1b       	.word	0x1b01;	????	
    1194:	28 00       	.word	0x0028;	????	
    1196:	00 00       	.word	0x0000;	????	
    1198:	88 0a       	.word	0x0a88;	????	
    119a:	00 00       	.word	0x0000;	????	
    119c:	07 a4       	dadd	r4,	r7	
    119e:	05 00       	.word	0x0005;	????	
    11a0:	00 01       	.word	0x0100;	????	
    11a2:	1d 6b 00 00 	addc	0(r11),	r13	;0x0000(r11)
    11a6:	00 03       	.word	0x0300;	????	
    11a8:	03 28       	jnc	$+8      	;abs 0x11b0
    11aa:	02 08       	.word	0x0802;	????	
    11ac:	a9 05       	.word	0x05a9;	????	
    11ae:	00 00       	.word	0x0000;	????	
    11b0:	01 1e       	.word	0x1e01;	????	
    11b2:	05 01       	.word	0x0105;	????	
    11b4:	00 00       	.word	0x0000;	????	
    11b6:	a1 0a       	.word	0x0aa1;	????	
    11b8:	00 00       	.word	0x0000;	????	
    11ba:	09 6b       	addc	r11,	r9	
    11bc:	6b 00       	.word	0x006b;	????	
    11be:	01 1f       	.word	0x1f01;	????	
    11c0:	28 00       	.word	0x0028;	????	
    11c2:	00 00       	.word	0x0000;	????	
    11c4:	08 b5       	bit	r5,	r8	
    11c6:	05 00       	.word	0x0005;	????	
    11c8:	00 01       	.word	0x0100;	????	
    11ca:	20 05       	.word	0x0520;	????	
    11cc:	01 00       	.word	0x0001;	????	
    11ce:	00 ac       	dadd	r12,	r0	
    11d0:	0a 00       	.word	0x000a;	????	
    11d2:	00 0a       	.word	0x0a00;	????	
    11d4:	66 00       	.word	0x0066;	????	
    11d6:	01 21       	jnz	$+516    	;abs 0x13da
    11d8:	6b 00       	.word	0x006b;	????	
    11da:	00 00       	.word	0x0000;	????	
    11dc:	e8 0a       	.word	0x0ae8;	????	
    11de:	00 00       	.word	0x0000;	????	
    11e0:	0b 0c       	.word	0x0c0b;	????	
    11e2:	00 00       	.word	0x0000;	????	
    11e4:	00 08       	.word	0x0800;	????	
    11e6:	91 05       	.word	0x0591;	????	
    11e8:	00 00       	.word	0x0000;	????	
    11ea:	01 2d       	jc	$+516    	;abs 0x13ee
    11ec:	28 00       	.word	0x0028;	????	
    11ee:	00 00       	.word	0x0000;	????	
    11f0:	0a 0b       	.word	0x0b0a;	????	
    11f2:	00 00       	.word	0x0000;	????	
    11f4:	08 be       	bit	r14,	r8	
    11f6:	05 00       	.word	0x0005;	????	
    11f8:	00 01       	.word	0x0100;	????	
    11fa:	2e 05       	.word	0x052e;	????	
    11fc:	01 00       	.word	0x0001;	????	
    11fe:	00 3c       	jmp	$+2      	;abs 0x1200
    1200:	0b 00       	.word	0x000b;	????	
    1202:	00 00       	.word	0x0000;	????	
    1204:	00 0c       	.word	0x0c00;	????	
    1206:	02 0d       	.word	0x0d02;	????	
    1208:	02 28       	jnc	$+6      	;abs 0x120e
    120a:	00 00       	.word	0x0000;	????	
    120c:	00 0e       	.word	0x0e00;	????	
    120e:	01 c8       	bic	r8,	r1	
    1210:	05 00       	.word	0x0005;	????	
    1212:	00 01       	.word	0x0100;	????	
    1214:	53 01       	.word	0x0153;	????	
    1216:	d6 cc de cc 	bic.b	-13090(r12),28930(r6);0xccde(r12), 0x7102(r6)
    121a:	02 71 
    121c:	02 38       	jl	$+6      	;abs 0x1222
    121e:	01 00       	.word	0x0001;	????	
    1220:	00 0f       	.word	0x0f00;	????	
    1222:	70 00       	.word	0x0070;	????	
    1224:	01 53       	add	#0,	r1	;r3 As==00
    1226:	03 01       	.word	0x0103;	????	
    1228:	00 00       	.word	0x0000;	????	
    122a:	01 5f       	add	r15,	r1	
    122c:	10 74 00 01 	subc	256(r4),r0	;0x0100(r4)
    1230:	55 05       	.word	0x0555;	????	
    1232:	01 00       	.word	0x0001;	????	
    1234:	00 03       	.word	0x0300;	????	
    1236:	7f 7e       	subc.b	@r14+,	r15	
    1238:	9f 00       	.word	0x009f;	????	
    123a:	11 33       	jn	$-476    	;abs 0x105e
    123c:	00 00       	.word	0x0000;	????	
    123e:	00 43       	clr	r0		
    1240:	01 00       	.word	0x0001;	????	
    1242:	00 12       	push	r0		
    1244:	00 13       	reti			
    1246:	97 05       	.word	0x0597;	????	
    1248:	00 00       	.word	0x0000;	????	
    124a:	03 38       	jl	$+8      	;abs 0x1252
    124c:	38 01       	.word	0x0138;	????	
    124e:	00 00       	.word	0x0000;	????	
    1250:	01 01       	.word	0x0101;	????	
    1252:	00 b0       	bit	r0,	r0	
    1254:	00 00       	.word	0x0000;	????	
    1256:	00 02       	.word	0x0200;	????	
    1258:	00 75       	subc	r5,	r0	
    125a:	07 00       	.word	0x0007;	????	
    125c:	00 02       	.word	0x0200;	????	
    125e:	01 16       	.word	0x1601;	????	
    1260:	01 00       	.word	0x0001;	????	
    1262:	00 01       	.word	0x0100;	????	
    1264:	f0 05       	.word	0x05f0;	????	
    1266:	00 00       	.word	0x0000;	????	
    1268:	1c 05       	.word	0x051c;	????	
    126a:	00 00       	.word	0x0000;	????	
    126c:	de cc 68 cd 	bic.b	-12952(r12),2580(r14);0xcd68(r12), 0x0a14(r14)
    1270:	14 0a 
    1272:	00 00       	.word	0x0000;	????	
    1274:	02 04       	.word	0x0402;	????	
    1276:	05 fb       	and	r11,	r5	
    1278:	00 00       	.word	0x0000;	????	
    127a:	00 02       	.word	0x0200;	????	
    127c:	02 07       	.word	0x0702;	????	
    127e:	96 01       	.word	0x0196;	????	
    1280:	00 00       	.word	0x0000;	????	
    1282:	03 02       	.word	0x0203;	????	
    1284:	05 69       	addc	r9,	r5	
    1286:	6e 74       	subc.b	@r4,	r14	
    1288:	00 02       	.word	0x0200;	????	
    128a:	01 06       	.word	0x0601;	????	
    128c:	80 01       	.word	0x0180;	????	
    128e:	00 00       	.word	0x0000;	????	
    1290:	02 08       	.word	0x0802;	????	
    1292:	05 f6       	and	r6,	r5	
    1294:	00 00       	.word	0x0000;	????	
    1296:	00 02       	.word	0x0200;	????	
    1298:	01 08       	.word	0x0801;	????	
    129a:	7e 01       	.word	0x017e;	????	
    129c:	00 00       	.word	0x0000;	????	
    129e:	02 04       	.word	0x0402;	????	
    12a0:	07 91       	cmp	r1,	r7	
    12a2:	01 00       	.word	0x0001;	????	
    12a4:	00 02       	.word	0x0200;	????	
    12a6:	08 07       	.word	0x0708;	????	
    12a8:	8c 01       	.word	0x018c;	????	
    12aa:	00 00       	.word	0x0000;	????	
    12ac:	02 02       	.word	0x0202;	????	
    12ae:	07 df       	bis	r15,	r7	
    12b0:	01 00       	.word	0x0001;	????	
    12b2:	00 02       	.word	0x0200;	????	
    12b4:	01 06       	.word	0x0601;	????	
    12b6:	87 01       	.word	0x0187;	????	
    12b8:	00 00       	.word	0x0000;	????	
    12ba:	04 02       	.word	0x0204;	????	
    12bc:	6d 00       	.word	0x006d;	????	
    12be:	00 00       	.word	0x0000;	????	
    12c0:	05 60       	addc	r0,	r5	
    12c2:	00 00       	.word	0x0000;	????	
    12c4:	00 06       	.word	0x0600;	????	
    12c6:	01 eb       	xor	r11,	r1	
    12c8:	05 00       	.word	0x0005;	????	
    12ca:	00 01       	.word	0x0100;	????	
    12cc:	06 01       	.word	0x0106;	????	
    12ce:	2f 00       	.word	0x002f;	????	
    12d0:	00 00       	.word	0x0000;	????	
    12d2:	de cc 68 cd 	bic.b	-12952(r12),2922(r14);0xcd68(r12), 0x0b6a(r14)
    12d6:	6a 0b 
    12d8:	00 00       	.word	0x0000;	????	
    12da:	07 70       	subc	r0,	r7	
    12dc:	00 01       	.word	0x0100;	????	
    12de:	06 67       	addc	r7,	r6	
    12e0:	00 00       	.word	0x0000;	????	
    12e2:	00 7e       	subc	r14,	r0	
    12e4:	0b 00       	.word	0x000b;	????	
    12e6:	00 08       	.word	0x0800;	????	
    12e8:	e6 05       	.word	0x05e6;	????	
    12ea:	00 00       	.word	0x0000;	????	
    12ec:	01 08       	.word	0x0801;	????	
    12ee:	2f 00       	.word	0x002f;	????	
    12f0:	00 00       	.word	0x0000;	????	
    12f2:	a0 0b       	.word	0x0ba0;	????	
    12f4:	00 00       	.word	0x0000;	????	
    12f6:	09 72       	subc	r2,	r9	
    12f8:	65 73       	subc.b	#2,	r5	;r3 As==10
    12fa:	00 01       	.word	0x0100;	????	
    12fc:	09 2f       	jc	$-492    	;abs 0x1110
    12fe:	00 00       	.word	0x0000;	????	
    1300:	00 c3       	bic	#0,	r0	;r3 As==00
    1302:	0b 00       	.word	0x000b;	????	
    1304:	00 00       	.word	0x0000;	????	
    1306:	00 6b       	addc	r11,	r0	
    1308:	00 00       	.word	0x0000;	????	
    130a:	00 02       	.word	0x0200;	????	
    130c:	00 f3       	and	#0,	r0	;r3 As==00
    130e:	07 00       	.word	0x0007;	????	
    1310:	00 02       	.word	0x0200;	????	
    1312:	01 82       	sub	r2,	r1	
    1314:	0a 00       	.word	0x000a;	????	
    1316:	00 00       	.word	0x0000;	????	
    1318:	c0 0c       	.word	0x0cc0;	????	
    131a:	c0 2e       	jc	$-638    	;abs 0x109c
    131c:	2e 2f       	jc	$-418    	;abs 0x117a
    131e:	2e 2e       	jc	$-930    	;abs 0xf7c
    1320:	2f 2e       	jc	$-928    	;abs 0xf80
    1322:	2e 2f       	jc	$-418    	;abs 0x1180
    1324:	67 63       	addc.b	#2,	r7	;r3 As==10
    1326:	63 2f       	jc	$-312    	;abs 0x11ee
    1328:	67 63       	addc.b	#2,	r7	;r3 As==10
    132a:	63 2f       	jc	$-312    	;abs 0x11f2
    132c:	63 6f       	.word	0x6f63;	????	Illegal as 2-op instr
    132e:	6e 66       	addc.b	@r6,	r14	
    1330:	69 67       	addc.b	@r7,	r9	
    1332:	2f 6d       	addc	@r13,	r15	
    1334:	73 70       	.word	0x7073;	????	Illegal as 2-op instr
    1336:	34 33       	jn	$-406    	;abs 0x11a0
    1338:	30 2f       	jc	$-414    	;abs 0x119a
    133a:	63 72       	.word	0x7263;	????	Illegal as 2-op instr
    133c:	74 30       	jn	$+234    	;abs 0x1426
    133e:	2e 53       	incd	r14		
    1340:	00 2f       	jc	$-510    	;abs 0x1142
    1342:	55 73       	subc.b	#1,	r5	;r3 As==01
    1344:	65 72       	subc.b	#4,	r5	;r2 As==10
    1346:	73 2f       	jc	$-280    	;abs 0x122e
    1348:	72 77       	subc.b	@r7+,	r2	
    134a:	65 73       	subc.b	#2,	r5	;r3 As==10
    134c:	73 65       	.word	0x6573;	????	Illegal as 2-op instr
    134e:	6c 73       	subc.b	#2,	r12	;r3 As==10
    1350:	2f 6d       	addc	@r13,	r15	
    1352:	73 70       	.word	0x7073;	????	Illegal as 2-op instr
    1354:	67 63       	addc.b	#2,	r7	;r3 As==10
    1356:	63 2f       	jc	$-312    	;abs 0x121e
    1358:	42 55       	add.b	r5,	r2	
    135a:	49 4c       	mov.b	r12,	r9	
    135c:	44 2f       	jc	$-374    	;abs 0x11e6
    135e:	67 63       	addc.b	#2,	r7	;r3 As==10
    1360:	63 2f       	jc	$-312    	;abs 0x1228
    1362:	67 63       	addc.b	#2,	r7	;r3 As==10
    1364:	63 00       	.word	0x0063;	????	
    1366:	47 4e       	mov.b	r14,	r7	
    1368:	55 20       	jnz	$+172    	;abs 0x1414
    136a:	41 53       	add.b	#0,	r1	;r3 As==00
    136c:	20 32       	jn	$-958    	;abs 0xfae
    136e:	2e 32       	jn	$-930    	;abs 0xfcc
    1370:	31 2e       	jc	$-924    	;abs 0xfd4
    1372:	31 00       	.word	0x0031;	????	
    1374:	01 80       	sub	r0,	r1	
    1376:	6b 00       	.word	0x006b;	????	
    1378:	00 00       	.word	0x0000;	????	
    137a:	02 00       	.word	0x0002;	????	
    137c:	07 08       	.word	0x0807;	????	
    137e:	00 00       	.word	0x0000;	????	
    1380:	02 01       	.word	0x0102;	????	
    1382:	d8 0a       	.word	0x0ad8;	????	
    1384:	00 00       	.word	0x0000;	????	
    1386:	0c c0       	bic	r0,	r12	
    1388:	10 c0 2e 2e 	bic	11822(r0),r0	;PC rel. 0x41b8
    138c:	2f 2e       	jc	$-928    	;abs 0xfec
    138e:	2e 2f       	jc	$-418    	;abs 0x11ec
    1390:	2e 2e       	jc	$-930    	;abs 0xfee
    1392:	2f 67       	addc	@r7,	r15	
    1394:	63 63       	.word	0x6363;	????	Illegal as 2-op instr
    1396:	2f 67       	addc	@r7,	r15	
    1398:	63 63       	.word	0x6363;	????	Illegal as 2-op instr
    139a:	2f 63       	addc	#2,	r15	;r3 As==10
    139c:	6f 6e       	addc.b	@r14,	r15	
    139e:	66 69       	addc.b	@r9,	r6	
    13a0:	67 2f       	jc	$-304    	;abs 0x1270
    13a2:	6d 73       	subc.b	#2,	r13	;r3 As==10
    13a4:	70 34       	jge	$+226    	;abs 0x1486
    13a6:	33 30       	jn	$+104    	;abs 0x140e
    13a8:	2f 63       	addc	#2,	r15	;r3 As==10
    13aa:	72 74       	subc.b	@r4+,	r2	
    13ac:	30 2e       	jc	$-926    	;abs 0x100e
    13ae:	53 00       	.word	0x0053;	????	
    13b0:	2f 55       	add	@r5,	r15	
    13b2:	73 65       	.word	0x6573;	????	Illegal as 2-op instr
    13b4:	72 73       	subc.b	#-1,	r2	;r3 As==11
    13b6:	2f 72       	subc	#4,	r15	;r2 As==10
    13b8:	77 65       	addc.b	@r5+,	r7	
    13ba:	73 73       	.word	0x7373;	????	Illegal as 2-op instr
    13bc:	65 6c       	addc.b	@r12,	r5	
    13be:	73 2f       	jc	$-280    	;abs 0x12a6
    13c0:	6d 73       	subc.b	#2,	r13	;r3 As==10
    13c2:	70 67       	addc.b	@r7+,	r0	
    13c4:	63 63       	.word	0x6363;	????	Illegal as 2-op instr
    13c6:	2f 42       	mov	#4,	r15	;r2 As==10
    13c8:	55 49 4c 44 	mov.b	17484(r9),r5	;0x444c(r9)
    13cc:	2f 67       	addc	@r7,	r15	
    13ce:	63 63       	.word	0x6363;	????	Illegal as 2-op instr
    13d0:	2f 67       	addc	@r7,	r15	
    13d2:	63 63       	.word	0x6363;	????	Illegal as 2-op instr
    13d4:	00 47       	br	r7		
    13d6:	4e 55       	add.b	r5,	r14	
    13d8:	20 41       	br	@r1		
    13da:	53 20       	jnz	$+168    	;abs 0x1482
    13dc:	32 2e       	jc	$-922    	;abs 0x1042
    13de:	32 31       	jn	$+614    	;abs 0x1644
    13e0:	2e 31       	jn	$+606    	;abs 0x163e
    13e2:	00 01       	.word	0x0100;	????	
    13e4:	80 6b 00 00 	addc	r11,	0(r0)	;PC rel. 0x13e6
    13e8:	00 02       	.word	0x0200;	????	
    13ea:	00 1b       	.word	0x1b00;	????	
    13ec:	08 00       	.word	0x0008;	????	
    13ee:	00 02       	.word	0x0200;	????	
    13f0:	01 2c       	jc	$+4      	;abs 0x13f4
    13f2:	0b 00       	.word	0x000b;	????	
    13f4:	00 10       	rrc	r0		
    13f6:	c0 28       	jnc	$+386    	;abs 0x1578
    13f8:	c0 2e       	jc	$-638    	;abs 0x117a
    13fa:	2e 2f       	jc	$-418    	;abs 0x1258
    13fc:	2e 2e       	jc	$-930    	;abs 0x105a
    13fe:	2f 2e       	jc	$-928    	;abs 0x105e
    1400:	2e 2f       	jc	$-418    	;abs 0x125e
    1402:	67 63       	addc.b	#2,	r7	;r3 As==10
    1404:	63 2f       	jc	$-312    	;abs 0x12cc
    1406:	67 63       	addc.b	#2,	r7	;r3 As==10
    1408:	63 2f       	jc	$-312    	;abs 0x12d0
    140a:	63 6f       	.word	0x6f63;	????	Illegal as 2-op instr
    140c:	6e 66       	addc.b	@r6,	r14	
    140e:	69 67       	addc.b	@r7,	r9	
    1410:	2f 6d       	addc	@r13,	r15	
    1412:	73 70       	.word	0x7073;	????	Illegal as 2-op instr
    1414:	34 33       	jn	$-406    	;abs 0x127e
    1416:	30 2f       	jc	$-414    	;abs 0x1278
    1418:	63 72       	.word	0x7263;	????	Illegal as 2-op instr
    141a:	74 30       	jn	$+234    	;abs 0x1504
    141c:	2e 53       	incd	r14		
    141e:	00 2f       	jc	$-510    	;abs 0x1220
    1420:	55 73       	subc.b	#1,	r5	;r3 As==01
    1422:	65 72       	subc.b	#4,	r5	;r2 As==10
    1424:	73 2f       	jc	$-280    	;abs 0x130c
    1426:	72 77       	subc.b	@r7+,	r2	
    1428:	65 73       	subc.b	#2,	r5	;r3 As==10
    142a:	73 65       	.word	0x6573;	????	Illegal as 2-op instr
    142c:	6c 73       	subc.b	#2,	r12	;r3 As==10
    142e:	2f 6d       	addc	@r13,	r15	
    1430:	73 70       	.word	0x7073;	????	Illegal as 2-op instr
    1432:	67 63       	addc.b	#2,	r7	;r3 As==10
    1434:	63 2f       	jc	$-312    	;abs 0x12fc
    1436:	42 55       	add.b	r5,	r2	
    1438:	49 4c       	mov.b	r12,	r9	
    143a:	44 2f       	jc	$-374    	;abs 0x12c4
    143c:	67 63       	addc.b	#2,	r7	;r3 As==10
    143e:	63 2f       	jc	$-312    	;abs 0x1306
    1440:	67 63       	addc.b	#2,	r7	;r3 As==10
    1442:	63 00       	.word	0x0063;	????	
    1444:	47 4e       	mov.b	r14,	r7	
    1446:	55 20       	jnz	$+172    	;abs 0x14f2
    1448:	41 53       	add.b	#0,	r1	;r3 As==00
    144a:	20 32       	jn	$-958    	;abs 0x108c
    144c:	2e 32       	jn	$-930    	;abs 0x10aa
    144e:	31 2e       	jc	$-924    	;abs 0x10b2
    1450:	31 00       	.word	0x0031;	????	
    1452:	01 80       	sub	r0,	r1	
    1454:	6b 00       	.word	0x006b;	????	
    1456:	00 00       	.word	0x0000;	????	
    1458:	02 00       	.word	0x0002;	????	
    145a:	2f 08       	.word	0x082f;	????	
    145c:	00 00       	.word	0x0000;	????	
    145e:	02 01       	.word	0x0102;	????	
    1460:	86 0b       	.word	0x0b86;	????	
    1462:	00 00       	.word	0x0000;	????	
    1464:	28 c0       	bic	@r0,	r8	
    1466:	3e c0 2e 2e 	bic	#11822,	r14	;#0x2e2e
    146a:	2f 2e       	jc	$-928    	;abs 0x10ca
    146c:	2e 2f       	jc	$-418    	;abs 0x12ca
    146e:	2e 2e       	jc	$-930    	;abs 0x10cc
    1470:	2f 67       	addc	@r7,	r15	
    1472:	63 63       	.word	0x6363;	????	Illegal as 2-op instr
    1474:	2f 67       	addc	@r7,	r15	
    1476:	63 63       	.word	0x6363;	????	Illegal as 2-op instr
    1478:	2f 63       	addc	#2,	r15	;r3 As==10
    147a:	6f 6e       	addc.b	@r14,	r15	
    147c:	66 69       	addc.b	@r9,	r6	
    147e:	67 2f       	jc	$-304    	;abs 0x134e
    1480:	6d 73       	subc.b	#2,	r13	;r3 As==10
    1482:	70 34       	jge	$+226    	;abs 0x1564
    1484:	33 30       	jn	$+104    	;abs 0x14ec
    1486:	2f 63       	addc	#2,	r15	;r3 As==10
    1488:	72 74       	subc.b	@r4+,	r2	
    148a:	30 2e       	jc	$-926    	;abs 0x10ec
    148c:	53 00       	.word	0x0053;	????	
    148e:	2f 55       	add	@r5,	r15	
    1490:	73 65       	.word	0x6573;	????	Illegal as 2-op instr
    1492:	72 73       	subc.b	#-1,	r2	;r3 As==11
    1494:	2f 72       	subc	#4,	r15	;r2 As==10
    1496:	77 65       	addc.b	@r5+,	r7	
    1498:	73 73       	.word	0x7373;	????	Illegal as 2-op instr
    149a:	65 6c       	addc.b	@r12,	r5	
    149c:	73 2f       	jc	$-280    	;abs 0x1384
    149e:	6d 73       	subc.b	#2,	r13	;r3 As==10
    14a0:	70 67       	addc.b	@r7+,	r0	
    14a2:	63 63       	.word	0x6363;	????	Illegal as 2-op instr
    14a4:	2f 42       	mov	#4,	r15	;r2 As==10
    14a6:	55 49 4c 44 	mov.b	17484(r9),r5	;0x444c(r9)
    14aa:	2f 67       	addc	@r7,	r15	
    14ac:	63 63       	.word	0x6363;	????	Illegal as 2-op instr
    14ae:	2f 67       	addc	@r7,	r15	
    14b0:	63 63       	.word	0x6363;	????	Illegal as 2-op instr
    14b2:	00 47       	br	r7		
    14b4:	4e 55       	add.b	r5,	r14	
    14b6:	20 41       	br	@r1		
    14b8:	53 20       	jnz	$+168    	;abs 0x1560
    14ba:	32 2e       	jc	$-922    	;abs 0x1120
    14bc:	32 31       	jn	$+614    	;abs 0x1722
    14be:	2e 31       	jn	$+606    	;abs 0x171c
    14c0:	00 01       	.word	0x0100;	????	
    14c2:	80 6b 00 00 	addc	r11,	0(r0)	;PC rel. 0x14c4
    14c6:	00 02       	.word	0x0200;	????	
    14c8:	00 43       	clr	r0		
    14ca:	08 00       	.word	0x0008;	????	
    14cc:	00 02       	.word	0x0200;	????	
    14ce:	01 e0       	xor	r0,	r1	
    14d0:	0b 00       	.word	0x000b;	????	
    14d2:	00 1e       	.word	0x1e00;	????	
    14d4:	c1 24       	jz	$+388    	;abs 0x1658
    14d6:	c1 2e       	jc	$-636    	;abs 0x125a
    14d8:	2e 2f       	jc	$-418    	;abs 0x1336
    14da:	2e 2e       	jc	$-930    	;abs 0x1138
    14dc:	2f 2e       	jc	$-928    	;abs 0x113c
    14de:	2e 2f       	jc	$-418    	;abs 0x133c
    14e0:	67 63       	addc.b	#2,	r7	;r3 As==10
    14e2:	63 2f       	jc	$-312    	;abs 0x13aa
    14e4:	67 63       	addc.b	#2,	r7	;r3 As==10
    14e6:	63 2f       	jc	$-312    	;abs 0x13ae
    14e8:	63 6f       	.word	0x6f63;	????	Illegal as 2-op instr
    14ea:	6e 66       	addc.b	@r6,	r14	
    14ec:	69 67       	addc.b	@r7,	r9	
    14ee:	2f 6d       	addc	@r13,	r15	
    14f0:	73 70       	.word	0x7073;	????	Illegal as 2-op instr
    14f2:	34 33       	jn	$-406    	;abs 0x135c
    14f4:	30 2f       	jc	$-414    	;abs 0x1356
    14f6:	63 72       	.word	0x7263;	????	Illegal as 2-op instr
    14f8:	74 30       	jn	$+234    	;abs 0x15e2
    14fa:	2e 53       	incd	r14		
    14fc:	00 2f       	jc	$-510    	;abs 0x12fe
    14fe:	55 73       	subc.b	#1,	r5	;r3 As==01
    1500:	65 72       	subc.b	#4,	r5	;r2 As==10
    1502:	73 2f       	jc	$-280    	;abs 0x13ea
    1504:	72 77       	subc.b	@r7+,	r2	
    1506:	65 73       	subc.b	#2,	r5	;r3 As==10
    1508:	73 65       	.word	0x6573;	????	Illegal as 2-op instr
    150a:	6c 73       	subc.b	#2,	r12	;r3 As==10
    150c:	2f 6d       	addc	@r13,	r15	
    150e:	73 70       	.word	0x7073;	????	Illegal as 2-op instr
    1510:	67 63       	addc.b	#2,	r7	;r3 As==10
    1512:	63 2f       	jc	$-312    	;abs 0x13da
    1514:	42 55       	add.b	r5,	r2	
    1516:	49 4c       	mov.b	r12,	r9	
    1518:	44 2f       	jc	$-374    	;abs 0x13a2
    151a:	67 63       	addc.b	#2,	r7	;r3 As==10
    151c:	63 2f       	jc	$-312    	;abs 0x13e4
    151e:	67 63       	addc.b	#2,	r7	;r3 As==10
    1520:	63 00       	.word	0x0063;	????	
    1522:	47 4e       	mov.b	r14,	r7	
    1524:	55 20       	jnz	$+172    	;abs 0x15d0
    1526:	41 53       	add.b	#0,	r1	;r3 As==00
    1528:	20 32       	jn	$-958    	;abs 0x116a
    152a:	2e 32       	jn	$-930    	;abs 0x1188
    152c:	31 2e       	jc	$-924    	;abs 0x1190
    152e:	31 00       	.word	0x0031;	????	
    1530:	01 80       	sub	r0,	r1	
    1532:	6b 00       	.word	0x006b;	????	
    1534:	00 00       	.word	0x0000;	????	
    1536:	02 00       	.word	0x0002;	????	
    1538:	57 08       	.word	0x0857;	????	
    153a:	00 00       	.word	0x0000;	????	
    153c:	02 01       	.word	0x0102;	????	
    153e:	35 0c       	.word	0x0c35;	????	
    1540:	00 00       	.word	0x0000;	????	
    1542:	68 cd       	bic.b	@r13,	r8	
    1544:	6a cd       	bic.b	@r13,	r10	
    1546:	2e 2e       	jc	$-930    	;abs 0x11a4
    1548:	2f 2e       	jc	$-928    	;abs 0x11a8
    154a:	2e 2f       	jc	$-418    	;abs 0x13a8
    154c:	2e 2e       	jc	$-930    	;abs 0x11aa
    154e:	2f 67       	addc	@r7,	r15	
    1550:	63 63       	.word	0x6363;	????	Illegal as 2-op instr
    1552:	2f 67       	addc	@r7,	r15	
    1554:	63 63       	.word	0x6363;	????	Illegal as 2-op instr
    1556:	2f 63       	addc	#2,	r15	;r3 As==10
    1558:	6f 6e       	addc.b	@r14,	r15	
    155a:	66 69       	addc.b	@r9,	r6	
    155c:	67 2f       	jc	$-304    	;abs 0x142c
    155e:	6d 73       	subc.b	#2,	r13	;r3 As==10
    1560:	70 34       	jge	$+226    	;abs 0x1642
    1562:	33 30       	jn	$+104    	;abs 0x15ca
    1564:	2f 63       	addc	#2,	r15	;r3 As==10
    1566:	72 74       	subc.b	@r4+,	r2	
    1568:	30 2e       	jc	$-926    	;abs 0x11ca
    156a:	53 00       	.word	0x0053;	????	
    156c:	2f 55       	add	@r5,	r15	
    156e:	73 65       	.word	0x6573;	????	Illegal as 2-op instr
    1570:	72 73       	subc.b	#-1,	r2	;r3 As==11
    1572:	2f 72       	subc	#4,	r15	;r2 As==10
    1574:	77 65       	addc.b	@r5+,	r7	
    1576:	73 73       	.word	0x7373;	????	Illegal as 2-op instr
    1578:	65 6c       	addc.b	@r12,	r5	
    157a:	73 2f       	jc	$-280    	;abs 0x1462
    157c:	6d 73       	subc.b	#2,	r13	;r3 As==10
    157e:	70 67       	addc.b	@r7+,	r0	
    1580:	63 63       	.word	0x6363;	????	Illegal as 2-op instr
    1582:	2f 42       	mov	#4,	r15	;r2 As==10
    1584:	55 49 4c 44 	mov.b	17484(r9),r5	;0x444c(r9)
    1588:	2f 67       	addc	@r7,	r15	
    158a:	63 63       	.word	0x6363;	????	Illegal as 2-op instr
    158c:	2f 67       	addc	@r7,	r15	
    158e:	63 63       	.word	0x6363;	????	Illegal as 2-op instr
    1590:	00 47       	br	r7		
    1592:	4e 55       	add.b	r5,	r14	
    1594:	20 41       	br	@r1		
    1596:	53 20       	jnz	$+168    	;abs 0x163e
    1598:	32 2e       	jc	$-922    	;abs 0x11fe
    159a:	32 31       	jn	$+614    	;abs 0x1800
    159c:	2e 31       	jn	$+606    	;abs 0x17fa
    159e:	00 01       	.word	0x0100;	????	
    15a0:	80 00       	Address 0x00000000000015a0 is out of bounds.
Address 0x00000000000015a2 is out of bounds.
and.b	@r15+,	-1(r15)	;0xffff(r15)

Disassembly of section .debug_abbrev:

00000000 <.debug_abbrev>:
   0:	01 11       	rra	r1		
   2:	01 25       	jz	$+516    	;abs 0x206
   4:	0e 13       	reti			;return from interupt
   6:	0b 03       	.word	0x030b;	????	
   8:	0e 1b       	.word	0x1b0e;	????	
   a:	0e 11       	rra	r14		
   c:	01 52       	add	r2,	r1	
   e:	01 55       	add	r5,	r1	
  10:	06 10       	rrc	r6		
  12:	06 00       	.word	0x0006;	????	
  14:	00 02       	.word	0x0200;	????	
  16:	24 00       	.word	0x0024;	????	
  18:	0b 0b       	.word	0x0b0b;	????	
  1a:	3e 0b       	.word	0x0b3e;	????	
  1c:	03 0e       	.word	0x0e03;	????	
  1e:	00 00       	.word	0x0000;	????	
  20:	03 24       	jz	$+8      	;abs 0x28
  22:	00 0b       	.word	0x0b00;	????	
  24:	0b 3e       	jmp	$-1000   	;abs 0xfc3c
  26:	0b 03       	.word	0x030b;	????	
  28:	08 00       	.word	0x0008;	????	
  2a:	00 04       	.word	0x0400;	????	
  2c:	0f 00       	.word	0x000f;	????	
  2e:	0b 0b       	.word	0x0b0b;	????	
  30:	49 13       	.word	0x1349;	????	
  32:	00 00       	.word	0x0000;	????	
  34:	05 26       	jz	$-1012   	;abs 0xfc40
  36:	00 49       	br	r9		
  38:	13 00       	.word	0x0013;	????	
  3a:	00 06       	.word	0x0600;	????	
  3c:	13 01       	.word	0x0113;	????	
  3e:	0b 0b       	.word	0x0b0b;	????	
  40:	3a 0b       	.word	0x0b3a;	????	
  42:	3b 0b       	.word	0x0b3b;	????	
  44:	01 13       	reti			;return from interupt
  46:	00 00       	.word	0x0000;	????	
  48:	07 0d       	.word	0x0d07;	????	
  4a:	00 03       	.word	0x0300;	????	
  4c:	08 3a       	jl	$-1006   	;abs 0xfc5e
  4e:	0b 3b       	jl	$-488    	;abs 0xfe66
  50:	0b 49       	mov	r9,	r11	
  52:	13 38       	jl	$+40     	;abs 0x7a
  54:	0a 00       	.word	0x000a;	????	
  56:	00 08       	.word	0x0800;	????	
  58:	01 01       	.word	0x0101;	????	
  5a:	49 13       	.word	0x1349;	????	
  5c:	01 13       	reti			;return from interupt
  5e:	00 00       	.word	0x0000;	????	
  60:	09 21       	jnz	$+532    	;abs 0x274
  62:	00 49       	br	r9		
  64:	13 2f       	jc	$-472    	;abs 0xfe8c
  66:	0b 00       	.word	0x000b;	????	
  68:	00 0a       	.word	0x0a00;	????	
  6a:	16 00       	.word	0x0016;	????	
  6c:	03 0e       	.word	0x0e03;	????	
  6e:	3a 0b       	.word	0x0b3a;	????	
  70:	3b 0b       	.word	0x0b3b;	????	
  72:	49 13       	.word	0x1349;	????	
  74:	00 00       	.word	0x0000;	????	
  76:	0b 0d       	.word	0x0d0b;	????	
  78:	00 03       	.word	0x0300;	????	
  7a:	0e 3a       	jl	$-994    	;abs 0xfc98
  7c:	0b 3b       	jl	$-488    	;abs 0xfe94
  7e:	0b 49       	mov	r9,	r11	
  80:	13 38       	jl	$+40     	;abs 0xa8
  82:	0a 00       	.word	0x000a;	????	
  84:	00 0c       	.word	0x0c00;	????	
  86:	15 01       	.word	0x0115;	????	
  88:	27 0c       	.word	0x0c27;	????	
  8a:	49 13       	.word	0x1349;	????	
  8c:	01 13       	reti			;return from interupt
  8e:	00 00       	.word	0x0000;	????	
  90:	0d 05       	.word	0x050d;	????	
  92:	00 49       	br	r9		
  94:	13 00       	.word	0x0013;	????	
  96:	00 0e       	.word	0x0e00;	????	
  98:	21 00       	.word	0x0021;	????	
  9a:	49 13       	.word	0x1349;	????	
  9c:	00 00       	.word	0x0000;	????	
  9e:	0f 13       	reti			;return from interupt
  a0:	01 03       	.word	0x0301;	????	
  a2:	0e 0b       	.word	0x0b0e;	????	
  a4:	0b 3a       	jl	$-1000   	;abs 0xfcbc
  a6:	0b 3b       	jl	$-488    	;abs 0xfebe
  a8:	0b 01       	.word	0x010b;	????	
  aa:	13 00       	.word	0x0013;	????	
  ac:	00 10       	rrc	r0		
  ae:	2e 01       	.word	0x012e;	????	
  b0:	3f 0c       	.word	0x0c3f;	????	
  b2:	03 0e       	.word	0x0e03;	????	
  b4:	3a 0b       	.word	0x0b3a;	????	
  b6:	3b 0b       	.word	0x0b3b;	????	
  b8:	27 0c       	.word	0x0c27;	????	
  ba:	49 13       	.word	0x1349;	????	
  bc:	20 0b       	.word	0x0b20;	????	
  be:	01 13       	reti			;return from interupt
  c0:	00 00       	.word	0x0000;	????	
  c2:	11 05       	.word	0x0511;	????	
  c4:	00 03       	.word	0x0300;	????	
  c6:	08 3a       	jl	$-1006   	;abs 0xfcd8
  c8:	0b 3b       	jl	$-488    	;abs 0xfee0
  ca:	0b 49       	mov	r9,	r11	
  cc:	13 00       	.word	0x0013;	????	
  ce:	00 12       	push	r0		
  d0:	34 00       	.word	0x0034;	????	
  d2:	03 0e       	.word	0x0e03;	????	
  d4:	3a 0b       	.word	0x0b3a;	????	
  d6:	3b 0b       	.word	0x0b3b;	????	
  d8:	49 13       	.word	0x1349;	????	
  da:	00 00       	.word	0x0000;	????	
  dc:	13 2e       	jc	$-984    	;abs 0xfd04
  de:	01 3f       	jmp	$-508    	;abs 0xfee2
  e0:	0c 03       	.word	0x030c;	????	
  e2:	0e 3a       	jl	$-994    	;abs 0xfd00
  e4:	0b 3b       	jl	$-488    	;abs 0xfefc
  e6:	0b 27       	jz	$-488    	;abs 0xfefe
  e8:	0c 49       	mov	r9,	r12	
  ea:	13 11       	rra	#1		;r3 As==01
  ec:	01 12       	push	r1		
  ee:	01 40       	mov	r0,	r1	
  f0:	06 01       	.word	0x0106;	????	
  f2:	13 00       	.word	0x0013;	????	
  f4:	00 14       	.word	0x1400;	????	
  f6:	05 00       	.word	0x0005;	????	
  f8:	03 0e       	.word	0x0e03;	????	
  fa:	3a 0b       	.word	0x0b3a;	????	
  fc:	3b 0b       	.word	0x0b3b;	????	
  fe:	49 13       	.word	0x1349;	????	
 100:	02 06       	.word	0x0602;	????	
 102:	00 00       	.word	0x0000;	????	
 104:	15 0b       	.word	0x0b15;	????	
 106:	01 11       	rra	r1		
 108:	01 12       	push	r1		
 10a:	01 00       	.word	0x0001;	????	
 10c:	00 16       	.word	0x1600;	????	
 10e:	34 00       	.word	0x0034;	????	
 110:	03 08       	.word	0x0803;	????	
 112:	3a 0b       	.word	0x0b3a;	????	
 114:	3b 0b       	.word	0x0b3b;	????	
 116:	49 13       	.word	0x1349;	????	
 118:	02 06       	.word	0x0602;	????	
 11a:	00 00       	.word	0x0000;	????	
 11c:	17 1d       	.word	0x1d17;	????	
 11e:	01 31       	jn	$+516    	;abs 0x322
 120:	13 11       	rra	#1		;r3 As==01
 122:	01 12       	push	r1		
 124:	01 58       	add	r8,	r1	
 126:	0b 59       	add	r9,	r11	
 128:	0b 01       	.word	0x010b;	????	
 12a:	13 00       	.word	0x0013;	????	
 12c:	00 18       	.word	0x1800;	????	
 12e:	05 00       	.word	0x0005;	????	
 130:	31 13       	reti			;return from interupt
 132:	02 06       	.word	0x0602;	????	
 134:	00 00       	.word	0x0000;	????	
 136:	19 34       	jge	$+52     	;abs 0x16a
 138:	00 31       	jn	$+514    	;abs 0x33a
 13a:	13 02       	.word	0x0213;	????	
 13c:	06 00       	.word	0x0006;	????	
 13e:	00 1a       	.word	0x1a00;	????	
 140:	1d 01       	.word	0x011d;	????	
 142:	31 13       	reti			;return from interupt
 144:	11 01       	.word	0x0111;	????	
 146:	12 01       	.word	0x0112;	????	
 148:	58 0b       	.word	0x0b58;	????	
 14a:	59 0b       	.word	0x0b59;	????	
 14c:	00 00       	.word	0x0000;	????	
 14e:	1b 2e       	jc	$-968    	;abs 0xfd86
 150:	01 3f       	jmp	$-508    	;abs 0xff54
 152:	0c 03       	.word	0x030c;	????	
 154:	0e 3a       	jl	$-994    	;abs 0xfd72
 156:	0b 3b       	jl	$-488    	;abs 0xff6e
 158:	0b 27       	jz	$-488    	;abs 0xff70
 15a:	0c 49       	mov	r9,	r12	
 15c:	13 11       	rra	#1		;r3 As==01
 15e:	01 12       	push	r1		
 160:	01 40       	mov	r0,	r1	
 162:	0a 01       	.word	0x010a;	????	
 164:	13 00       	.word	0x0013;	????	
 166:	00 1c       	.word	0x1c00;	????	
 168:	2e 01       	.word	0x012e;	????	
 16a:	31 13       	reti			;return from interupt
 16c:	11 01       	.word	0x0111;	????	
 16e:	12 01       	.word	0x0112;	????	
 170:	40 0a       	.word	0x0a40;	????	
 172:	01 13       	reti			;return from interupt
 174:	00 00       	.word	0x0000;	????	
 176:	1d 2e       	jc	$-964    	;abs 0xfdb2
 178:	01 3f       	jmp	$-508    	;abs 0xff7c
 17a:	0c 03       	.word	0x030c;	????	
 17c:	0e 3a       	jl	$-994    	;abs 0xfd9a
 17e:	0b 3b       	jl	$-488    	;abs 0xff96
 180:	0b 27       	jz	$-488    	;abs 0xff98
 182:	0c 11       	rra	r12		
 184:	01 12       	push	r1		
 186:	01 40       	mov	r0,	r1	
 188:	06 01       	.word	0x0106;	????	
 18a:	13 00       	.word	0x0013;	????	
 18c:	00 1e       	.word	0x1e00;	????	
 18e:	34 00       	.word	0x0034;	????	
 190:	03 0e       	.word	0x0e03;	????	
 192:	3a 0b       	.word	0x0b3a;	????	
 194:	3b 0b       	.word	0x0b3b;	????	
 196:	49 13       	.word	0x1349;	????	
 198:	02 06       	.word	0x0602;	????	
 19a:	00 00       	.word	0x0000;	????	
 19c:	1f 34       	jge	$+64     	;abs 0x1dc
 19e:	00 03       	.word	0x0300;	????	
 1a0:	0e 3a       	jl	$-994    	;abs 0xfdbe
 1a2:	0b 3b       	jl	$-488    	;abs 0xffba
 1a4:	05 87       	sub	r7,	r5	
 1a6:	40 0e       	.word	0x0e40;	????	
 1a8:	49 13       	.word	0x1349;	????	
 1aa:	3f 0c       	.word	0x0c3f;	????	
 1ac:	3c 0c       	.word	0x0c3c;	????	
 1ae:	00 00       	.word	0x0000;	????	
 1b0:	20 35       	jge	$+578    	;abs 0x3f2
 1b2:	00 49       	br	r9		
 1b4:	13 00       	.word	0x0013;	????	
 1b6:	00 21       	jnz	$+514    	;abs 0x3b8
 1b8:	34 00       	.word	0x0034;	????	
 1ba:	03 0e       	.word	0x0e03;	????	
 1bc:	3a 0b       	.word	0x0b3a;	????	
 1be:	3b 0b       	.word	0x0b3b;	????	
 1c0:	49 13       	.word	0x1349;	????	
 1c2:	3f 0c       	.word	0x0c3f;	????	
 1c4:	02 0a       	.word	0x0a02;	????	
 1c6:	00 00       	.word	0x0000;	????	
 1c8:	00 01       	.word	0x0100;	????	
 1ca:	11 01       	.word	0x0111;	????	
 1cc:	25 0e       	.word	0x0e25;	????	
 1ce:	13 0b       	.word	0x0b13;	????	
 1d0:	03 0e       	.word	0x0e03;	????	
 1d2:	1b 0e       	.word	0x0e1b;	????	
 1d4:	11 01       	.word	0x0111;	????	
 1d6:	12 01       	.word	0x0112;	????	
 1d8:	10 06       	.word	0x0610;	????	
 1da:	00 00       	.word	0x0000;	????	
 1dc:	02 13       	reti			;return from interupt
 1de:	01 0b       	.word	0x0b01;	????	
 1e0:	0b 3a       	jl	$-1000   	;abs 0xfdf8
 1e2:	0b 3b       	jl	$-488    	;abs 0xfffa
 1e4:	0b 01       	.word	0x010b;	????	
 1e6:	13 00       	.word	0x0013;	????	
 1e8:	00 03       	.word	0x0300;	????	
 1ea:	0d 00       	.word	0x000d;	????	
 1ec:	03 08       	.word	0x0803;	????	
 1ee:	3a 0b       	.word	0x0b3a;	????	
 1f0:	3b 0b       	.word	0x0b3b;	????	
 1f2:	49 13       	.word	0x1349;	????	
 1f4:	38 0a       	.word	0x0a38;	????	
 1f6:	00 00       	.word	0x0000;	????	
 1f8:	04 01       	.word	0x0104;	????	
 1fa:	01 49       	mov	r9,	r1	
 1fc:	13 01       	.word	0x0113;	????	
 1fe:	13 00       	.word	0x0013;	????	
 200:	00 05       	.word	0x0500;	????	
 202:	21 00       	.word	0x0021;	????	
 204:	49 13       	.word	0x1349;	????	
 206:	2f 0b       	.word	0x0b2f;	????	
 208:	00 00       	.word	0x0000;	????	
 20a:	06 24       	jz	$+14     	;abs 0x218
 20c:	00 0b       	.word	0x0b00;	????	
 20e:	0b 3e       	jmp	$-1000   	;abs 0xfe26
 210:	0b 03       	.word	0x030b;	????	
 212:	0e 00       	.word	0x000e;	????	
 214:	00 07       	.word	0x0700;	????	
 216:	16 00       	.word	0x0016;	????	
 218:	03 0e       	.word	0x0e03;	????	
 21a:	3a 0b       	.word	0x0b3a;	????	
 21c:	3b 0b       	.word	0x0b3b;	????	
 21e:	49 13       	.word	0x1349;	????	
 220:	00 00       	.word	0x0000;	????	
 222:	08 0d       	.word	0x0d08;	????	
 224:	00 03       	.word	0x0300;	????	
 226:	0e 3a       	jl	$-994    	;abs 0xfe44
 228:	0b 3b       	jl	$-488    	;abs 0x40
 22a:	0b 49       	mov	r9,	r11	
 22c:	13 38       	jl	$+40     	;abs 0x254
 22e:	0a 00       	.word	0x000a;	????	
 230:	00 09       	.word	0x0900;	????	
 232:	0f 00       	.word	0x000f;	????	
 234:	0b 0b       	.word	0x0b0b;	????	
 236:	49 13       	.word	0x1349;	????	
 238:	00 00       	.word	0x0000;	????	
 23a:	0a 26       	jz	$-1002   	;abs 0xfe50
 23c:	00 49       	br	r9		
 23e:	13 00       	.word	0x0013;	????	
 240:	00 0b       	.word	0x0b00;	????	
 242:	15 01       	.word	0x0115;	????	
 244:	27 0c       	.word	0x0c27;	????	
 246:	49 13       	.word	0x1349;	????	
 248:	01 13       	reti			;return from interupt
 24a:	00 00       	.word	0x0000;	????	
 24c:	0c 05       	.word	0x050c;	????	
 24e:	00 49       	br	r9		
 250:	13 00       	.word	0x0013;	????	
 252:	00 0d       	.word	0x0d00;	????	
 254:	24 00       	.word	0x0024;	????	
 256:	0b 0b       	.word	0x0b0b;	????	
 258:	3e 0b       	.word	0x0b3e;	????	
 25a:	03 08       	.word	0x0803;	????	
 25c:	00 00       	.word	0x0000;	????	
 25e:	0e 21       	jnz	$+542    	;abs 0x47c
 260:	00 49       	br	r9		
 262:	13 00       	.word	0x0013;	????	
 264:	00 0f       	.word	0x0f00;	????	
 266:	2e 01       	.word	0x012e;	????	
 268:	3f 0c       	.word	0x0c3f;	????	
 26a:	03 0e       	.word	0x0e03;	????	
 26c:	3a 0b       	.word	0x0b3a;	????	
 26e:	3b 0b       	.word	0x0b3b;	????	
 270:	27 0c       	.word	0x0c27;	????	
 272:	49 13       	.word	0x1349;	????	
 274:	11 01       	.word	0x0111;	????	
 276:	12 01       	.word	0x0112;	????	
 278:	40 0a       	.word	0x0a40;	????	
 27a:	01 13       	reti			;return from interupt
 27c:	00 00       	.word	0x0000;	????	
 27e:	10 05       	.word	0x0510;	????	
 280:	00 03       	.word	0x0300;	????	
 282:	08 3a       	jl	$-1006   	;abs 0xfe94
 284:	0b 3b       	jl	$-488    	;abs 0x9c
 286:	0b 49       	mov	r9,	r11	
 288:	13 02       	.word	0x0213;	????	
 28a:	06 00       	.word	0x0006;	????	
 28c:	00 11       	rra	r0		
 28e:	34 00       	.word	0x0034;	????	
 290:	03 08       	.word	0x0803;	????	
 292:	3a 0b       	.word	0x0b3a;	????	
 294:	3b 0b       	.word	0x0b3b;	????	
 296:	49 13       	.word	0x1349;	????	
 298:	02 06       	.word	0x0602;	????	
 29a:	00 00       	.word	0x0000;	????	
 29c:	12 2e       	jc	$-986    	;abs 0xfec2
 29e:	01 3f       	jmp	$-508    	;abs 0xa2
 2a0:	0c 03       	.word	0x030c;	????	
 2a2:	0e 3a       	jl	$-994    	;abs 0xfec0
 2a4:	0b 3b       	jl	$-488    	;abs 0xbc
 2a6:	0b 27       	jz	$-488    	;abs 0xbe
 2a8:	0c 49       	mov	r9,	r12	
 2aa:	13 11       	rra	#1		;r3 As==01
 2ac:	01 12       	push	r1		
 2ae:	01 40       	mov	r0,	r1	
 2b0:	06 01       	.word	0x0106;	????	
 2b2:	13 00       	.word	0x0013;	????	
 2b4:	00 13       	reti			
 2b6:	05 00       	.word	0x0005;	????	
 2b8:	03 0e       	.word	0x0e03;	????	
 2ba:	3a 0b       	.word	0x0b3a;	????	
 2bc:	3b 0b       	.word	0x0b3b;	????	
 2be:	49 13       	.word	0x1349;	????	
 2c0:	02 06       	.word	0x0602;	????	
 2c2:	00 00       	.word	0x0000;	????	
 2c4:	14 05       	.word	0x0514;	????	
 2c6:	00 03       	.word	0x0300;	????	
 2c8:	0e 3a       	jl	$-994    	;abs 0xfee6
 2ca:	0b 3b       	jl	$-488    	;abs 0xe2
 2cc:	0b 49       	mov	r9,	r11	
 2ce:	13 02       	.word	0x0213;	????	
 2d0:	0a 00       	.word	0x000a;	????	
 2d2:	00 15       	.word	0x1500;	????	
 2d4:	05 00       	.word	0x0005;	????	
 2d6:	03 08       	.word	0x0803;	????	
 2d8:	3a 0b       	.word	0x0b3a;	????	
 2da:	3b 0b       	.word	0x0b3b;	????	
 2dc:	49 13       	.word	0x1349;	????	
 2de:	02 0a       	.word	0x0a02;	????	
 2e0:	00 00       	.word	0x0000;	????	
 2e2:	16 34       	jge	$+46     	;abs 0x310
 2e4:	00 03       	.word	0x0300;	????	
 2e6:	0e 3a       	jl	$-994    	;abs 0xff04
 2e8:	0b 3b       	jl	$-488    	;abs 0x100
 2ea:	0b 49       	mov	r9,	r11	
 2ec:	13 02       	.word	0x0213;	????	
 2ee:	06 00       	.word	0x0006;	????	
 2f0:	00 17       	.word	0x1700;	????	
 2f2:	34 00       	.word	0x0034;	????	
 2f4:	03 0e       	.word	0x0e03;	????	
 2f6:	3a 0b       	.word	0x0b3a;	????	
 2f8:	3b 0b       	.word	0x0b3b;	????	
 2fa:	49 13       	.word	0x1349;	????	
 2fc:	02 0a       	.word	0x0a02;	????	
 2fe:	00 00       	.word	0x0000;	????	
 300:	00 01       	.word	0x0100;	????	
 302:	11 01       	.word	0x0111;	????	
 304:	25 0e       	.word	0x0e25;	????	
 306:	13 0b       	.word	0x0b13;	????	
 308:	03 0e       	.word	0x0e03;	????	
 30a:	1b 0e       	.word	0x0e1b;	????	
 30c:	11 01       	.word	0x0111;	????	
 30e:	12 01       	.word	0x0112;	????	
 310:	10 06       	.word	0x0610;	????	
 312:	00 00       	.word	0x0000;	????	
 314:	02 16       	.word	0x1602;	????	
 316:	00 03       	.word	0x0300;	????	
 318:	0e 3a       	jl	$-994    	;abs 0xff36
 31a:	0b 3b       	jl	$-488    	;abs 0x132
 31c:	0b 49       	mov	r9,	r11	
 31e:	13 00       	.word	0x0013;	????	
 320:	00 03       	.word	0x0300;	????	
 322:	0f 00       	.word	0x000f;	????	
 324:	0b 0b       	.word	0x0b0b;	????	
 326:	03 0e       	.word	0x0e03;	????	
 328:	00 00       	.word	0x0000;	????	
 32a:	04 2e       	jc	$-1014   	;abs 0xff34
 32c:	01 03       	.word	0x0301;	????	
 32e:	0e 3a       	jl	$-994    	;abs 0xff4c
 330:	0b 3b       	jl	$-488    	;abs 0x148
 332:	0b 27       	jz	$-488    	;abs 0x14a
 334:	0c 11       	rra	r12		
 336:	01 12       	push	r1		
 338:	01 40       	mov	r0,	r1	
 33a:	06 01       	.word	0x0106;	????	
 33c:	13 00       	.word	0x0013;	????	
 33e:	00 05       	.word	0x0500;	????	
 340:	05 00       	.word	0x0005;	????	
 342:	03 08       	.word	0x0803;	????	
 344:	3a 0b       	.word	0x0b3a;	????	
 346:	3b 0b       	.word	0x0b3b;	????	
 348:	49 13       	.word	0x1349;	????	
 34a:	02 06       	.word	0x0602;	????	
 34c:	00 00       	.word	0x0000;	????	
 34e:	06 34       	jge	$+14     	;abs 0x35c
 350:	00 03       	.word	0x0300;	????	
 352:	08 3a       	jl	$-1006   	;abs 0xff64
 354:	0b 3b       	jl	$-488    	;abs 0x16c
 356:	0b 49       	mov	r9,	r11	
 358:	13 02       	.word	0x0213;	????	
 35a:	06 00       	.word	0x0006;	????	
 35c:	00 07       	.word	0x0700;	????	
 35e:	24 00       	.word	0x0024;	????	
 360:	0b 0b       	.word	0x0b0b;	????	
 362:	3e 0b       	.word	0x0b3e;	????	
 364:	03 0e       	.word	0x0e03;	????	
 366:	00 00       	.word	0x0000;	????	
 368:	08 0f       	.word	0x0f08;	????	
 36a:	00 0b       	.word	0x0b00;	????	
 36c:	0b 49       	mov	r9,	r11	
 36e:	13 00       	.word	0x0013;	????	
 370:	00 09       	.word	0x0900;	????	
 372:	26 00       	.word	0x0026;	????	
 374:	49 13       	.word	0x1349;	????	
 376:	00 00       	.word	0x0000;	????	
 378:	0a 2e       	jc	$-1002   	;abs 0xff8e
 37a:	01 03       	.word	0x0301;	????	
 37c:	0e 3a       	jl	$-994    	;abs 0xff9a
 37e:	0b 3b       	jl	$-488    	;abs 0x196
 380:	0b 27       	jz	$-488    	;abs 0x198
 382:	0c 11       	rra	r12		
 384:	01 12       	push	r1		
 386:	01 40       	mov	r0,	r1	
 388:	0a 01       	.word	0x010a;	????	
 38a:	13 00       	.word	0x0013;	????	
 38c:	00 0b       	.word	0x0b00;	????	
 38e:	34 00       	.word	0x0034;	????	
 390:	03 08       	.word	0x0803;	????	
 392:	3a 0b       	.word	0x0b3a;	????	
 394:	3b 0b       	.word	0x0b3b;	????	
 396:	49 13       	.word	0x1349;	????	
 398:	02 0a       	.word	0x0a02;	????	
 39a:	00 00       	.word	0x0000;	????	
 39c:	0c 01       	.word	0x010c;	????	
 39e:	01 49       	mov	r9,	r1	
 3a0:	13 01       	.word	0x0113;	????	
 3a2:	13 00       	.word	0x0013;	????	
 3a4:	00 0d       	.word	0x0d00;	????	
 3a6:	21 00       	.word	0x0021;	????	
 3a8:	49 13       	.word	0x1349;	????	
 3aa:	2f 0b       	.word	0x0b2f;	????	
 3ac:	00 00       	.word	0x0000;	????	
 3ae:	0e 2e       	jc	$-994    	;abs 0xffcc
 3b0:	01 3f       	jmp	$-508    	;abs 0x1b4
 3b2:	0c 03       	.word	0x030c;	????	
 3b4:	0e 3a       	jl	$-994    	;abs 0xffd2
 3b6:	0b 3b       	jl	$-488    	;abs 0x1ce
 3b8:	0b 27       	jz	$-488    	;abs 0x1d0
 3ba:	0c 11       	rra	r12		
 3bc:	01 12       	push	r1		
 3be:	01 40       	mov	r0,	r1	
 3c0:	06 01       	.word	0x0106;	????	
 3c2:	13 00       	.word	0x0013;	????	
 3c4:	00 0f       	.word	0x0f00;	????	
 3c6:	05 00       	.word	0x0005;	????	
 3c8:	03 0e       	.word	0x0e03;	????	
 3ca:	3a 0b       	.word	0x0b3a;	????	
 3cc:	3b 0b       	.word	0x0b3b;	????	
 3ce:	49 13       	.word	0x1349;	????	
 3d0:	02 06       	.word	0x0602;	????	
 3d2:	00 00       	.word	0x0000;	????	
 3d4:	10 24       	jz	$+34     	;abs 0x3f6
 3d6:	00 0b       	.word	0x0b00;	????	
 3d8:	0b 3e       	jmp	$-1000   	;abs 0xfff0
 3da:	0b 03       	.word	0x030b;	????	
 3dc:	08 00       	.word	0x0008;	????	
 3de:	00 11       	rra	r0		
 3e0:	34 00       	.word	0x0034;	????	
 3e2:	03 0e       	.word	0x0e03;	????	
 3e4:	3a 0b       	.word	0x0b3a;	????	
 3e6:	3b 0b       	.word	0x0b3b;	????	
 3e8:	49 13       	.word	0x1349;	????	
 3ea:	02 0a       	.word	0x0a02;	????	
 3ec:	00 00       	.word	0x0000;	????	
 3ee:	12 18       	.word	0x1812;	????	
 3f0:	00 00       	.word	0x0000;	????	
 3f2:	00 13       	reti			
 3f4:	0a 00       	.word	0x000a;	????	
 3f6:	03 0e       	.word	0x0e03;	????	
 3f8:	3a 0b       	.word	0x0b3a;	????	
 3fa:	3b 0b       	.word	0x0b3b;	????	
 3fc:	11 01       	.word	0x0111;	????	
 3fe:	00 00       	.word	0x0000;	????	
 400:	00 01       	.word	0x0100;	????	
 402:	11 01       	.word	0x0111;	????	
 404:	25 0e       	.word	0x0e25;	????	
 406:	13 0b       	.word	0x0b13;	????	
 408:	03 0e       	.word	0x0e03;	????	
 40a:	1b 0e       	.word	0x0e1b;	????	
 40c:	11 01       	.word	0x0111;	????	
 40e:	12 01       	.word	0x0112;	????	
 410:	10 06       	.word	0x0610;	????	
 412:	00 00       	.word	0x0000;	????	
 414:	02 2e       	jc	$-1018   	;abs 0x1a
 416:	01 3f       	jmp	$-508    	;abs 0x21a
 418:	0c 03       	.word	0x030c;	????	
 41a:	0e 3a       	jl	$-994    	;abs 0x38
 41c:	0b 3b       	jl	$-488    	;abs 0x234
 41e:	0b 27       	jz	$-488    	;abs 0x236
 420:	0c 11       	rra	r12		
 422:	01 12       	push	r1		
 424:	01 40       	mov	r0,	r1	
 426:	0a 01       	.word	0x010a;	????	
 428:	13 00       	.word	0x0013;	????	
 42a:	00 03       	.word	0x0300;	????	
 42c:	05 00       	.word	0x0005;	????	
 42e:	03 08       	.word	0x0803;	????	
 430:	3a 0b       	.word	0x0b3a;	????	
 432:	3b 0b       	.word	0x0b3b;	????	
 434:	49 13       	.word	0x1349;	????	
 436:	02 06       	.word	0x0602;	????	
 438:	00 00       	.word	0x0000;	????	
 43a:	04 24       	jz	$+10     	;abs 0x444
 43c:	00 0b       	.word	0x0b00;	????	
 43e:	0b 3e       	jmp	$-1000   	;abs 0x56
 440:	0b 03       	.word	0x030b;	????	
 442:	0e 00       	.word	0x000e;	????	
 444:	00 05       	.word	0x0500;	????	
 446:	2e 00       	.word	0x002e;	????	
 448:	3f 0c       	.word	0x0c3f;	????	
 44a:	03 0e       	.word	0x0e03;	????	
 44c:	3a 0b       	.word	0x0b3a;	????	
 44e:	3b 0b       	.word	0x0b3b;	????	
 450:	49 13       	.word	0x1349;	????	
 452:	11 01       	.word	0x0111;	????	
 454:	12 01       	.word	0x0112;	????	
 456:	40 0a       	.word	0x0a40;	????	
 458:	00 00       	.word	0x0000;	????	
 45a:	00 01       	.word	0x0100;	????	
 45c:	11 01       	.word	0x0111;	????	
 45e:	25 0e       	.word	0x0e25;	????	
 460:	13 0b       	.word	0x0b13;	????	
 462:	03 0e       	.word	0x0e03;	????	
 464:	1b 0e       	.word	0x0e1b;	????	
 466:	11 01       	.word	0x0111;	????	
 468:	12 01       	.word	0x0112;	????	
 46a:	10 06       	.word	0x0610;	????	
 46c:	00 00       	.word	0x0000;	????	
 46e:	02 24       	jz	$+6      	;abs 0x474
 470:	00 0b       	.word	0x0b00;	????	
 472:	0b 3e       	jmp	$-1000   	;abs 0x8a
 474:	0b 03       	.word	0x030b;	????	
 476:	0e 00       	.word	0x000e;	????	
 478:	00 03       	.word	0x0300;	????	
 47a:	24 00       	.word	0x0024;	????	
 47c:	0b 0b       	.word	0x0b0b;	????	
 47e:	3e 0b       	.word	0x0b3e;	????	
 480:	03 08       	.word	0x0803;	????	
 482:	00 00       	.word	0x0000;	????	
 484:	04 2e       	jc	$-1014   	;abs 0x8e
 486:	01 3f       	jmp	$-508    	;abs 0x28a
 488:	0c 03       	.word	0x030c;	????	
 48a:	0e 3a       	jl	$-994    	;abs 0xa8
 48c:	0b 3b       	jl	$-488    	;abs 0x2a4
 48e:	0b 27       	jz	$-488    	;abs 0x2a6
 490:	0c 11       	rra	r12		
 492:	01 12       	push	r1		
 494:	01 40       	mov	r0,	r1	
 496:	0a 01       	.word	0x010a;	????	
 498:	13 00       	.word	0x0013;	????	
 49a:	00 05       	.word	0x0500;	????	
 49c:	05 00       	.word	0x0005;	????	
 49e:	03 0e       	.word	0x0e03;	????	
 4a0:	3a 0b       	.word	0x0b3a;	????	
 4a2:	3b 0b       	.word	0x0b3b;	????	
 4a4:	49 13       	.word	0x1349;	????	
 4a6:	02 0a       	.word	0x0a02;	????	
 4a8:	00 00       	.word	0x0000;	????	
 4aa:	06 05       	.word	0x0506;	????	
 4ac:	00 03       	.word	0x0300;	????	
 4ae:	0e 3a       	jl	$-994    	;abs 0xcc
 4b0:	0b 3b       	jl	$-488    	;abs 0x2c8
 4b2:	0b 49       	mov	r9,	r11	
 4b4:	13 02       	.word	0x0213;	????	
 4b6:	06 00       	.word	0x0006;	????	
 4b8:	00 07       	.word	0x0700;	????	
 4ba:	2e 00       	.word	0x002e;	????	
 4bc:	3f 0c       	.word	0x0c3f;	????	
 4be:	03 0e       	.word	0x0e03;	????	
 4c0:	3a 0b       	.word	0x0b3a;	????	
 4c2:	3b 0b       	.word	0x0b3b;	????	
 4c4:	49 13       	.word	0x1349;	????	
 4c6:	11 01       	.word	0x0111;	????	
 4c8:	12 01       	.word	0x0112;	????	
 4ca:	40 0a       	.word	0x0a40;	????	
 4cc:	00 00       	.word	0x0000;	????	
 4ce:	08 34       	jge	$+18     	;abs 0x4e0
 4d0:	00 03       	.word	0x0300;	????	
 4d2:	0e 3a       	jl	$-994    	;abs 0xf0
 4d4:	0b 3b       	jl	$-488    	;abs 0x2ec
 4d6:	0b 87       	sub	r7,	r11	
 4d8:	40 0e       	.word	0x0e40;	????	
 4da:	49 13       	.word	0x1349;	????	
 4dc:	3f 0c       	.word	0x0c3f;	????	
 4de:	3c 0c       	.word	0x0c3c;	????	
 4e0:	00 00       	.word	0x0000;	????	
 4e2:	09 35       	jge	$+532    	;abs 0x6f6
 4e4:	00 49       	br	r9		
 4e6:	13 00       	.word	0x0013;	????	
 4e8:	00 0a       	.word	0x0a00;	????	
 4ea:	34 00       	.word	0x0034;	????	
 4ec:	03 0e       	.word	0x0e03;	????	
 4ee:	3a 0b       	.word	0x0b3a;	????	
 4f0:	3b 05       	.word	0x053b;	????	
 4f2:	87 40 0e 49 	mov	r0,	18702(r7);0x490e(r7)
 4f6:	13 3f       	jmp	$-472    	;abs 0x31e
 4f8:	0c 3c       	jmp	$+26     	;abs 0x512
 4fa:	0c 00       	.word	0x000c;	????	
 4fc:	00 0b       	.word	0x0b00;	????	
 4fe:	26 00       	.word	0x0026;	????	
 500:	49 13       	.word	0x1349;	????	
 502:	00 00       	.word	0x0000;	????	
 504:	00 01       	.word	0x0100;	????	
 506:	11 00       	.word	0x0011;	????	
 508:	10 06       	.word	0x0610;	????	
 50a:	11 01       	.word	0x0111;	????	
 50c:	12 01       	.word	0x0112;	????	
 50e:	03 08       	.word	0x0803;	????	
 510:	1b 08       	.word	0x081b;	????	
 512:	25 08       	.word	0x0825;	????	
 514:	13 05       	.word	0x0513;	????	
 516:	00 00       	.word	0x0000;	????	
 518:	00 01       	.word	0x0100;	????	
 51a:	11 00       	.word	0x0011;	????	
 51c:	10 06       	.word	0x0610;	????	
 51e:	11 01       	.word	0x0111;	????	
 520:	12 01       	.word	0x0112;	????	
 522:	03 08       	.word	0x0803;	????	
 524:	1b 08       	.word	0x081b;	????	
 526:	25 08       	.word	0x0825;	????	
 528:	13 05       	.word	0x0513;	????	
 52a:	00 00       	.word	0x0000;	????	
 52c:	00 01       	.word	0x0100;	????	
 52e:	11 00       	.word	0x0011;	????	
 530:	10 06       	.word	0x0610;	????	
 532:	11 01       	.word	0x0111;	????	
 534:	12 01       	.word	0x0112;	????	
 536:	03 08       	.word	0x0803;	????	
 538:	1b 08       	.word	0x081b;	????	
 53a:	25 08       	.word	0x0825;	????	
 53c:	13 05       	.word	0x0513;	????	
 53e:	00 00       	.word	0x0000;	????	
 540:	00 01       	.word	0x0100;	????	
 542:	11 01       	.word	0x0111;	????	
 544:	25 0e       	.word	0x0e25;	????	
 546:	13 0b       	.word	0x0b13;	????	
 548:	03 0e       	.word	0x0e03;	????	
 54a:	1b 0e       	.word	0x0e1b;	????	
 54c:	11 01       	.word	0x0111;	????	
 54e:	12 01       	.word	0x0112;	????	
 550:	10 06       	.word	0x0610;	????	
 552:	00 00       	.word	0x0000;	????	
 554:	02 24       	jz	$+6      	;abs 0x55a
 556:	00 0b       	.word	0x0b00;	????	
 558:	0b 3e       	jmp	$-1000   	;abs 0x170
 55a:	0b 03       	.word	0x030b;	????	
 55c:	0e 00       	.word	0x000e;	????	
 55e:	00 03       	.word	0x0300;	????	
 560:	16 00       	.word	0x0016;	????	
 562:	03 0e       	.word	0x0e03;	????	
 564:	3a 0b       	.word	0x0b3a;	????	
 566:	3b 0b       	.word	0x0b3b;	????	
 568:	49 13       	.word	0x1349;	????	
 56a:	00 00       	.word	0x0000;	????	
 56c:	04 24       	jz	$+10     	;abs 0x576
 56e:	00 0b       	.word	0x0b00;	????	
 570:	0b 3e       	jmp	$-1000   	;abs 0x188
 572:	0b 03       	.word	0x030b;	????	
 574:	08 00       	.word	0x0008;	????	
 576:	00 05       	.word	0x0500;	????	
 578:	0f 00       	.word	0x000f;	????	
 57a:	0b 0b       	.word	0x0b0b;	????	
 57c:	49 13       	.word	0x1349;	????	
 57e:	00 00       	.word	0x0000;	????	
 580:	06 26       	jz	$-1010   	;abs 0x18e
 582:	00 49       	br	r9		
 584:	13 00       	.word	0x0013;	????	
 586:	00 07       	.word	0x0700;	????	
 588:	2e 01       	.word	0x012e;	????	
 58a:	3f 0c       	.word	0x0c3f;	????	
 58c:	03 0e       	.word	0x0e03;	????	
 58e:	3a 0b       	.word	0x0b3a;	????	
 590:	3b 0b       	.word	0x0b3b;	????	
 592:	27 0c       	.word	0x0c27;	????	
 594:	49 13       	.word	0x1349;	????	
 596:	11 01       	.word	0x0111;	????	
 598:	12 01       	.word	0x0112;	????	
 59a:	40 06       	.word	0x0640;	????	
 59c:	00 00       	.word	0x0000;	????	
 59e:	08 05       	.word	0x0508;	????	
 5a0:	00 03       	.word	0x0300;	????	
 5a2:	08 3a       	jl	$-1006   	;abs 0x1b4
 5a4:	0b 3b       	jl	$-488    	;abs 0x3bc
 5a6:	0b 49       	mov	r9,	r11	
 5a8:	13 02       	.word	0x0213;	????	
 5aa:	0a 00       	.word	0x000a;	????	
 5ac:	00 09       	.word	0x0900;	????	
 5ae:	05 00       	.word	0x0005;	????	
 5b0:	03 08       	.word	0x0803;	????	
 5b2:	3a 0b       	.word	0x0b3a;	????	
 5b4:	3b 0b       	.word	0x0b3b;	????	
 5b6:	49 13       	.word	0x1349;	????	
 5b8:	02 06       	.word	0x0602;	????	
 5ba:	00 00       	.word	0x0000;	????	
 5bc:	0a 0b       	.word	0x0b0a;	????	
 5be:	01 11       	rra	r1		
 5c0:	01 12       	push	r1		
 5c2:	01 00       	.word	0x0001;	????	
 5c4:	00 0b       	.word	0x0b00;	????	
 5c6:	34 00       	.word	0x0034;	????	
 5c8:	03 08       	.word	0x0803;	????	
 5ca:	3a 0b       	.word	0x0b3a;	????	
 5cc:	3b 0b       	.word	0x0b3b;	????	
 5ce:	49 13       	.word	0x1349;	????	
 5d0:	02 06       	.word	0x0602;	????	
 5d2:	00 00       	.word	0x0000;	????	
 5d4:	00 01       	.word	0x0100;	????	
 5d6:	11 01       	.word	0x0111;	????	
 5d8:	25 0e       	.word	0x0e25;	????	
 5da:	13 0b       	.word	0x0b13;	????	
 5dc:	03 0e       	.word	0x0e03;	????	
 5de:	1b 0e       	.word	0x0e1b;	????	
 5e0:	11 01       	.word	0x0111;	????	
 5e2:	12 01       	.word	0x0112;	????	
 5e4:	10 06       	.word	0x0610;	????	
 5e6:	00 00       	.word	0x0000;	????	
 5e8:	02 24       	jz	$+6      	;abs 0x5ee
 5ea:	00 0b       	.word	0x0b00;	????	
 5ec:	0b 3e       	jmp	$-1000   	;abs 0x204
 5ee:	0b 03       	.word	0x030b;	????	
 5f0:	0e 00       	.word	0x000e;	????	
 5f2:	00 03       	.word	0x0300;	????	
 5f4:	24 00       	.word	0x0024;	????	
 5f6:	0b 0b       	.word	0x0b0b;	????	
 5f8:	3e 0b       	.word	0x0b3e;	????	
 5fa:	03 08       	.word	0x0803;	????	
 5fc:	00 00       	.word	0x0000;	????	
 5fe:	04 16       	.word	0x1604;	????	
 600:	00 03       	.word	0x0300;	????	
 602:	0e 3a       	jl	$-994    	;abs 0x220
 604:	0b 3b       	jl	$-488    	;abs 0x41c
 606:	0b 49       	mov	r9,	r11	
 608:	13 00       	.word	0x0013;	????	
 60a:	00 05       	.word	0x0500;	????	
 60c:	2e 01       	.word	0x012e;	????	
 60e:	3f 0c       	.word	0x0c3f;	????	
 610:	03 0e       	.word	0x0e03;	????	
 612:	3a 0b       	.word	0x0b3a;	????	
 614:	3b 0b       	.word	0x0b3b;	????	
 616:	27 0c       	.word	0x0c27;	????	
 618:	49 13       	.word	0x1349;	????	
 61a:	11 01       	.word	0x0111;	????	
 61c:	12 01       	.word	0x0112;	????	
 61e:	40 06       	.word	0x0640;	????	
 620:	01 13       	reti			;return from interupt
 622:	00 00       	.word	0x0000;	????	
 624:	06 05       	.word	0x0506;	????	
 626:	00 03       	.word	0x0300;	????	
 628:	0e 3a       	jl	$-994    	;abs 0x246
 62a:	0b 3b       	jl	$-488    	;abs 0x442
 62c:	0b 49       	mov	r9,	r11	
 62e:	13 02       	.word	0x0213;	????	
 630:	0a 00       	.word	0x000a;	????	
 632:	00 07       	.word	0x0700;	????	
 634:	05 00       	.word	0x0005;	????	
 636:	03 08       	.word	0x0803;	????	
 638:	3a 0b       	.word	0x0b3a;	????	
 63a:	3b 0b       	.word	0x0b3b;	????	
 63c:	49 13       	.word	0x1349;	????	
 63e:	02 06       	.word	0x0602;	????	
 640:	00 00       	.word	0x0000;	????	
 642:	08 05       	.word	0x0508;	????	
 644:	00 03       	.word	0x0300;	????	
 646:	0e 3a       	jl	$-994    	;abs 0x264
 648:	0b 3b       	jl	$-488    	;abs 0x460
 64a:	0b 49       	mov	r9,	r11	
 64c:	13 02       	.word	0x0213;	????	
 64e:	06 00       	.word	0x0006;	????	
 650:	00 09       	.word	0x0900;	????	
 652:	34 00       	.word	0x0034;	????	
 654:	03 08       	.word	0x0803;	????	
 656:	3a 0b       	.word	0x0b3a;	????	
 658:	3b 0b       	.word	0x0b3b;	????	
 65a:	49 13       	.word	0x1349;	????	
 65c:	02 06       	.word	0x0602;	????	
 65e:	00 00       	.word	0x0000;	????	
 660:	0a 0f       	.word	0x0f0a;	????	
 662:	00 0b       	.word	0x0b00;	????	
 664:	0b 00       	.word	0x000b;	????	
 666:	00 0b       	.word	0x0b00;	????	
 668:	0f 00       	.word	0x000f;	????	
 66a:	0b 0b       	.word	0x0b0b;	????	
 66c:	49 13       	.word	0x1349;	????	
 66e:	00 00       	.word	0x0000;	????	
 670:	00 01       	.word	0x0100;	????	
 672:	11 01       	.word	0x0111;	????	
 674:	25 0e       	.word	0x0e25;	????	
 676:	13 0b       	.word	0x0b13;	????	
 678:	03 0e       	.word	0x0e03;	????	
 67a:	1b 0e       	.word	0x0e1b;	????	
 67c:	11 01       	.word	0x0111;	????	
 67e:	12 01       	.word	0x0112;	????	
 680:	10 06       	.word	0x0610;	????	
 682:	00 00       	.word	0x0000;	????	
 684:	02 24       	jz	$+6      	;abs 0x68a
 686:	00 0b       	.word	0x0b00;	????	
 688:	0b 3e       	jmp	$-1000   	;abs 0x2a0
 68a:	0b 03       	.word	0x030b;	????	
 68c:	0e 00       	.word	0x000e;	????	
 68e:	00 03       	.word	0x0300;	????	
 690:	16 00       	.word	0x0016;	????	
 692:	03 0e       	.word	0x0e03;	????	
 694:	3a 0b       	.word	0x0b3a;	????	
 696:	3b 0b       	.word	0x0b3b;	????	
 698:	49 13       	.word	0x1349;	????	
 69a:	00 00       	.word	0x0000;	????	
 69c:	04 24       	jz	$+10     	;abs 0x6a6
 69e:	00 0b       	.word	0x0b00;	????	
 6a0:	0b 3e       	jmp	$-1000   	;abs 0x2b8
 6a2:	0b 03       	.word	0x030b;	????	
 6a4:	08 00       	.word	0x0008;	????	
 6a6:	00 05       	.word	0x0500;	????	
 6a8:	2e 01       	.word	0x012e;	????	
 6aa:	3f 0c       	.word	0x0c3f;	????	
 6ac:	03 0e       	.word	0x0e03;	????	
 6ae:	3a 0b       	.word	0x0b3a;	????	
 6b0:	3b 0b       	.word	0x0b3b;	????	
 6b2:	27 0c       	.word	0x0c27;	????	
 6b4:	49 13       	.word	0x1349;	????	
 6b6:	11 01       	.word	0x0111;	????	
 6b8:	12 01       	.word	0x0112;	????	
 6ba:	40 06       	.word	0x0640;	????	
 6bc:	01 13       	reti			;return from interupt
 6be:	00 00       	.word	0x0000;	????	
 6c0:	06 05       	.word	0x0506;	????	
 6c2:	00 03       	.word	0x0300;	????	
 6c4:	0e 3a       	jl	$-994    	;abs 0x2e2
 6c6:	0b 3b       	jl	$-488    	;abs 0x4de
 6c8:	0b 49       	mov	r9,	r11	
 6ca:	13 02       	.word	0x0213;	????	
 6cc:	06 00       	.word	0x0006;	????	
 6ce:	00 07       	.word	0x0700;	????	
 6d0:	34 00       	.word	0x0034;	????	
 6d2:	03 0e       	.word	0x0e03;	????	
 6d4:	3a 0b       	.word	0x0b3a;	????	
 6d6:	3b 0b       	.word	0x0b3b;	????	
 6d8:	49 13       	.word	0x1349;	????	
 6da:	02 0a       	.word	0x0a02;	????	
 6dc:	00 00       	.word	0x0000;	????	
 6de:	08 34       	jge	$+18     	;abs 0x6f0
 6e0:	00 03       	.word	0x0300;	????	
 6e2:	0e 3a       	jl	$-994    	;abs 0x300
 6e4:	0b 3b       	jl	$-488    	;abs 0x4fc
 6e6:	0b 49       	mov	r9,	r11	
 6e8:	13 02       	.word	0x0213;	????	
 6ea:	06 00       	.word	0x0006;	????	
 6ec:	00 09       	.word	0x0900;	????	
 6ee:	34 00       	.word	0x0034;	????	
 6f0:	03 08       	.word	0x0803;	????	
 6f2:	3a 0b       	.word	0x0b3a;	????	
 6f4:	3b 0b       	.word	0x0b3b;	????	
 6f6:	49 13       	.word	0x1349;	????	
 6f8:	00 00       	.word	0x0000;	????	
 6fa:	0a 34       	jge	$+22     	;abs 0x710
 6fc:	00 03       	.word	0x0300;	????	
 6fe:	08 3a       	jl	$-1006   	;abs 0x310
 700:	0b 3b       	jl	$-488    	;abs 0x518
 702:	0b 49       	mov	r9,	r11	
 704:	13 02       	.word	0x0213;	????	
 706:	06 00       	.word	0x0006;	????	
 708:	00 0b       	.word	0x0b00;	????	
 70a:	0b 01       	.word	0x010b;	????	
 70c:	55 06       	.word	0x0655;	????	
 70e:	00 00       	.word	0x0000;	????	
 710:	0c 0f       	.word	0x0f0c;	????	
 712:	00 0b       	.word	0x0b00;	????	
 714:	0b 00       	.word	0x000b;	????	
 716:	00 0d       	.word	0x0d00;	????	
 718:	0f 00       	.word	0x000f;	????	
 71a:	0b 0b       	.word	0x0b0b;	????	
 71c:	49 13       	.word	0x1349;	????	
 71e:	00 00       	.word	0x0000;	????	
 720:	0e 2e       	jc	$-994    	;abs 0x33e
 722:	01 3f       	jmp	$-508    	;abs 0x526
 724:	0c 03       	.word	0x030c;	????	
 726:	0e 3a       	jl	$-994    	;abs 0x344
 728:	0b 3b       	jl	$-488    	;abs 0x540
 72a:	0b 27       	jz	$-488    	;abs 0x542
 72c:	0c 11       	rra	r12		
 72e:	01 12       	push	r1		
 730:	01 40       	mov	r0,	r1	
 732:	0a 01       	.word	0x010a;	????	
 734:	13 00       	.word	0x0013;	????	
 736:	00 0f       	.word	0x0f00;	????	
 738:	05 00       	.word	0x0005;	????	
 73a:	03 08       	.word	0x0803;	????	
 73c:	3a 0b       	.word	0x0b3a;	????	
 73e:	3b 0b       	.word	0x0b3b;	????	
 740:	49 13       	.word	0x1349;	????	
 742:	02 0a       	.word	0x0a02;	????	
 744:	00 00       	.word	0x0000;	????	
 746:	10 34       	jge	$+34     	;abs 0x768
 748:	00 03       	.word	0x0300;	????	
 74a:	08 3a       	jl	$-1006   	;abs 0x35c
 74c:	0b 3b       	jl	$-488    	;abs 0x564
 74e:	0b 49       	mov	r9,	r11	
 750:	13 02       	.word	0x0213;	????	
 752:	0a 00       	.word	0x000a;	????	
 754:	00 11       	rra	r0		
 756:	01 01       	.word	0x0101;	????	
 758:	49 13       	.word	0x1349;	????	
 75a:	01 13       	reti			;return from interupt
 75c:	00 00       	.word	0x0000;	????	
 75e:	12 21       	jnz	$+550    	;abs 0x984
 760:	00 00       	.word	0x0000;	????	
 762:	00 13       	reti			
 764:	34 00       	.word	0x0034;	????	
 766:	03 0e       	.word	0x0e03;	????	
 768:	3a 0b       	.word	0x0b3a;	????	
 76a:	3b 0b       	.word	0x0b3b;	????	
 76c:	49 13       	.word	0x1349;	????	
 76e:	3f 0c       	.word	0x0c3f;	????	
 770:	3c 0c       	.word	0x0c3c;	????	
 772:	00 00       	.word	0x0000;	????	
 774:	00 01       	.word	0x0100;	????	
 776:	11 01       	.word	0x0111;	????	
 778:	25 0e       	.word	0x0e25;	????	
 77a:	13 0b       	.word	0x0b13;	????	
 77c:	03 0e       	.word	0x0e03;	????	
 77e:	1b 0e       	.word	0x0e1b;	????	
 780:	11 01       	.word	0x0111;	????	
 782:	12 01       	.word	0x0112;	????	
 784:	10 06       	.word	0x0610;	????	
 786:	00 00       	.word	0x0000;	????	
 788:	02 24       	jz	$+6      	;abs 0x78e
 78a:	00 0b       	.word	0x0b00;	????	
 78c:	0b 3e       	jmp	$-1000   	;abs 0x3a4
 78e:	0b 03       	.word	0x030b;	????	
 790:	0e 00       	.word	0x000e;	????	
 792:	00 03       	.word	0x0300;	????	
 794:	24 00       	.word	0x0024;	????	
 796:	0b 0b       	.word	0x0b0b;	????	
 798:	3e 0b       	.word	0x0b3e;	????	
 79a:	03 08       	.word	0x0803;	????	
 79c:	00 00       	.word	0x0000;	????	
 79e:	04 0f       	.word	0x0f04;	????	
 7a0:	00 0b       	.word	0x0b00;	????	
 7a2:	0b 49       	mov	r9,	r11	
 7a4:	13 00       	.word	0x0013;	????	
 7a6:	00 05       	.word	0x0500;	????	
 7a8:	26 00       	.word	0x0026;	????	
 7aa:	49 13       	.word	0x1349;	????	
 7ac:	00 00       	.word	0x0000;	????	
 7ae:	06 2e       	jc	$-1010   	;abs 0x3bc
 7b0:	01 3f       	jmp	$-508    	;abs 0x5b4
 7b2:	0c 03       	.word	0x030c;	????	
 7b4:	0e 3a       	jl	$-994    	;abs 0x3d2
 7b6:	0b 3b       	jl	$-488    	;abs 0x5ce
 7b8:	0b 27       	jz	$-488    	;abs 0x5d0
 7ba:	0c 49       	mov	r9,	r12	
 7bc:	13 11       	rra	#1		;r3 As==01
 7be:	01 12       	push	r1		
 7c0:	01 40       	mov	r0,	r1	
 7c2:	06 00       	.word	0x0006;	????	
 7c4:	00 07       	.word	0x0700;	????	
 7c6:	05 00       	.word	0x0005;	????	
 7c8:	03 08       	.word	0x0803;	????	
 7ca:	3a 0b       	.word	0x0b3a;	????	
 7cc:	3b 0b       	.word	0x0b3b;	????	
 7ce:	49 13       	.word	0x1349;	????	
 7d0:	02 06       	.word	0x0602;	????	
 7d2:	00 00       	.word	0x0000;	????	
 7d4:	08 34       	jge	$+18     	;abs 0x7e6
 7d6:	00 03       	.word	0x0300;	????	
 7d8:	0e 3a       	jl	$-994    	;abs 0x3f6
 7da:	0b 3b       	jl	$-488    	;abs 0x5f2
 7dc:	0b 49       	mov	r9,	r11	
 7de:	13 02       	.word	0x0213;	????	
 7e0:	06 00       	.word	0x0006;	????	
 7e2:	00 09       	.word	0x0900;	????	
 7e4:	34 00       	.word	0x0034;	????	
 7e6:	03 08       	.word	0x0803;	????	
 7e8:	3a 0b       	.word	0x0b3a;	????	
 7ea:	3b 0b       	.word	0x0b3b;	????	
 7ec:	49 13       	.word	0x1349;	????	
 7ee:	02 06       	.word	0x0602;	????	
 7f0:	00 00       	.word	0x0000;	????	
 7f2:	00 01       	.word	0x0100;	????	
 7f4:	11 00       	.word	0x0011;	????	
 7f6:	10 06       	.word	0x0610;	????	
 7f8:	11 01       	.word	0x0111;	????	
 7fa:	12 01       	.word	0x0112;	????	
 7fc:	03 08       	.word	0x0803;	????	
 7fe:	1b 08       	.word	0x081b;	????	
 800:	25 08       	.word	0x0825;	????	
 802:	13 05       	.word	0x0513;	????	
 804:	00 00       	.word	0x0000;	????	
 806:	00 01       	.word	0x0100;	????	
 808:	11 00       	.word	0x0011;	????	
 80a:	10 06       	.word	0x0610;	????	
 80c:	11 01       	.word	0x0111;	????	
 80e:	12 01       	.word	0x0112;	????	
 810:	03 08       	.word	0x0803;	????	
 812:	1b 08       	.word	0x081b;	????	
 814:	25 08       	.word	0x0825;	????	
 816:	13 05       	.word	0x0513;	????	
 818:	00 00       	.word	0x0000;	????	
 81a:	00 01       	.word	0x0100;	????	
 81c:	11 00       	.word	0x0011;	????	
 81e:	10 06       	.word	0x0610;	????	
 820:	11 01       	.word	0x0111;	????	
 822:	12 01       	.word	0x0112;	????	
 824:	03 08       	.word	0x0803;	????	
 826:	1b 08       	.word	0x081b;	????	
 828:	25 08       	.word	0x0825;	????	
 82a:	13 05       	.word	0x0513;	????	
 82c:	00 00       	.word	0x0000;	????	
 82e:	00 01       	.word	0x0100;	????	
 830:	11 00       	.word	0x0011;	????	
 832:	10 06       	.word	0x0610;	????	
 834:	11 01       	.word	0x0111;	????	
 836:	12 01       	.word	0x0112;	????	
 838:	03 08       	.word	0x0803;	????	
 83a:	1b 08       	.word	0x081b;	????	
 83c:	25 08       	.word	0x0825;	????	
 83e:	13 05       	.word	0x0513;	????	
 840:	00 00       	.word	0x0000;	????	
 842:	00 01       	.word	0x0100;	????	
 844:	11 00       	.word	0x0011;	????	
 846:	10 06       	.word	0x0610;	????	
 848:	11 01       	.word	0x0111;	????	
 84a:	12 01       	.word	0x0112;	????	
 84c:	03 08       	.word	0x0803;	????	
 84e:	1b 08       	.word	0x081b;	????	
 850:	25 08       	.word	0x0825;	????	
 852:	13 05       	.word	0x0513;	????	
 854:	00 00       	.word	0x0000;	????	
 856:	00 01       	.word	0x0100;	????	
 858:	11 00       	.word	0x0011;	????	
 85a:	10 06       	.word	0x0610;	????	
 85c:	11 01       	.word	0x0111;	????	
 85e:	12 01       	.word	0x0112;	????	
 860:	03 08       	.word	0x0803;	????	
 862:	1b 08       	.word	0x081b;	????	
 864:	25 08       	.word	0x0825;	????	
 866:	13 05       	.word	0x0513;	????	
 868:	00 00       	.word	0x0000;	????	
	...

Disassembly of section .debug_line:

00000000 <.debug_line>:
   0:	8f 02       	.word	0x028f;	????	
   2:	00 00       	.word	0x0000;	????	
   4:	02 00       	.word	0x0002;	????	
   6:	78 01       	.word	0x0178;	????	
   8:	00 00       	.word	0x0000;	????	
   a:	01 01       	.word	0x0101;	????	
   c:	fb 0e       	.word	0x0efb;	????	
   e:	0d 00       	.word	0x000d;	????	
  10:	01 01       	.word	0x0101;	????	
  12:	01 01       	.word	0x0101;	????	
  14:	00 00       	.word	0x0000;	????	
  16:	00 01       	.word	0x0100;	????	
  18:	00 00       	.word	0x0000;	????	
  1a:	01 2f       	jc	$-508    	;abs 0xfe1e
  1c:	55 73       	subc.b	#1,	r5	;r3 As==01
  1e:	65 72       	subc.b	#4,	r5	;r2 As==10
  20:	73 2f       	jc	$-280    	;abs 0xff08
  22:	6f 6c       	addc.b	@r12,	r15	
  24:	69 76       	subc.b	@r6,	r9	
  26:	65 72       	subc.b	#4,	r5	;r2 As==10
  28:	73 61       	.word	0x6173;	????	Illegal as 2-op instr
  2a:	6e 63       	addc.b	#2,	r14	;r3 As==10
  2c:	68 65       	addc.b	@r5,	r8	
  2e:	7a 2f       	jc	$-266    	;abs 0xff24
  30:	41 70       	subc.b	r0,	r1	
  32:	70 6c       	addc.b	@r12+,	r0	
  34:	69 63       	addc.b	#2,	r9	;r3 As==10
  36:	61 74       	subc.b	@r4,	r1	
  38:	69 6f       	addc.b	@r15,	r9	
  3a:	6e 73       	subc.b	#2,	r14	;r3 As==10
  3c:	2f 45       	mov	@r5,	r15	
  3e:	6e 65       	addc.b	@r5,	r14	
  40:	72 67       	addc.b	@r7+,	r2	
  42:	69 61       	addc.b	@r1,	r9	
  44:	2e 61       	addc	@r1,	r14	
  46:	70 70 2f 43 	subc.b	#17199,	r0	;#0x432f
  4a:	6f 6e       	addc.b	@r14,	r15	
  4c:	74 65       	addc.b	@r5+,	r4	
  4e:	6e 74       	subc.b	@r4,	r14	
  50:	73 2f       	jc	$-280    	;abs 0xff38
  52:	52 65 73 6f 	addc.b	28531(r5),r2	;0x6f73(r5)
  56:	75 72       	subc.b	#8,	r5	;r2 As==11
  58:	63 65       	.word	0x6563;	????	Illegal as 2-op instr
  5a:	73 2f       	jc	$-280    	;abs 0xff42
  5c:	4a 61       	addc.b	r1,	r10	
  5e:	76 61       	addc.b	@r1+,	r6	
  60:	2f 68       	addc	@r8,	r15	
  62:	61 72       	subc.b	#4,	r1	;r2 As==10
  64:	64 77       	subc.b	@r7,	r4	
  66:	61 72       	subc.b	#4,	r1	;r2 As==10
  68:	65 2f       	jc	$-308    	;abs 0xff34
  6a:	74 6f       	addc.b	@r15+,	r4	
  6c:	6f 6c       	addc.b	@r12,	r15	
  6e:	73 2f       	jc	$-280    	;abs 0xff56
  70:	6d 73       	subc.b	#2,	r13	;r3 As==10
  72:	70 34       	jge	$+226    	;abs 0x154
  74:	33 30       	jn	$+104    	;abs 0xdc
  76:	2f 62       	addc	#4,	r15	;r2 As==10
  78:	69 6e       	addc.b	@r14,	r9	
  7a:	2f 2e       	jc	$-928    	;abs 0xfcda
  7c:	2e 2f       	jc	$-418    	;abs 0xfeda
  7e:	6c 69       	addc.b	@r9,	r12	
  80:	62 2f       	jc	$-314    	;abs 0xff46
  82:	67 63       	addc.b	#2,	r7	;r3 As==10
  84:	63 2f       	jc	$-312    	;abs 0xff4c
  86:	6d 73       	subc.b	#2,	r13	;r3 As==10
  88:	70 34       	jge	$+226    	;abs 0x16a
  8a:	33 30       	jn	$+104    	;abs 0xf2
  8c:	2f 34       	jge	$+96     	;abs 0xec
  8e:	2e 36       	jge	$-930    	;abs 0xfcec
  90:	2e 33       	jn	$-418    	;abs 0xfeee
  92:	2f 2e       	jc	$-928    	;abs 0xfcf2
  94:	2e 2f       	jc	$-418    	;abs 0xfef2
  96:	2e 2e       	jc	$-930    	;abs 0xfcf4
  98:	2f 2e       	jc	$-928    	;abs 0xfcf8
  9a:	2e 2f       	jc	$-418    	;abs 0xfef8
  9c:	2e 2e       	jc	$-930    	;abs 0xfcfa
  9e:	2f 6d       	addc	@r13,	r15	
  a0:	73 70       	.word	0x7073;	????	Illegal as 2-op instr
  a2:	34 33       	jn	$-406    	;abs 0xff0c
  a4:	30 2f       	jc	$-414    	;abs 0xff06
  a6:	69 6e       	addc.b	@r14,	r9	
  a8:	63 6c       	.word	0x6c63;	????	Illegal as 2-op instr
  aa:	75 64       	addc.b	@r4+,	r5	
  ac:	65 2f       	jc	$-308    	;abs 0xff78
  ae:	6c 69       	addc.b	@r9,	r12	
  b0:	62 65       	addc.b	@r5,	r2	
  b2:	6d 62       	addc.b	#4,	r13	;r2 As==10
  b4:	2f 73       	subc	#2,	r15	;r3 As==10
  b6:	68 65       	addc.b	@r5,	r8	
  b8:	6c 6c       	addc.b	@r12,	r12	
  ba:	00 2f       	jc	$-510    	;abs 0xfebc
  bc:	55 73       	subc.b	#1,	r5	;r3 As==01
  be:	65 72       	subc.b	#4,	r5	;r2 As==10
  c0:	73 2f       	jc	$-280    	;abs 0xffa8
  c2:	6f 6c       	addc.b	@r12,	r15	
  c4:	69 76       	subc.b	@r6,	r9	
  c6:	65 72       	subc.b	#4,	r5	;r2 As==10
  c8:	73 61       	.word	0x6173;	????	Illegal as 2-op instr
  ca:	6e 63       	addc.b	#2,	r14	;r3 As==10
  cc:	68 65       	addc.b	@r5,	r8	
  ce:	7a 2f       	jc	$-266    	;abs 0xffc4
  d0:	41 70       	subc.b	r0,	r1	
  d2:	70 6c       	addc.b	@r12+,	r0	
  d4:	69 63       	addc.b	#2,	r9	;r3 As==10
  d6:	61 74       	subc.b	@r4,	r1	
  d8:	69 6f       	addc.b	@r15,	r9	
  da:	6e 73       	subc.b	#2,	r14	;r3 As==10
  dc:	2f 45       	mov	@r5,	r15	
  de:	6e 65       	addc.b	@r5,	r14	
  e0:	72 67       	addc.b	@r7+,	r2	
  e2:	69 61       	addc.b	@r1,	r9	
  e4:	2e 61       	addc	@r1,	r14	
  e6:	70 70 2f 43 	subc.b	#17199,	r0	;#0x432f
  ea:	6f 6e       	addc.b	@r14,	r15	
  ec:	74 65       	addc.b	@r5+,	r4	
  ee:	6e 74       	subc.b	@r4,	r14	
  f0:	73 2f       	jc	$-280    	;abs 0xffd8
  f2:	52 65 73 6f 	addc.b	28531(r5),r2	;0x6f73(r5)
  f6:	75 72       	subc.b	#8,	r5	;r2 As==11
  f8:	63 65       	.word	0x6563;	????	Illegal as 2-op instr
  fa:	73 2f       	jc	$-280    	;abs 0xffe2
  fc:	4a 61       	addc.b	r1,	r10	
  fe:	76 61       	addc.b	@r1+,	r6	
 100:	2f 68       	addc	@r8,	r15	
 102:	61 72       	subc.b	#4,	r1	;r2 As==10
 104:	64 77       	subc.b	@r7,	r4	
 106:	61 72       	subc.b	#4,	r1	;r2 As==10
 108:	65 2f       	jc	$-308    	;abs 0xffd4
 10a:	74 6f       	addc.b	@r15+,	r4	
 10c:	6f 6c       	addc.b	@r12,	r15	
 10e:	73 2f       	jc	$-280    	;abs 0xfff6
 110:	6d 73       	subc.b	#2,	r13	;r3 As==10
 112:	70 34       	jge	$+226    	;abs 0x1f4
 114:	33 30       	jn	$+104    	;abs 0x17c
 116:	2f 62       	addc	#4,	r15	;r2 As==10
 118:	69 6e       	addc.b	@r14,	r9	
 11a:	2f 2e       	jc	$-928    	;abs 0xfd7a
 11c:	2e 2f       	jc	$-418    	;abs 0xff7a
 11e:	6c 69       	addc.b	@r9,	r12	
 120:	62 2f       	jc	$-314    	;abs 0xffe6
 122:	67 63       	addc.b	#2,	r7	;r3 As==10
 124:	63 2f       	jc	$-312    	;abs 0xffec
 126:	6d 73       	subc.b	#2,	r13	;r3 As==10
 128:	70 34       	jge	$+226    	;abs 0x20a
 12a:	33 30       	jn	$+104    	;abs 0x192
 12c:	2f 34       	jge	$+96     	;abs 0x18c
 12e:	2e 36       	jge	$-930    	;abs 0xfd8c
 130:	2e 33       	jn	$-418    	;abs 0xff8e
 132:	2f 2e       	jc	$-928    	;abs 0xfd92
 134:	2e 2f       	jc	$-418    	;abs 0xff92
 136:	2e 2e       	jc	$-930    	;abs 0xfd94
 138:	2f 2e       	jc	$-928    	;abs 0xfd98
 13a:	2e 2f       	jc	$-418    	;abs 0xff98
 13c:	2e 2e       	jc	$-930    	;abs 0xfd9a
 13e:	2f 6d       	addc	@r13,	r15	
 140:	73 70       	.word	0x7073;	????	Illegal as 2-op instr
 142:	34 33       	jn	$-406    	;abs 0xffac
 144:	30 2f       	jc	$-414    	;abs 0xffa6
 146:	69 6e       	addc.b	@r14,	r9	
 148:	63 6c       	.word	0x6c63;	????	Illegal as 2-op instr
 14a:	75 64       	addc.b	@r4+,	r5	
 14c:	65 00       	.word	0x0065;	????	
 14e:	00 73       	sbc	r0		
 150:	68 65       	addc.b	@r5,	r8	
 152:	6c 6c       	addc.b	@r12,	r12	
 154:	2e 63       	addc	#2,	r14	;r3 As==10
 156:	00 00       	.word	0x0000;	????	
 158:	00 00       	.word	0x0000;	????	
 15a:	73 68       	.word	0x6873;	????	Illegal as 2-op instr
 15c:	65 6c       	addc.b	@r12,	r5	
 15e:	6c 2e       	jc	$-806    	;abs 0xfe38
 160:	68 00       	.word	0x0068;	????	
 162:	01 00       	.word	0x0001;	????	
 164:	00 73       	sbc	r0		
 166:	68 65       	addc.b	@r5,	r8	
 168:	6c 6c       	addc.b	@r12,	r12	
 16a:	2e 68       	addc	@r8,	r14	
 16c:	00 00       	.word	0x0000;	????	
 16e:	00 00       	.word	0x0000;	????	
 170:	6d 73       	subc.b	#2,	r13	;r3 As==10
 172:	70 34       	jge	$+226    	;abs 0x254
 174:	33 30       	jn	$+104    	;abs 0x1dc
 176:	67 32       	jn	$-816    	;abs 0xfe46
 178:	35 35       	jge	$+620    	;abs 0x3e4
 17a:	33 2e       	jc	$-920    	;abs 0xfde2
 17c:	68 00       	.word	0x0068;	????	
 17e:	02 00       	.word	0x0002;	????	
 180:	00 00       	.word	0x0000;	????	
 182:	00 03       	.word	0x0300;	????	
 184:	02 28       	jnc	$+6      	;abs 0x18a
 186:	c1 03       	.word	0x03c1;	????	
 188:	82 01       	.word	0x0182;	????	
 18a:	01 4b       	mov	r11,	r1	
 18c:	83 2b       	jnc	$-248    	;abs 0x94
 18e:	00 02       	.word	0x0200;	????	
 190:	04 02       	.word	0x0204;	????	
 192:	86 00       	.word	0x0086;	????	
 194:	02 04       	.word	0x0402;	????	
 196:	02 08       	.word	0x0802;	????	
 198:	57 03       	.word	0x0357;	????	
 19a:	09 82       	sub	r2,	r9	
 19c:	7e a2       	dadd.b	#8,	r14	;r2 As==11
 19e:	03 8d       	.word	0x8d03;	????	Illegal as 2-op instr
 1a0:	7f 82       	sub.b	#8,	r15	;r2 As==11
 1a2:	69 84       	sub.b	@r4,	r9	
 1a4:	00 02       	.word	0x0200;	????	
 1a6:	04 02       	.word	0x0204;	????	
 1a8:	83 00       	.word	0x0083;	????	
 1aa:	02 04       	.word	0x0402;	????	
 1ac:	02 08       	.word	0x0802;	????	
 1ae:	8f 87 03 6b 	sub	r7,	27395(r15);0x6b03(r15)
 1b2:	82 4d 00 02 	mov	r13,	&0x0200	
 1b6:	04 02       	.word	0x0204;	????	
 1b8:	bb 00       	.word	0x00bb;	????	
 1ba:	02 04       	.word	0x0402;	????	
 1bc:	02 08       	.word	0x0802;	????	
 1be:	1f db 03 30 	bis	12291(r11),r15	;0x3003(r11)
 1c2:	82 13       	.word	0x1382;	????	
 1c4:	85 6d 51 d7 	addc	r13,	-10415(r5);0xd751(r5)
 1c8:	f3 4e       	mov.b	@r14+,	#1	;r3 As==01
 1ca:	03 6a       	.word	0x6a03;	????	Illegal as 2-op instr
 1cc:	4a 03       	.word	0x034a;	????	
 1ce:	16 9e 03 74 	cmp	29699(r14),r6	;0x7403(r14)
 1d2:	4a 9f       	cmp.b	r15,	r10	
 1d4:	f3 4b       	mov.b	@r11+,	#1	;r3 As==01
 1d6:	03 09       	.word	0x0903;	????	
 1d8:	66 03       	.word	0x0366;	????	
 1da:	6d 4a       	mov.b	@r10,	r13	
 1dc:	9f f3 4b 67 	and	#1,	26443(r15);r3 As==01, 0x674b(r15)
 1e0:	03 12       	push	#0		;r3 As==00
 1e2:	82 4b 85 03 	mov	r11,	&0x0385	
 1e6:	09 66       	addc	r6,	r9	
 1e8:	52 03       	.word	0x0352;	????	
 1ea:	24 82       	sub	#4,	r4	;r2 As==10
 1ec:	d7 03       	.word	0x03d7;	????	
 1ee:	5b 82 08 92 	sub.b	&0x9208,r11	
 1f2:	f3 4f       	mov.b	@r15+,	#1	;r3 As==01
 1f4:	03 65       	.word	0x6503;	????	Illegal as 2-op instr
 1f6:	82 03       	.word	0x0382;	????	
 1f8:	1b 9e 03 71 	cmp	28931(r14),r11	;0x7103(r14)
 1fc:	82 03       	.word	0x0382;	????	
 1fe:	2b 4a       	mov	@r10,	r11	
 200:	d7 03       	.word	0x03d7;	????	
 202:	54 82 08 92 	sub.b	&0x9208,r4	
 206:	f3 4b       	mov.b	@r11+,	#1	;r3 As==01
 208:	03 0b       	.word	0x0b03;	????	
 20a:	66 03       	.word	0x0366;	????	
 20c:	68 82       	sub.b	#4,	r8	;r2 As==10
 20e:	03 34       	jge	$+8      	;abs 0x216
 210:	4a d7       	bis.b	r7,	r10	
 212:	03 4b       	.word	0x4b03;	????	Illegal as 2-op instr
 214:	82 08       	.word	0x0882;	????	
 216:	93 f3       	and	#1,	#1	;r3 As==01, r3 As==01
 218:	4b 67       	addc.b	r7,	r11	
 21a:	03 ba       	.word	0xba03;	????	Illegal as 2-op instr
 21c:	7f 82       	sub.b	#8,	r15	;r2 As==11
 21e:	84 03       	.word	0x0384;	????	
 220:	0a 82       	sub	r2,	r10	
 222:	03 0d       	.word	0x0d03;	????	
 224:	2e a2       	dadd	#4,	r14	;r2 As==10
 226:	03 66       	.word	0x6603;	????	Illegal as 2-op instr
 228:	9e f3 08 c9 	and	#1,	-14072(r14);r3 As==01, 0xc908(r14)
 22c:	08 59       	add	r9,	r8	
 22e:	d7 08       	.word	0x08d7;	????	
 230:	75 67       	addc.b	@r7+,	r5	
 232:	6a d7       	bis.b	@r7,	r10	
 234:	08 c9       	bic	r9,	r8	
 236:	08 59       	add	r9,	r8	
 238:	08 21       	jnz	$+530    	;abs 0x44a
 23a:	08 75       	subc	r5,	r8	
 23c:	67 4b       	mov.b	@r11,	r7	
 23e:	03 d5       	.word	0xd503;	????	Illegal as 2-op instr
 240:	00 66       	addc	r6,	r0	
 242:	13 9f       	.word	0x9f13;	????	Illegal as 2-op instr
 244:	36 13       	reti			;return from interupt
 246:	bb 84 03 d2 	sub	@r4+,	-11773(r11);0xd203(r11)
 24a:	00 2e       	jc	$-1022   	;abs 0xfe4c
 24c:	68 f3       	and.b	#2,	r8	;r3 As==10
 24e:	bb 00       	.word	0x00bb;	????	
 250:	02 04       	.word	0x0402;	????	
 252:	01 4c       	mov	r12,	r1	
 254:	67 83       	decd.b	r7		
 256:	67 02       	.word	0x0267;	????	
 258:	08 00       	.word	0x0008;	????	
 25a:	01 01       	.word	0x0101;	????	
 25c:	00 03       	.word	0x0300;	????	
 25e:	02 3e       	jmp	$-1018   	;abs 0xfe64
 260:	c0 03       	.word	0x03c0;	????	
 262:	a6 01       	.word	0x01a6;	????	
 264:	01 14       	.word	0x1401;	????	
 266:	67 67       	addc.b	@r7,	r7	
 268:	69 67       	addc.b	@r7,	r9	
 26a:	4c 4b       	mov.b	r11,	r12	
 26c:	4b 4b       	mov.b	r11,	r11	
 26e:	4c 4b       	mov.b	r11,	r12	
 270:	4c 83       	sub.b	#0,	r12	;r3 As==00
 272:	03 09       	.word	0x0903;	????	
 274:	2e d8       	bis	@r8,	r14	
 276:	83 4b       	mov	r11,	#1	;r3 As==01
 278:	83 4b       	mov	r11,	#1	;r3 As==01
 27a:	4b 67       	addc.b	r7,	r11	
 27c:	08 3f       	jmp	$-494    	;abs 0x8e
 27e:	a0 03       	.word	0x03a0;	????	
 280:	77 4a       	mov.b	@r10+,	r7	
 282:	03 0c       	.word	0x0c03;	????	
 284:	66 84       	sub.b	@r4,	r6	
 286:	08 af       	dadd	r15,	r8	
 288:	83 30       	jn	$+264    	;abs 0x390
 28a:	83 30       	jn	$+264    	;abs 0x392
 28c:	88 83 02 02 	sub	#0,	514(r8)	;r3 As==00, 0x0202(r8)
 290:	00 01       	.word	0x0100;	????	
 292:	01 fe       	and	r14,	r1	
 294:	00 00       	.word	0x0000;	????	
 296:	00 02       	.word	0x0200;	????	
 298:	00 33       	jn	$-510    	;abs 0x9a
 29a:	00 00       	.word	0x0000;	????	
 29c:	00 01       	.word	0x0100;	????	
 29e:	01 fb       	and	r11,	r1	
 2a0:	0e 0d       	.word	0x0d0e;	????	
 2a2:	00 01       	.word	0x0100;	????	
 2a4:	01 01       	.word	0x0101;	????	
 2a6:	01 00       	.word	0x0001;	????	
 2a8:	00 00       	.word	0x0000;	????	
 2aa:	01 00       	.word	0x0001;	????	
 2ac:	00 01       	.word	0x0100;	????	
 2ae:	2e 2f       	jc	$-418    	;abs 0x10c
 2b0:	69 6e       	addc.b	@r14,	r9	
 2b2:	63 6c       	.word	0x6c63;	????	Illegal as 2-op instr
 2b4:	75 64       	addc.b	@r4+,	r5	
 2b6:	65 00       	.word	0x0065;	????	
 2b8:	00 73       	sbc	r0		
 2ba:	68 65       	addc.b	@r5,	r8	
 2bc:	6c 6c       	addc.b	@r12,	r12	
 2be:	2e 63       	addc	#2,	r14	;r3 As==10
 2c0:	00 00       	.word	0x0000;	????	
 2c2:	00 00       	.word	0x0000;	????	
 2c4:	73 68       	.word	0x6873;	????	Illegal as 2-op instr
 2c6:	65 6c       	addc.b	@r12,	r5	
 2c8:	6c 2e       	jc	$-806    	;abs 0xffa2
 2ca:	68 00       	.word	0x0068;	????	
 2cc:	01 00       	.word	0x0001;	????	
 2ce:	00 00       	.word	0x0000;	????	
 2d0:	00 03       	.word	0x0300;	????	
 2d2:	02 2c       	jc	$+6      	;abs 0x2d8
 2d4:	c5 03       	.word	0x03c5;	????	
 2d6:	16 01       	.word	0x0116;	????	
 2d8:	2f 30       	jn	$+96     	;abs 0x338
 2da:	00 02       	.word	0x0200;	????	
 2dc:	04 01       	.word	0x0104;	????	
 2de:	06 4a       	mov	r10,	r6	
 2e0:	00 02       	.word	0x0200;	????	
 2e2:	04 01       	.word	0x0104;	????	
 2e4:	06 46       	mov	r6,	r6	
 2e6:	00 02       	.word	0x0200;	????	
 2e8:	04 01       	.word	0x0104;	????	
 2ea:	4e 69       	addc.b	r9,	r14	
 2ec:	31 69       	addc	@r9+,	r1	
 2ee:	00 02       	.word	0x0200;	????	
 2f0:	04 01       	.word	0x0104;	????	
 2f2:	06 4a       	mov	r10,	r6	
 2f4:	06 46       	mov	r6,	r6	
 2f6:	89 65 00 02 	addc	r5,	512(r9)	;0x0200(r9)
 2fa:	04 01       	.word	0x0104;	????	
 2fc:	06 2e       	jc	$-1010   	;abs 0xff0a
 2fe:	06 50       	add	r0,	r6	
 300:	00 02       	.word	0x0200;	????	
 302:	04 01       	.word	0x0104;	????	
 304:	06 4a       	mov	r10,	r6	
 306:	06 03       	.word	0x0306;	????	
 308:	78 ba       	bit.b	@r10+,	r8	
 30a:	03 0c       	.word	0x0c03;	????	
 30c:	4a 47       	mov.b	r7,	r10	
 30e:	32 85       	sub	@r5+,	r2	
 310:	14 33       	jn	$-470    	;abs 0x13a
 312:	4c bc       	bit.b	r12,	r12	
 314:	00 02       	.word	0x0200;	????	
 316:	04 01       	.word	0x0104;	????	
 318:	08 38       	jl	$+18     	;abs 0x32a
 31a:	6e 4d       	mov.b	@r13,	r14	
 31c:	da 2d       	jc	$+950    	;abs 0x6d2
 31e:	31 84       	sub	@r4+,	r1	
 320:	68 00       	.word	0x0068;	????	
 322:	02 04       	.word	0x0402;	????	
 324:	01 06       	.word	0x0601;	????	
 326:	ba 06       	.word	0x06ba;	????	
 328:	4c 00       	.word	0x004c;	????	
 32a:	02 04       	.word	0x0402;	????	
 32c:	01 06       	.word	0x0601;	????	
 32e:	4a 06       	.word	0x064a;	????	
 330:	31 4e       	mov	@r14+,	r1	
 332:	bc 03       	.word	0x03bc;	????	
 334:	6a 2e       	jc	$-810    	;abs 0xa
 336:	00 02       	.word	0x0200;	????	
 338:	04 02       	.word	0x0204;	????	
 33a:	06 66       	rlc	r6		
 33c:	00 02       	.word	0x0200;	????	
 33e:	04 02       	.word	0x0204;	????	
 340:	06 03       	.word	0x0306;	????	
 342:	17 08       	.word	0x0817;	????	
 344:	20 00       	.word	0x0020;	????	
 346:	02 04       	.word	0x0402;	????	
 348:	02 65       	addc	r5,	r2	
 34a:	00 02       	.word	0x0200;	????	
 34c:	04 01       	.word	0x0104;	????	
 34e:	06 2e       	jc	$-1010   	;abs 0xff5c
 350:	06 4d       	mov	r13,	r6	
 352:	03 78       	.word	0x7803;	????	Illegal as 2-op instr
 354:	08 3c       	jmp	$+18     	;abs 0x366
 356:	03 76       	.word	0x7603;	????	Illegal as 2-op instr
 358:	2e 00       	.word	0x002e;	????	
 35a:	02 04       	.word	0x0402;	????	
 35c:	01 06       	.word	0x0601;	????	
 35e:	2e 06       	.word	0x062e;	????	
 360:	03 18       	.word	0x1803;	????	
 362:	4a 4c       	mov.b	r12,	r10	
 364:	03 68       	.word	0x6803;	????	Illegal as 2-op instr
 366:	4a 03       	.word	0x034a;	????	
 368:	0b 4a       	mov	r10,	r11	
 36a:	03 0e       	.word	0x0e03;	????	
 36c:	2e f5       	and	@r5,	r14	
 36e:	03 19       	.word	0x1903;	????	
 370:	08 3c       	jmp	$+18     	;abs 0x382
 372:	03 6f       	.word	0x6f03;	????	Illegal as 2-op instr
 374:	2e 4c       	mov	@r12,	r14	
 376:	83 a0       	dadd	r0,	#1	;r3 As==01
 378:	08 3d       	jmp	$+530    	;abs 0x58a
 37a:	a0 4c 4d 03 	mov	@r12,	845(r0)	;PC rel. 0x06c9
 37e:	73 08       	.word	0x0873;	????	
 380:	3c 00       	.word	0x003c;	????	
 382:	02 04       	.word	0x0402;	????	
 384:	01 06       	.word	0x0601;	????	
 386:	2e 06       	.word	0x062e;	????	
 388:	03 11       	rra	#0		;r3 As==00
 38a:	66 03       	.word	0x0366;	????	
 38c:	78 66       	addc.b	@r6+,	r8	
 38e:	68 51       	add.b	@r1,	r8	
 390:	02 12       	push	r2		
 392:	00 01       	.word	0x0100;	????	
 394:	01 65       	addc	r5,	r1	
 396:	01 00       	.word	0x0001;	????	
 398:	00 02       	.word	0x0200;	????	
 39a:	00 aa       	dadd	r10,	r0	
 39c:	00 00       	.word	0x0000;	????	
 39e:	00 01       	.word	0x0100;	????	
 3a0:	01 fb       	and	r11,	r1	
 3a2:	0e 0d       	.word	0x0d0e;	????	
 3a4:	00 01       	.word	0x0100;	????	
 3a6:	01 01       	.word	0x0101;	????	
 3a8:	01 00       	.word	0x0001;	????	
 3aa:	00 00       	.word	0x0000;	????	
 3ac:	01 00       	.word	0x0001;	????	
 3ae:	00 01       	.word	0x0100;	????	
 3b0:	2f 55       	add	@r5,	r15	
 3b2:	73 65       	.word	0x6573;	????	Illegal as 2-op instr
 3b4:	72 73       	subc.b	#-1,	r2	;r3 As==11
 3b6:	2f 6f       	addc	@r15,	r15	
 3b8:	6c 69       	addc.b	@r9,	r12	
 3ba:	76 65       	addc.b	@r5+,	r6	
 3bc:	72 73       	subc.b	#-1,	r2	;r3 As==11
 3be:	61 6e       	addc.b	@r14,	r1	
 3c0:	63 68       	.word	0x6863;	????	Illegal as 2-op instr
 3c2:	65 7a       	subc.b	@r10,	r5	
 3c4:	2f 41       	mov	@r1,	r15	
 3c6:	70 70 6c 69 	subc.b	#26988,	r0	;#0x696c
 3ca:	63 61       	.word	0x6163;	????	Illegal as 2-op instr
 3cc:	74 69       	addc.b	@r9+,	r4	
 3ce:	6f 6e       	addc.b	@r14,	r15	
 3d0:	73 2f       	jc	$-280    	;abs 0x2b8
 3d2:	45 6e       	addc.b	r14,	r5	
 3d4:	65 72       	subc.b	#4,	r5	;r2 As==10
 3d6:	67 69       	addc.b	@r9,	r7	
 3d8:	61 2e       	jc	$-828    	;abs 0x9c
 3da:	61 70       	subc.b	@r0,	r1	
 3dc:	70 2f       	jc	$-286    	;abs 0x2be
 3de:	43 6f       	.word	0x6f43;	????	Illegal as 2-op instr
 3e0:	6e 74       	subc.b	@r4,	r14	
 3e2:	65 6e       	addc.b	@r14,	r5	
 3e4:	74 73       	subc.b	#-1,	r4	;r3 As==11
 3e6:	2f 52       	add	#4,	r15	;r2 As==10
 3e8:	65 73       	subc.b	#2,	r5	;r3 As==10
 3ea:	6f 75       	subc.b	@r5,	r15	
 3ec:	72 63       	addc.b	#-1,	r2	;r3 As==11
 3ee:	65 73       	subc.b	#2,	r5	;r3 As==10
 3f0:	2f 4a       	mov	@r10,	r15	
 3f2:	61 76       	subc.b	@r6,	r1	
 3f4:	61 2f       	jc	$-316    	;abs 0x2b8
 3f6:	68 61       	addc.b	@r1,	r8	
 3f8:	72 64       	addc.b	@r4+,	r2	
 3fa:	77 61       	addc.b	@r1+,	r7	
 3fc:	72 65       	addc.b	@r5+,	r2	
 3fe:	2f 74       	subc	@r4,	r15	
 400:	6f 6f       	addc.b	@r15,	r15	
 402:	6c 73       	subc.b	#2,	r12	;r3 As==10
 404:	2f 6d       	addc	@r13,	r15	
 406:	73 70       	.word	0x7073;	????	Illegal as 2-op instr
 408:	34 33       	jn	$-406    	;abs 0x272
 40a:	30 2f       	jc	$-414    	;abs 0x26c
 40c:	62 69       	addc.b	@r9,	r2	
 40e:	6e 2f       	jc	$-290    	;abs 0x2ec
 410:	2e 2e       	jc	$-930    	;abs 0x6e
 412:	2f 6c       	addc	@r12,	r15	
 414:	69 62       	addc.b	#4,	r9	;r2 As==10
 416:	2f 67       	addc	@r7,	r15	
 418:	63 63       	.word	0x6363;	????	Illegal as 2-op instr
 41a:	2f 6d       	addc	@r13,	r15	
 41c:	73 70       	.word	0x7073;	????	Illegal as 2-op instr
 41e:	34 33       	jn	$-406    	;abs 0x288
 420:	30 2f       	jc	$-414    	;abs 0x282
 422:	34 2e       	jc	$-918    	;abs 0x8c
 424:	36 2e       	jc	$-914    	;abs 0x92
 426:	33 2f       	jc	$-408    	;abs 0x28e
 428:	69 6e       	addc.b	@r14,	r9	
 42a:	63 6c       	.word	0x6c63;	????	Illegal as 2-op instr
 42c:	75 64       	addc.b	@r4+,	r5	
 42e:	65 00       	.word	0x0065;	????	
 430:	00 63       	adc	r0		
 432:	6f 6e       	addc.b	@r14,	r15	
 434:	69 6f       	addc.b	@r15,	r9	
 436:	2e 63       	addc	#2,	r14	;r3 As==10
 438:	00 00       	.word	0x0000;	????	
 43a:	00 00       	.word	0x0000;	????	
 43c:	73 74       	.word	0x7473;	????	Illegal as 2-op instr
 43e:	64 61       	addc.b	@r1,	r4	
 440:	72 67       	addc.b	@r7+,	r2	
 442:	2e 68       	addc	@r8,	r14	
 444:	00 01       	.word	0x0100;	????	
 446:	00 00       	.word	0x0000;	????	
 448:	00 00       	.word	0x0000;	????	
 44a:	03 02       	.word	0x0203;	????	
 44c:	ee c6 03 d9 	bic.b	@r6,	-9981(r14);0xd903(r14)
 450:	00 01       	.word	0x0100;	????	
 452:	f6 00       	.word	0x00f6;	????	
 454:	02 04       	.word	0x0402;	????	
 456:	02 9f       	cmp	r15,	r2	
 458:	00 02       	.word	0x0200;	????	
 45a:	04 01       	.word	0x0104;	????	
 45c:	06 2e       	jc	$-1010   	;abs 0x6a
 45e:	06 bc       	bit	r12,	r6	
 460:	4b 4b       	mov.b	r11,	r11	
 462:	00 02       	.word	0x0200;	????	
 464:	04 02       	.word	0x0204;	????	
 466:	06 2e       	jc	$-1010   	;abs 0x74
 468:	00 02       	.word	0x0200;	????	
 46a:	04 01       	.word	0x0104;	????	
 46c:	66 06       	.word	0x0666;	????	
 46e:	bb 4b d8 83 	mov	@r11+,	-31784(r11);0x83d8(r11)
 472:	03 6c       	.word	0x6c03;	????	Illegal as 2-op instr
 474:	ba 14       	.word	0x14ba;	????	
 476:	bb 03       	.word	0x03bb;	????	
 478:	42 2e       	jc	$-890    	;abs 0xfe
 47a:	4d 2f       	jc	$-356    	;abs 0x316
 47c:	00 02       	.word	0x0200;	????	
 47e:	04 01       	.word	0x0104;	????	
 480:	49 69       	rlc.b	r9		
 482:	4d bf       	bit.b	r15,	r13	
 484:	f3 83       	sub.b	#-1,	#1	;r3 As==11, r3 As==01
 486:	00 02       	.word	0x0200;	????	
 488:	04 01       	.word	0x0104;	????	
 48a:	32 00       	.word	0x0032;	????	
 48c:	02 04       	.word	0x0402;	????	
 48e:	01 08       	.word	0x0801;	????	
 490:	21 00       	.word	0x0021;	????	
 492:	02 04       	.word	0x0402;	????	
 494:	01 b8       	bit	r8,	r1	
 496:	00 02       	.word	0x0200;	????	
 498:	04 02       	.word	0x0204;	????	
 49a:	06 82       	sub	r2,	r6	
 49c:	06 4f       	mov	r15,	r6	
 49e:	00 02       	.word	0x0200;	????	
 4a0:	04 02       	.word	0x0204;	????	
 4a2:	03 70       	.word	0x7003;	????	Illegal as 2-op instr
 4a4:	66 00       	.word	0x0066;	????	
 4a6:	02 04       	.word	0x0402;	????	
 4a8:	02 03       	.word	0x0302;	????	
 4aa:	11 82 00 02 	sub	&0x0200,r1	
 4ae:	04 01       	.word	0x0104;	????	
 4b0:	06 66       	rlc	r6		
 4b2:	00 02       	.word	0x0200;	????	
 4b4:	04 01       	.word	0x0104;	????	
 4b6:	06 49       	mov	r9,	r6	
 4b8:	69 bd       	bit.b	@r13,	r9	
 4ba:	69 4b       	mov.b	@r11,	r9	
 4bc:	08 59       	add	r9,	r8	
 4be:	68 7e       	subc.b	@r14,	r8	
 4c0:	6e 03       	.word	0x036e;	????	
 4c2:	29 66       	addc	@r6,	r9	
 4c4:	fa 2f       	jc	$-10     	;abs 0x4ba
 4c6:	67 02       	.word	0x0267;	????	
 4c8:	44 14       	.word	0x1444;	????	
 4ca:	bd bb 31 67 	bit	@r11+,	26417(r13);0x6731(r13)
 4ce:	00 02       	.word	0x0200;	????	
 4d0:	04 01       	.word	0x0104;	????	
 4d2:	06 66       	rlc	r6		
 4d4:	06 f3       	and	#0,	r6	;r3 As==00
 4d6:	da 9f 00 02 	cmp.b	512(r15),260(r10);0x0200(r15), 0x0104(r10)
 4da:	04 01 
 4dc:	06 66       	rlc	r6		
 4de:	06 08       	.word	0x0806;	????	
 4e0:	ad b8 31 30 	bit	@r8,	12337(r13);0x3031(r13)
 4e4:	67 08       	.word	0x0867;	????	
 4e6:	21 9f       	cmp	@r15,	r1	
 4e8:	d7 03       	.word	0x03d7;	????	
 4ea:	66 82       	sub.b	#4,	r6	;r2 As==10
 4ec:	03 23       	jnz	$-504    	;abs 0x2f4
 4ee:	2e 00       	.word	0x002e;	????	
 4f0:	02 04       	.word	0x0402;	????	
 4f2:	01 03       	.word	0x0301;	????	
 4f4:	5d 4a 03 26 	mov.b	9731(r10),r13	;0x2603(r10)
 4f8:	66 02       	.word	0x0266;	????	
 4fa:	0a 00       	.word	0x000a;	????	
 4fc:	01 01       	.word	0x0101;	????	
 4fe:	3d 00       	.word	0x003d;	????	
 500:	00 00       	.word	0x0000;	????	
 502:	02 00       	.word	0x0002;	????	
 504:	25 00       	.word	0x0025;	????	
 506:	00 00       	.word	0x0000;	????	
 508:	01 01       	.word	0x0101;	????	
 50a:	fb 0e       	.word	0x0efb;	????	
 50c:	0d 00       	.word	0x000d;	????	
 50e:	01 01       	.word	0x0101;	????	
 510:	01 01       	.word	0x0101;	????	
 512:	00 00       	.word	0x0000;	????	
 514:	00 01       	.word	0x0100;	????	
 516:	00 00       	.word	0x0000;	????	
 518:	01 00       	.word	0x0001;	????	
 51a:	63 6f       	.word	0x6f63;	????	Illegal as 2-op instr
 51c:	6e 69       	addc.b	@r9,	r14	
 51e:	6f 5f       	add.b	@r15,	r15	
 520:	73 65       	.word	0x6573;	????	Illegal as 2-op instr
 522:	72 69       	addc.b	@r9+,	r2	
 524:	61 6c       	addc.b	@r12,	r1	
 526:	2e 63       	addc	#2,	r14	;r3 As==10
 528:	00 00       	.word	0x0000;	????	
 52a:	00 00       	.word	0x0000;	????	
 52c:	00 00       	.word	0x0000;	????	
 52e:	03 02       	.word	0x0203;	????	
 530:	58 c9 03 17 	bic.b	5891(r9),r8	;0x1703(r9)
 534:	01 13       	reti			;return from interupt
 536:	4b 31       	jn	$+664    	;abs 0x7ce
 538:	13 4b       	.word	0x4b13;	????	Illegal as 2-op instr
 53a:	02 02       	.word	0x0202;	????	
 53c:	00 01       	.word	0x0100;	????	
 53e:	01 1b       	.word	0x1b01;	????	
 540:	01 00       	.word	0x0001;	????	
 542:	00 02       	.word	0x0200;	????	
 544:	00 cf       	bic	r15,	r0	
 546:	00 00       	.word	0x0000;	????	
 548:	00 01       	.word	0x0100;	????	
 54a:	01 fb       	and	r11,	r1	
 54c:	0e 0d       	.word	0x0d0e;	????	
 54e:	00 01       	.word	0x0100;	????	
 550:	01 01       	.word	0x0101;	????	
 552:	01 00       	.word	0x0001;	????	
 554:	00 00       	.word	0x0000;	????	
 556:	01 00       	.word	0x0001;	????	
 558:	00 01       	.word	0x0100;	????	
 55a:	2f 55       	add	@r5,	r15	
 55c:	73 65       	.word	0x6573;	????	Illegal as 2-op instr
 55e:	72 73       	subc.b	#-1,	r2	;r3 As==11
 560:	2f 6f       	addc	@r15,	r15	
 562:	6c 69       	addc.b	@r9,	r12	
 564:	76 65       	addc.b	@r5+,	r6	
 566:	72 73       	subc.b	#-1,	r2	;r3 As==11
 568:	61 6e       	addc.b	@r14,	r1	
 56a:	63 68       	.word	0x6863;	????	Illegal as 2-op instr
 56c:	65 7a       	subc.b	@r10,	r5	
 56e:	2f 41       	mov	@r1,	r15	
 570:	70 70 6c 69 	subc.b	#26988,	r0	;#0x696c
 574:	63 61       	.word	0x6163;	????	Illegal as 2-op instr
 576:	74 69       	addc.b	@r9+,	r4	
 578:	6f 6e       	addc.b	@r14,	r15	
 57a:	73 2f       	jc	$-280    	;abs 0x462
 57c:	45 6e       	addc.b	r14,	r5	
 57e:	65 72       	subc.b	#4,	r5	;r2 As==10
 580:	67 69       	addc.b	@r9,	r7	
 582:	61 2e       	jc	$-828    	;abs 0x246
 584:	61 70       	subc.b	@r0,	r1	
 586:	70 2f       	jc	$-286    	;abs 0x468
 588:	43 6f       	.word	0x6f43;	????	Illegal as 2-op instr
 58a:	6e 74       	subc.b	@r4,	r14	
 58c:	65 6e       	addc.b	@r14,	r5	
 58e:	74 73       	subc.b	#-1,	r4	;r3 As==11
 590:	2f 52       	add	#4,	r15	;r2 As==10
 592:	65 73       	subc.b	#2,	r5	;r3 As==10
 594:	6f 75       	subc.b	@r5,	r15	
 596:	72 63       	addc.b	#-1,	r2	;r3 As==11
 598:	65 73       	subc.b	#2,	r5	;r3 As==10
 59a:	2f 4a       	mov	@r10,	r15	
 59c:	61 76       	subc.b	@r6,	r1	
 59e:	61 2f       	jc	$-316    	;abs 0x462
 5a0:	68 61       	addc.b	@r1,	r8	
 5a2:	72 64       	addc.b	@r4+,	r2	
 5a4:	77 61       	addc.b	@r1+,	r7	
 5a6:	72 65       	addc.b	@r5+,	r2	
 5a8:	2f 74       	subc	@r4,	r15	
 5aa:	6f 6f       	addc.b	@r15,	r15	
 5ac:	6c 73       	subc.b	#2,	r12	;r3 As==10
 5ae:	2f 6d       	addc	@r13,	r15	
 5b0:	73 70       	.word	0x7073;	????	Illegal as 2-op instr
 5b2:	34 33       	jn	$-406    	;abs 0x41c
 5b4:	30 2f       	jc	$-414    	;abs 0x416
 5b6:	62 69       	addc.b	@r9,	r2	
 5b8:	6e 2f       	jc	$-290    	;abs 0x496
 5ba:	2e 2e       	jc	$-930    	;abs 0x218
 5bc:	2f 6c       	addc	@r12,	r15	
 5be:	69 62       	addc.b	#4,	r9	;r2 As==10
 5c0:	2f 67       	addc	@r7,	r15	
 5c2:	63 63       	.word	0x6363;	????	Illegal as 2-op instr
 5c4:	2f 6d       	addc	@r13,	r15	
 5c6:	73 70       	.word	0x7073;	????	Illegal as 2-op instr
 5c8:	34 33       	jn	$-406    	;abs 0x432
 5ca:	30 2f       	jc	$-414    	;abs 0x42c
 5cc:	34 2e       	jc	$-918    	;abs 0x236
 5ce:	36 2e       	jc	$-914    	;abs 0x23c
 5d0:	33 2f       	jc	$-408    	;abs 0x438
 5d2:	2e 2e       	jc	$-930    	;abs 0x230
 5d4:	2f 2e       	jc	$-928    	;abs 0x234
 5d6:	2e 2f       	jc	$-418    	;abs 0x434
 5d8:	2e 2e       	jc	$-930    	;abs 0x236
 5da:	2f 2e       	jc	$-928    	;abs 0x23a
 5dc:	2e 2f       	jc	$-418    	;abs 0x43a
 5de:	6d 73       	subc.b	#2,	r13	;r3 As==10
 5e0:	70 34       	jge	$+226    	;abs 0x6c2
 5e2:	33 30       	jn	$+104    	;abs 0x64a
 5e4:	2f 69       	addc	@r9,	r15	
 5e6:	6e 63       	addc.b	#2,	r14	;r3 As==10
 5e8:	6c 75       	subc.b	@r5,	r12	
 5ea:	64 65       	addc.b	@r5,	r4	
 5ec:	00 00       	.word	0x0000;	????	
 5ee:	73 65       	.word	0x6573;	????	Illegal as 2-op instr
 5f0:	72 69       	addc.b	@r9+,	r2	
 5f2:	61 6c       	addc.b	@r12,	r1	
 5f4:	5f 75 73 63 	subc.b	25459(r5),r15	;0x6373(r5)
 5f8:	69 5f       	add.b	@r15,	r9	
 5fa:	6d 73       	subc.b	#2,	r13	;r3 As==10
 5fc:	70 34       	jge	$+226    	;abs 0x6de
 5fe:	33 30       	jn	$+104    	;abs 0x666
 600:	2e 63       	addc	#2,	r14	;r3 As==10
 602:	00 00       	.word	0x0000;	????	
 604:	00 00       	.word	0x0000;	????	
 606:	6d 73       	subc.b	#2,	r13	;r3 As==10
 608:	70 34       	jge	$+226    	;abs 0x6ea
 60a:	33 30       	jn	$+104    	;abs 0x672
 60c:	67 32       	jn	$-816    	;abs 0x2dc
 60e:	35 35       	jge	$+620    	;abs 0x87a
 610:	33 2e       	jc	$-920    	;abs 0x278
 612:	68 00       	.word	0x0068;	????	
 614:	01 00       	.word	0x0001;	????	
 616:	00 00       	.word	0x0000;	????	
 618:	00 03       	.word	0x0300;	????	
 61a:	02 64       	addc	r4,	r2	
 61c:	c9 03       	.word	0x03c9;	????	
 61e:	2a 01       	.word	0x012a;	????	
 620:	13 67       	.word	0x6713;	????	Illegal as 2-op instr
 622:	67 68       	addc.b	@r8,	r7	
 624:	03 0a       	.word	0x0a03;	????	
 626:	08 ac       	dadd	r12,	r8	
 628:	02 2e       	jc	$-1018   	;abs 0x22e
 62a:	14 d7 bd bf 	bis	-16451(r7),r4	;0xbfbd(r7)
 62e:	02 2e       	jc	$-1018   	;abs 0x234
 630:	14 84 d7 bb 	sub	-17449(r4),r4	;0xbbd7(r4)
 634:	bb da bb d7 	bis	@r10+,	-10309(r11);0xd7bb(r11)
 638:	d7 a4 4b 67 	dadd.b	26443(r4),19203(r7);0x674b(r4), 0x4b03(r7)
 63c:	03 4b 
 63e:	2e 13       	reti			;return from interupt
 640:	d7 03       	.word	0x03d7;	????	
 642:	36 2e       	jc	$-914    	;abs 0x2b0
 644:	13 4b       	.word	0x4b13;	????	Illegal as 2-op instr
 646:	31 00       	.word	0x0031;	????	
 648:	02 04       	.word	0x0402;	????	
 64a:	01 13       	reti			;return from interupt
 64c:	83 4b       	mov	r11,	#1	;r3 As==01
 64e:	31 13       	reti			;return from interupt
 650:	4b 31       	jn	$+664    	;abs 0x8e8
 652:	00 02       	.word	0x0200;	????	
 654:	04 01       	.word	0x0104;	????	
 656:	13 83       	dec	#0		;r3 As==00
 658:	4b 02       	.word	0x024b;	????	
 65a:	02 00       	.word	0x0002;	????	
 65c:	01 01       	.word	0x0101;	????	
 65e:	6a 00       	.word	0x006a;	????	
 660:	00 00       	.word	0x0000;	????	
 662:	02 00       	.word	0x0002;	????	
 664:	4b 00       	.word	0x004b;	????	
 666:	00 00       	.word	0x0000;	????	
 668:	01 01       	.word	0x0101;	????	
 66a:	fb 0e       	.word	0x0efb;	????	
 66c:	0d 00       	.word	0x000d;	????	
 66e:	01 01       	.word	0x0101;	????	
 670:	01 01       	.word	0x0101;	????	
 672:	00 00       	.word	0x0000;	????	
 674:	00 01       	.word	0x0100;	????	
 676:	00 00       	.word	0x0000;	????	
 678:	01 2e       	jc	$-1020   	;abs 0x27c
 67a:	2e 2f       	jc	$-418    	;abs 0x4d8
 67c:	2e 2e       	jc	$-930    	;abs 0x2da
 67e:	2f 2e       	jc	$-928    	;abs 0x2de
 680:	2e 2f       	jc	$-418    	;abs 0x4de
 682:	2e 2e       	jc	$-930    	;abs 0x2e0
 684:	2f 67       	addc	@r7,	r15	
 686:	63 63       	.word	0x6363;	????	Illegal as 2-op instr
 688:	2f 6c       	addc	@r12,	r15	
 68a:	69 62       	addc.b	#4,	r9	;r2 As==10
 68c:	67 63       	addc.b	#2,	r7	;r3 As==10
 68e:	63 2f       	jc	$-312    	;abs 0x556
 690:	2e 2e       	jc	$-930    	;abs 0x2ee
 692:	2f 67       	addc	@r7,	r15	
 694:	63 63       	.word	0x6363;	????	Illegal as 2-op instr
 696:	2f 63       	addc	#2,	r15	;r3 As==10
 698:	6f 6e       	addc.b	@r14,	r15	
 69a:	66 69       	addc.b	@r9,	r6	
 69c:	67 2f       	jc	$-304    	;abs 0x56c
 69e:	6d 73       	subc.b	#2,	r13	;r3 As==10
 6a0:	70 34       	jge	$+226    	;abs 0x782
 6a2:	33 30       	jn	$+104    	;abs 0x70a
 6a4:	00 00       	.word	0x0000;	????	
 6a6:	6c 69       	addc.b	@r9,	r12	
 6a8:	62 67       	addc.b	@r7,	r2	
 6aa:	63 63       	.word	0x6363;	????	Illegal as 2-op instr
 6ac:	2e 53       	incd	r14		
 6ae:	00 01       	.word	0x0100;	????	
 6b0:	00 00       	.word	0x0000;	????	
 6b2:	00 00       	.word	0x0000;	????	
 6b4:	03 02       	.word	0x0203;	????	
 6b6:	c6 ca 03 af 	bic.b	r10,	-20733(r6);0xaf03(r6)
 6ba:	01 01       	.word	0x0101;	????	
 6bc:	2f 2f       	jc	$-416    	;abs 0x51c
 6be:	2f 32       	jn	$-928    	;abs 0x31e
 6c0:	2f 30       	jn	$+96     	;abs 0x720
 6c2:	2f 2f       	jc	$-416    	;abs 0x522
 6c4:	2f 2f       	jc	$-416    	;abs 0x524
 6c6:	2f 02       	.word	0x022f;	????	
 6c8:	02 00       	.word	0x0002;	????	
 6ca:	01 01       	.word	0x0101;	????	
 6cc:	78 00       	.word	0x0078;	????	
 6ce:	00 00       	.word	0x0000;	????	
 6d0:	02 00       	.word	0x0002;	????	
 6d2:	4b 00       	.word	0x004b;	????	
 6d4:	00 00       	.word	0x0000;	????	
 6d6:	01 01       	.word	0x0101;	????	
 6d8:	fb 0e       	.word	0x0efb;	????	
 6da:	0d 00       	.word	0x000d;	????	
 6dc:	01 01       	.word	0x0101;	????	
 6de:	01 01       	.word	0x0101;	????	
 6e0:	00 00       	.word	0x0000;	????	
 6e2:	00 01       	.word	0x0100;	????	
 6e4:	00 00       	.word	0x0000;	????	
 6e6:	01 2e       	jc	$-1020   	;abs 0x2ea
 6e8:	2e 2f       	jc	$-418    	;abs 0x546
 6ea:	2e 2e       	jc	$-930    	;abs 0x348
 6ec:	2f 2e       	jc	$-928    	;abs 0x34c
 6ee:	2e 2f       	jc	$-418    	;abs 0x54c
 6f0:	2e 2e       	jc	$-930    	;abs 0x34e
 6f2:	2f 67       	addc	@r7,	r15	
 6f4:	63 63       	.word	0x6363;	????	Illegal as 2-op instr
 6f6:	2f 6c       	addc	@r12,	r15	
 6f8:	69 62       	addc.b	#4,	r9	;r2 As==10
 6fa:	67 63       	addc.b	#2,	r7	;r3 As==10
 6fc:	63 2f       	jc	$-312    	;abs 0x5c4
 6fe:	2e 2e       	jc	$-930    	;abs 0x35c
 700:	2f 67       	addc	@r7,	r15	
 702:	63 63       	.word	0x6363;	????	Illegal as 2-op instr
 704:	2f 63       	addc	#2,	r15	;r3 As==10
 706:	6f 6e       	addc.b	@r14,	r15	
 708:	66 69       	addc.b	@r9,	r6	
 70a:	67 2f       	jc	$-304    	;abs 0x5da
 70c:	6d 73       	subc.b	#2,	r13	;r3 As==10
 70e:	70 34       	jge	$+226    	;abs 0x7f0
 710:	33 30       	jn	$+104    	;abs 0x778
 712:	00 00       	.word	0x0000;	????	
 714:	6c 69       	addc.b	@r9,	r12	
 716:	62 67       	addc.b	@r7,	r2	
 718:	63 63       	.word	0x6363;	????	Illegal as 2-op instr
 71a:	2e 53       	incd	r14		
 71c:	00 01       	.word	0x0100;	????	
 71e:	00 00       	.word	0x0000;	????	
 720:	00 00       	.word	0x0000;	????	
 722:	03 02       	.word	0x0203;	????	
 724:	de ca 03 c6 	bic.b	-14845(r10),260(r14);0xc603(r10), 0x0104(r14)
 728:	04 01 
 72a:	2f 2f       	jc	$-416    	;abs 0x58a
 72c:	2f 4b       	mov	@r11,	r15	
 72e:	2f 2f       	jc	$-416    	;abs 0x58e
 730:	2f 2f       	jc	$-416    	;abs 0x590
 732:	2f 2f       	jc	$-416    	;abs 0x592
 734:	2f 2f       	jc	$-416    	;abs 0x594
 736:	4b 2f       	jc	$-360    	;abs 0x5ce
 738:	2f 2f       	jc	$-416    	;abs 0x598
 73a:	2f 2f       	jc	$-416    	;abs 0x59a
 73c:	2f 2f       	jc	$-416    	;abs 0x59c
 73e:	2f 2f       	jc	$-416    	;abs 0x59e
 740:	34 4b       	mov	@r11+,	r4	
 742:	2f 02       	.word	0x022f;	????	
 744:	02 00       	.word	0x0002;	????	
 746:	01 01       	.word	0x0101;	????	
 748:	6d 00       	.word	0x006d;	????	
 74a:	00 00       	.word	0x0000;	????	
 74c:	02 00       	.word	0x0002;	????	
 74e:	4b 00       	.word	0x004b;	????	
 750:	00 00       	.word	0x0000;	????	
 752:	01 01       	.word	0x0101;	????	
 754:	fb 0e       	.word	0x0efb;	????	
 756:	0d 00       	.word	0x000d;	????	
 758:	01 01       	.word	0x0101;	????	
 75a:	01 01       	.word	0x0101;	????	
 75c:	00 00       	.word	0x0000;	????	
 75e:	00 01       	.word	0x0100;	????	
 760:	00 00       	.word	0x0000;	????	
 762:	01 2e       	jc	$-1020   	;abs 0x366
 764:	2e 2f       	jc	$-418    	;abs 0x5c2
 766:	2e 2e       	jc	$-930    	;abs 0x3c4
 768:	2f 2e       	jc	$-928    	;abs 0x3c8
 76a:	2e 2f       	jc	$-418    	;abs 0x5c8
 76c:	2e 2e       	jc	$-930    	;abs 0x3ca
 76e:	2f 67       	addc	@r7,	r15	
 770:	63 63       	.word	0x6363;	????	Illegal as 2-op instr
 772:	2f 6c       	addc	@r12,	r15	
 774:	69 62       	addc.b	#4,	r9	;r2 As==10
 776:	67 63       	addc.b	#2,	r7	;r3 As==10
 778:	63 2f       	jc	$-312    	;abs 0x640
 77a:	2e 2e       	jc	$-930    	;abs 0x3d8
 77c:	2f 67       	addc	@r7,	r15	
 77e:	63 63       	.word	0x6363;	????	Illegal as 2-op instr
 780:	2f 63       	addc	#2,	r15	;r3 As==10
 782:	6f 6e       	addc.b	@r14,	r15	
 784:	66 69       	addc.b	@r9,	r6	
 786:	67 2f       	jc	$-304    	;abs 0x656
 788:	6d 73       	subc.b	#2,	r13	;r3 As==10
 78a:	70 34       	jge	$+226    	;abs 0x86c
 78c:	33 30       	jn	$+104    	;abs 0x7f4
 78e:	00 00       	.word	0x0000;	????	
 790:	6c 69       	addc.b	@r9,	r12	
 792:	62 67       	addc.b	@r7,	r2	
 794:	63 63       	.word	0x6363;	????	Illegal as 2-op instr
 796:	2e 53       	incd	r14		
 798:	00 01       	.word	0x0100;	????	
 79a:	00 00       	.word	0x0000;	????	
 79c:	00 00       	.word	0x0000;	????	
 79e:	03 02       	.word	0x0203;	????	
 7a0:	18 cb 03 a4 	bic	-23549(r11),r8	;0xa403(r11)
 7a4:	04 01       	.word	0x0104;	????	
 7a6:	4b 2f       	jc	$-360    	;abs 0x63e
 7a8:	2f 2f       	jc	$-416    	;abs 0x608
 7aa:	2f 2f       	jc	$-416    	;abs 0x60a
 7ac:	2f 2f       	jc	$-416    	;abs 0x60c
 7ae:	2f 2f       	jc	$-416    	;abs 0x60e
 7b0:	2f 34       	jge	$+96     	;abs 0x810
 7b2:	4b 2f       	jc	$-360    	;abs 0x64a
 7b4:	02 02       	.word	0x0202;	????	
 7b6:	00 01       	.word	0x0100;	????	
 7b8:	01 92       	cmp	r2,	r1	
 7ba:	00 00       	.word	0x0000;	????	
 7bc:	00 02       	.word	0x0200;	????	
 7be:	00 75       	subc	r5,	r0	
 7c0:	00 00       	.word	0x0000;	????	
 7c2:	00 01       	.word	0x0100;	????	
 7c4:	01 fb       	and	r11,	r1	
 7c6:	0e 0d       	.word	0x0d0e;	????	
 7c8:	00 01       	.word	0x0100;	????	
 7ca:	01 01       	.word	0x0101;	????	
 7cc:	01 00       	.word	0x0001;	????	
 7ce:	00 00       	.word	0x0000;	????	
 7d0:	01 00       	.word	0x0001;	????	
 7d2:	00 01       	.word	0x0100;	????	
 7d4:	2e 2f       	jc	$-418    	;abs 0x632
 7d6:	73 74       	.word	0x7473;	????	Illegal as 2-op instr
 7d8:	72 69       	addc.b	@r9+,	r2	
 7da:	6e 67       	addc.b	@r7,	r14	
 7dc:	00 2f       	jc	$-510    	;abs 0x5de
 7de:	55 73       	subc.b	#1,	r5	;r3 As==01
 7e0:	65 72       	subc.b	#4,	r5	;r2 As==10
 7e2:	73 2f       	jc	$-280    	;abs 0x6ca
 7e4:	72 77       	subc.b	@r7+,	r2	
 7e6:	65 73       	subc.b	#2,	r5	;r3 As==10
 7e8:	73 65       	.word	0x6573;	????	Illegal as 2-op instr
 7ea:	6c 73       	subc.b	#2,	r12	;r3 As==10
 7ec:	2f 6f       	addc	@r15,	r15	
 7ee:	70 74       	subc.b	@r4+,	r0	
 7f0:	2f 6d       	addc	@r13,	r15	
 7f2:	73 70       	.word	0x7073;	????	Illegal as 2-op instr
 7f4:	67 63       	addc.b	#2,	r7	;r3 As==10
 7f6:	63 5f       	.word	0x5f63;	????	Illegal as 2-op instr
 7f8:	65 6e       	addc.b	@r14,	r5	
 7fa:	65 72       	subc.b	#4,	r5	;r2 As==10
 7fc:	67 69       	addc.b	@r9,	r7	
 7fe:	61 2f       	jc	$-316    	;abs 0x6c2
 800:	6c 69       	addc.b	@r9,	r12	
 802:	62 2f       	jc	$-314    	;abs 0x6c8
 804:	67 63       	addc.b	#2,	r7	;r3 As==10
 806:	63 2f       	jc	$-312    	;abs 0x6ce
 808:	6d 73       	subc.b	#2,	r13	;r3 As==10
 80a:	70 34       	jge	$+226    	;abs 0x8ec
 80c:	33 30       	jn	$+104    	;abs 0x874
 80e:	2f 34       	jge	$+96     	;abs 0x86e
 810:	2e 36       	jge	$-930    	;abs 0x46e
 812:	2e 33       	jn	$-418    	;abs 0x670
 814:	2f 69       	addc	@r9,	r15	
 816:	6e 63       	addc.b	#2,	r14	;r3 As==10
 818:	6c 75       	subc.b	@r5,	r12	
 81a:	64 65       	addc.b	@r5,	r4	
 81c:	00 00       	.word	0x0000;	????	
 81e:	73 74       	.word	0x7473;	????	Illegal as 2-op instr
 820:	72 6e       	addc.b	@r14+,	r2	
 822:	63 70       	.word	0x7063;	????	Illegal as 2-op instr
 824:	79 2e       	jc	$-780    	;abs 0x518
 826:	63 00       	.word	0x0063;	????	
 828:	01 00       	.word	0x0001;	????	
 82a:	00 73       	sbc	r0		
 82c:	74 64       	addc.b	@r4+,	r4	
 82e:	64 65       	addc.b	@r5,	r4	
 830:	66 2e       	jc	$-818    	;abs 0x4fe
 832:	68 00       	.word	0x0068;	????	
 834:	02 00       	.word	0x0002;	????	
 836:	00 00       	.word	0x0000;	????	
 838:	00 03       	.word	0x0300;	????	
 83a:	02 3a       	jl	$-1018   	;abs 0x440
 83c:	cb 03       	.word	0x03cb;	????	
 83e:	2c 01       	.word	0x012c;	????	
 840:	2f 6d       	addc	@r13,	r15	
 842:	da 00       	.word	0x00da;	????	
 844:	02 04       	.word	0x0402;	????	
 846:	01 65       	addc	r5,	r1	
 848:	6b 4d       	mov.b	@r13,	r11	
 84a:	02 04       	.word	0x0402;	????	
 84c:	00 01       	.word	0x0100;	????	
 84e:	01 e2       	xor	r2,	r1	
 850:	00 00       	.word	0x0000;	????	
 852:	00 02       	.word	0x0200;	????	
 854:	00 90       	cmp	r0,	r0	
 856:	00 00       	.word	0x0000;	????	
 858:	00 01       	.word	0x0100;	????	
 85a:	01 fb       	and	r11,	r1	
 85c:	0e 0d       	.word	0x0d0e;	????	
 85e:	00 01       	.word	0x0100;	????	
 860:	01 01       	.word	0x0101;	????	
 862:	01 00       	.word	0x0001;	????	
 864:	00 00       	.word	0x0000;	????	
 866:	01 00       	.word	0x0001;	????	
 868:	00 01       	.word	0x0100;	????	
 86a:	2e 2f       	jc	$-418    	;abs 0x6c8
 86c:	73 74       	.word	0x7473;	????	Illegal as 2-op instr
 86e:	72 69       	addc.b	@r9+,	r2	
 870:	6e 67       	addc.b	@r7,	r14	
 872:	00 2e       	jc	$-1022   	;abs 0x474
 874:	2f 2e       	jc	$-928    	;abs 0x4d4
 876:	2e 2f       	jc	$-418    	;abs 0x6d4
 878:	69 6e       	addc.b	@r14,	r9	
 87a:	63 6c       	.word	0x6c63;	????	Illegal as 2-op instr
 87c:	75 64       	addc.b	@r4+,	r5	
 87e:	65 2f       	jc	$-308    	;abs 0x74a
 880:	73 79       	.word	0x7973;	????	Illegal as 2-op instr
 882:	73 00       	.word	0x0073;	????	
 884:	2f 55       	add	@r5,	r15	
 886:	73 65       	.word	0x6573;	????	Illegal as 2-op instr
 888:	72 73       	subc.b	#-1,	r2	;r3 As==11
 88a:	2f 72       	subc	#4,	r15	;r2 As==10
 88c:	77 65       	addc.b	@r5+,	r7	
 88e:	73 73       	.word	0x7373;	????	Illegal as 2-op instr
 890:	65 6c       	addc.b	@r12,	r5	
 892:	73 2f       	jc	$-280    	;abs 0x77a
 894:	6f 70       	subc.b	@r0,	r15	
 896:	74 2f       	jc	$-278    	;abs 0x780
 898:	6d 73       	subc.b	#2,	r13	;r3 As==10
 89a:	70 67       	addc.b	@r7+,	r0	
 89c:	63 63       	.word	0x6363;	????	Illegal as 2-op instr
 89e:	5f 65 6e 65 	addc.b	25966(r5),r15	;0x656e(r5)
 8a2:	72 67       	addc.b	@r7+,	r2	
 8a4:	69 61       	addc.b	@r1,	r9	
 8a6:	2f 6c       	addc	@r12,	r15	
 8a8:	69 62       	addc.b	#4,	r9	;r2 As==10
 8aa:	2f 67       	addc	@r7,	r15	
 8ac:	63 63       	.word	0x6363;	????	Illegal as 2-op instr
 8ae:	2f 6d       	addc	@r13,	r15	
 8b0:	73 70       	.word	0x7073;	????	Illegal as 2-op instr
 8b2:	34 33       	jn	$-406    	;abs 0x71c
 8b4:	30 2f       	jc	$-414    	;abs 0x716
 8b6:	34 2e       	jc	$-918    	;abs 0x520
 8b8:	36 2e       	jc	$-914    	;abs 0x526
 8ba:	33 2f       	jc	$-408    	;abs 0x722
 8bc:	69 6e       	addc.b	@r14,	r9	
 8be:	63 6c       	.word	0x6c63;	????	Illegal as 2-op instr
 8c0:	75 64       	addc.b	@r4+,	r5	
 8c2:	65 00       	.word	0x0065;	????	
 8c4:	00 6d       	addc	r13,	r0	
 8c6:	65 6d       	addc.b	@r13,	r5	
 8c8:	73 65       	.word	0x6573;	????	Illegal as 2-op instr
 8ca:	74 2e       	jc	$-790    	;abs 0x5b4
 8cc:	63 00       	.word	0x0063;	????	
 8ce:	01 00       	.word	0x0001;	????	
 8d0:	00 74       	subc	r4,	r0	
 8d2:	79 70 65 73 	subc.b	#29541,	r9	;#0x7365
 8d6:	2e 68       	addc	@r8,	r14	
 8d8:	00 02       	.word	0x0200;	????	
 8da:	00 00       	.word	0x0000;	????	
 8dc:	73 74       	.word	0x7473;	????	Illegal as 2-op instr
 8de:	64 64       	addc.b	@r4,	r4	
 8e0:	65 66       	addc.b	@r6,	r5	
 8e2:	2e 68       	addc	@r8,	r14	
 8e4:	00 03       	.word	0x0300;	????	
 8e6:	00 00       	.word	0x0000;	????	
 8e8:	00 00       	.word	0x0000;	????	
 8ea:	03 02       	.word	0x0203;	????	
 8ec:	64 cb       	bic.b	@r11,	r4	
 8ee:	03 3d       	jmp	$+520    	;abs 0xaf6
 8f0:	01 03       	.word	0x0301;	????	
 8f2:	15 82 00 02 	sub	&0x0200,r5	
 8f6:	04 01       	.word	0x0104;	????	
 8f8:	06 66       	rlc	r6		
 8fa:	06 4e       	mov	r14,	r6	
 8fc:	67 00       	.word	0x0067;	????	
 8fe:	02 04       	.word	0x0402;	????	
 900:	01 2b       	jnc	$-508    	;abs 0x704
 902:	03 09       	.word	0x0903;	????	
 904:	66 84       	sub.b	@r4,	r6	
 906:	03 0a       	.word	0x0a03;	????	
 908:	66 4d       	mov.b	@r13,	r6	
 90a:	31 03       	.word	0x0331;	????	
 90c:	7a 9e       	cmp.b	@r14+,	r10	
 90e:	03 0c       	.word	0x0c03;	????	
 910:	2e 00       	.word	0x002e;	????	
 912:	02 04       	.word	0x0402;	????	
 914:	01 a1       	dadd	r1,	r1	
 916:	00 02       	.word	0x0200;	????	
 918:	04 01       	.word	0x0104;	????	
 91a:	4b 00       	.word	0x004b;	????	
 91c:	02 04       	.word	0x0402;	????	
 91e:	01 30       	jn	$+4      	;abs 0x922
 920:	03 bd       	.word	0xbd03;	????	Illegal as 2-op instr
 922:	7f 4a       	mov.b	@r10+,	r15	
 924:	03 c3       	.word	0xc303;	????	Illegal as 2-op instr
 926:	00 2e       	jc	$-1022   	;abs 0x528
 928:	31 2f       	jc	$-412    	;abs 0x78c
 92a:	00 02       	.word	0x0200;	????	
 92c:	04 01       	.word	0x0104;	????	
 92e:	31 4e       	mov	@r14+,	r1	
 930:	02 0a       	.word	0x0a02;	????	
 932:	00 01       	.word	0x0100;	????	
 934:	01 db       	bis	r11,	r1	
 936:	00 00       	.word	0x0000;	????	
 938:	00 02       	.word	0x0200;	????	
 93a:	00 90       	cmp	r0,	r0	
 93c:	00 00       	.word	0x0000;	????	
 93e:	00 01       	.word	0x0100;	????	
 940:	01 fb       	and	r11,	r1	
 942:	0e 0d       	.word	0x0d0e;	????	
 944:	00 01       	.word	0x0100;	????	
 946:	01 01       	.word	0x0101;	????	
 948:	01 00       	.word	0x0001;	????	
 94a:	00 00       	.word	0x0000;	????	
 94c:	01 00       	.word	0x0001;	????	
 94e:	00 01       	.word	0x0100;	????	
 950:	2e 2f       	jc	$-418    	;abs 0x7ae
 952:	73 74       	.word	0x7473;	????	Illegal as 2-op instr
 954:	64 6c       	addc.b	@r12,	r4	
 956:	69 62       	addc.b	#4,	r9	;r2 As==10
 958:	00 2f       	jc	$-510    	;abs 0x75a
 95a:	55 73       	subc.b	#1,	r5	;r3 As==01
 95c:	65 72       	subc.b	#4,	r5	;r2 As==10
 95e:	73 2f       	jc	$-280    	;abs 0x846
 960:	72 77       	subc.b	@r7+,	r2	
 962:	65 73       	subc.b	#2,	r5	;r3 As==10
 964:	73 65       	.word	0x6573;	????	Illegal as 2-op instr
 966:	6c 73       	subc.b	#2,	r12	;r3 As==10
 968:	2f 6f       	addc	@r15,	r15	
 96a:	70 74       	subc.b	@r4+,	r0	
 96c:	2f 6d       	addc	@r13,	r15	
 96e:	73 70       	.word	0x7073;	????	Illegal as 2-op instr
 970:	67 63       	addc.b	#2,	r7	;r3 As==10
 972:	63 5f       	.word	0x5f63;	????	Illegal as 2-op instr
 974:	65 6e       	addc.b	@r14,	r5	
 976:	65 72       	subc.b	#4,	r5	;r2 As==10
 978:	67 69       	addc.b	@r9,	r7	
 97a:	61 2f       	jc	$-316    	;abs 0x83e
 97c:	6c 69       	addc.b	@r9,	r12	
 97e:	62 2f       	jc	$-314    	;abs 0x844
 980:	67 63       	addc.b	#2,	r7	;r3 As==10
 982:	63 2f       	jc	$-312    	;abs 0x84a
 984:	6d 73       	subc.b	#2,	r13	;r3 As==10
 986:	70 34       	jge	$+226    	;abs 0xa68
 988:	33 30       	jn	$+104    	;abs 0x9f0
 98a:	2f 34       	jge	$+96     	;abs 0x9ea
 98c:	2e 36       	jge	$-930    	;abs 0x5ea
 98e:	2e 33       	jn	$-418    	;abs 0x7ec
 990:	2f 69       	addc	@r9,	r15	
 992:	6e 63       	addc.b	#2,	r14	;r3 As==10
 994:	6c 75       	subc.b	@r5,	r12	
 996:	64 65       	addc.b	@r5,	r4	
 998:	00 2e       	jc	$-1022   	;abs 0x59a
 99a:	2f 2e       	jc	$-928    	;abs 0x5fa
 99c:	2e 2f       	jc	$-418    	;abs 0x7fa
 99e:	69 6e       	addc.b	@r14,	r9	
 9a0:	63 6c       	.word	0x6c63;	????	Illegal as 2-op instr
 9a2:	75 64       	addc.b	@r4+,	r5	
 9a4:	65 2f       	jc	$-308    	;abs 0x870
 9a6:	73 79       	.word	0x7973;	????	Illegal as 2-op instr
 9a8:	73 00       	.word	0x0073;	????	
 9aa:	00 6d       	addc	r13,	r0	
 9ac:	61 6c       	addc.b	@r12,	r1	
 9ae:	6c 6f       	addc.b	@r15,	r12	
 9b0:	63 2e       	jc	$-824    	;abs 0x678
 9b2:	63 00       	.word	0x0063;	????	
 9b4:	01 00       	.word	0x0001;	????	
 9b6:	00 73       	sbc	r0		
 9b8:	74 64       	addc.b	@r4+,	r4	
 9ba:	64 65       	addc.b	@r5,	r4	
 9bc:	66 2e       	jc	$-818    	;abs 0x68a
 9be:	68 00       	.word	0x0068;	????	
 9c0:	02 00       	.word	0x0002;	????	
 9c2:	00 63       	adc	r0		
 9c4:	72 74       	subc.b	@r4+,	r2	
 9c6:	6c 64       	addc.b	@r4,	r12	
 9c8:	2e 68       	addc	@r8,	r14	
 9ca:	00 03       	.word	0x0300;	????	
 9cc:	00 00       	.word	0x0000;	????	
 9ce:	00 00       	.word	0x0000;	????	
 9d0:	03 02       	.word	0x0203;	????	
 9d2:	ce cb 03 1b 	bic.b	r11,	6915(r14);0x1b03(r14)
 9d6:	01 f6       	and	r6,	r1	
 9d8:	85 68 4b 68 	addc	r8,	26699(r5);0x684b(r5)
 9dc:	2f 4b       	mov	@r11,	r15	
 9de:	03 23       	jnz	$-504    	;abs 0x7e6
 9e0:	9e 03       	.word	0x039e;	????	
 9e2:	60 66       	addc.b	@r6,	r0	
 9e4:	03 6e       	.word	0x6e03;	????	Illegal as 2-op instr
 9e6:	82 03       	.word	0x0382;	????	
 9e8:	18 9e 4c 4c 	cmp	19532(r14),r8	;0x4c4c(r14)
 9ec:	03 77       	.word	0x7703;	????	Illegal as 2-op instr
 9ee:	02 2c       	jc	$+6      	;abs 0x9f4
 9f0:	01 03       	.word	0x0301;	????	
 9f2:	0b 4a       	mov	r10,	r11	
 9f4:	bc 68 00 02 	addc	@r8+,	512(r12);0x0200(r12)
 9f8:	04 01       	.word	0x0104;	????	
 9fa:	06 66       	rlc	r6		
 9fc:	9e 06       	.word	0x069e;	????	
 9fe:	48 6b       	addc.b	r11,	r8	
 a00:	4c bc       	bit.b	r12,	r12	
 a02:	4b 83       	sub.b	#0,	r11	;r3 As==00
 a04:	4b d7       	bis.b	r7,	r11	
 a06:	2f 67       	addc	@r7,	r15	
 a08:	6b 4b       	mov.b	@r11,	r11	
 a0a:	2f 08       	.word	0x082f;	????	
 a0c:	23 14       	.word	0x1423;	????	
 a0e:	67 02       	.word	0x0267;	????	
 a10:	02 00       	.word	0x0002;	????	
 a12:	01 01       	.word	0x0101;	????	
 a14:	6a 00       	.word	0x006a;	????	
 a16:	00 00       	.word	0x0000;	????	
 a18:	02 00       	.word	0x0002;	????	
 a1a:	26 00       	.word	0x0026;	????	
 a1c:	00 00       	.word	0x0000;	????	
 a1e:	01 01       	.word	0x0101;	????	
 a20:	fb 0e       	.word	0x0efb;	????	
 a22:	0d 00       	.word	0x000d;	????	
 a24:	01 01       	.word	0x0101;	????	
 a26:	01 01       	.word	0x0101;	????	
 a28:	00 00       	.word	0x0000;	????	
 a2a:	00 01       	.word	0x0100;	????	
 a2c:	00 00       	.word	0x0000;	????	
 a2e:	01 2e       	jc	$-1020   	;abs 0x632
 a30:	2f 73       	subc	#2,	r15	;r3 As==10
 a32:	74 64       	addc.b	@r4+,	r4	
 a34:	6c 69       	addc.b	@r9,	r12	
 a36:	62 00       	.word	0x0062;	????	
 a38:	00 61       	addc	r1,	r0	
 a3a:	74 6f       	addc.b	@r15+,	r4	
 a3c:	69 2e       	jc	$-812    	;abs 0x710
 a3e:	63 00       	.word	0x0063;	????	
 a40:	01 00       	.word	0x0001;	????	
 a42:	00 00       	.word	0x0000;	????	
 a44:	00 03       	.word	0x0300;	????	
 a46:	02 de       	bis	r14,	r2	
 a48:	cc 18       	.word	0x18cc;	????	
 a4a:	4e 00       	.word	0x004e;	????	
 a4c:	02 04       	.word	0x0402;	????	
 a4e:	01 33       	jn	$-508    	;abs 0x852
 a50:	00 02       	.word	0x0200;	????	
 a52:	04 01       	.word	0x0104;	????	
 a54:	29 83       	decd	r9		
 a56:	67 67       	addc.b	@r7,	r7	
 a58:	67 67       	addc.b	@r7,	r7	
 a5a:	68 69       	addc.b	@r9,	r8	
 a5c:	2d 4d       	mov	@r13,	r13	
 a5e:	00 02       	.word	0x0200;	????	
 a60:	04 01       	.word	0x0104;	????	
 a62:	06 66       	rlc	r6		
 a64:	06 03       	.word	0x0306;	????	
 a66:	71 2e       	jc	$-796    	;abs 0x74a
 a68:	03 11       	rra	#0		;r3 As==00
 a6a:	2e f6       	and	@r6,	r14	
 a6c:	bc d7 9f 30 	bis	@r7+,	12447(r12);0x309f(r12)
 a70:	00 02       	.word	0x0200;	????	
 a72:	04 01       	.word	0x0104;	????	
 a74:	06 4a       	mov	r10,	r6	
 a76:	06 03       	.word	0x0306;	????	
 a78:	76 66       	addc.b	@r6+,	r6	
 a7a:	03 0d       	.word	0x0d03;	????	
 a7c:	2e 02       	.word	0x022e;	????	
 a7e:	04 00       	.word	0x0004;	????	
 a80:	01 01       	.word	0x0101;	????	
 a82:	52 00       	.word	0x0052;	????	
 a84:	00 00       	.word	0x0000;	????	
 a86:	02 00       	.word	0x0002;	????	
 a88:	3c 00       	.word	0x003c;	????	
 a8a:	00 00       	.word	0x0000;	????	
 a8c:	01 01       	.word	0x0101;	????	
 a8e:	fb 0e       	.word	0x0efb;	????	
 a90:	0d 00       	.word	0x000d;	????	
 a92:	01 01       	.word	0x0101;	????	
 a94:	01 01       	.word	0x0101;	????	
 a96:	00 00       	.word	0x0000;	????	
 a98:	00 01       	.word	0x0100;	????	
 a9a:	00 00       	.word	0x0000;	????	
 a9c:	01 2e       	jc	$-1020   	;abs 0x6a0
 a9e:	2e 2f       	jc	$-418    	;abs 0x8fc
 aa0:	2e 2e       	jc	$-930    	;abs 0x6fe
 aa2:	2f 2e       	jc	$-928    	;abs 0x702
 aa4:	2e 2f       	jc	$-418    	;abs 0x902
 aa6:	67 63       	addc.b	#2,	r7	;r3 As==10
 aa8:	63 2f       	jc	$-312    	;abs 0x970
 aaa:	67 63       	addc.b	#2,	r7	;r3 As==10
 aac:	63 2f       	jc	$-312    	;abs 0x974
 aae:	63 6f       	.word	0x6f63;	????	Illegal as 2-op instr
 ab0:	6e 66       	addc.b	@r6,	r14	
 ab2:	69 67       	addc.b	@r7,	r9	
 ab4:	2f 6d       	addc	@r13,	r15	
 ab6:	73 70       	.word	0x7073;	????	Illegal as 2-op instr
 ab8:	34 33       	jn	$-406    	;abs 0x922
 aba:	30 00       	.word	0x0030;	????	
 abc:	00 63       	adc	r0		
 abe:	72 74       	subc.b	@r4+,	r2	
 ac0:	30 2e       	jc	$-926    	;abs 0x722
 ac2:	53 00       	.word	0x0053;	????	
 ac4:	01 00       	.word	0x0001;	????	
 ac6:	00 00       	.word	0x0000;	????	
 ac8:	00 03       	.word	0x0300;	????	
 aca:	02 00       	.word	0x0002;	????	
 acc:	c0 03       	.word	0x03c0;	????	
 ace:	e8 00       	.word	0x00e8;	????	
 ad0:	01 4b       	mov	r11,	r1	
 ad2:	4b 02       	.word	0x024b;	????	
 ad4:	04 00       	.word	0x0004;	????	
 ad6:	01 01       	.word	0x0101;	????	
 ad8:	50 00       	.word	0x0050;	????	
 ada:	00 00       	.word	0x0000;	????	
 adc:	02 00       	.word	0x0002;	????	
 ade:	3c 00       	.word	0x003c;	????	
 ae0:	00 00       	.word	0x0000;	????	
 ae2:	01 01       	.word	0x0101;	????	
 ae4:	fb 0e       	.word	0x0efb;	????	
 ae6:	0d 00       	.word	0x000d;	????	
 ae8:	01 01       	.word	0x0101;	????	
 aea:	01 01       	.word	0x0101;	????	
 aec:	00 00       	.word	0x0000;	????	
 aee:	00 01       	.word	0x0100;	????	
 af0:	00 00       	.word	0x0000;	????	
 af2:	01 2e       	jc	$-1020   	;abs 0x6f6
 af4:	2e 2f       	jc	$-418    	;abs 0x952
 af6:	2e 2e       	jc	$-930    	;abs 0x754
 af8:	2f 2e       	jc	$-928    	;abs 0x758
 afa:	2e 2f       	jc	$-418    	;abs 0x958
 afc:	67 63       	addc.b	#2,	r7	;r3 As==10
 afe:	63 2f       	jc	$-312    	;abs 0x9c6
 b00:	67 63       	addc.b	#2,	r7	;r3 As==10
 b02:	63 2f       	jc	$-312    	;abs 0x9ca
 b04:	63 6f       	.word	0x6f63;	????	Illegal as 2-op instr
 b06:	6e 66       	addc.b	@r6,	r14	
 b08:	69 67       	addc.b	@r7,	r9	
 b0a:	2f 6d       	addc	@r13,	r15	
 b0c:	73 70       	.word	0x7073;	????	Illegal as 2-op instr
 b0e:	34 33       	jn	$-406    	;abs 0x978
 b10:	30 00       	.word	0x0030;	????	
 b12:	00 63       	adc	r0		
 b14:	72 74       	subc.b	@r4+,	r2	
 b16:	30 2e       	jc	$-926    	;abs 0x778
 b18:	53 00       	.word	0x0053;	????	
 b1a:	01 00       	.word	0x0001;	????	
 b1c:	00 00       	.word	0x0000;	????	
 b1e:	00 03       	.word	0x0300;	????	
 b20:	02 0c       	.word	0x0c02;	????	
 b22:	c0 03       	.word	0x03c0;	????	
 b24:	99 01       	.word	0x0199;	????	
 b26:	01 02       	.word	0x0201;	????	
 b28:	04 00       	.word	0x0004;	????	
 b2a:	01 01       	.word	0x0101;	????	
 b2c:	56 00       	.word	0x0056;	????	
 b2e:	00 00       	.word	0x0000;	????	
 b30:	02 00       	.word	0x0002;	????	
 b32:	3c 00       	.word	0x003c;	????	
 b34:	00 00       	.word	0x0000;	????	
 b36:	01 01       	.word	0x0101;	????	
 b38:	fb 0e       	.word	0x0efb;	????	
 b3a:	0d 00       	.word	0x000d;	????	
 b3c:	01 01       	.word	0x0101;	????	
 b3e:	01 01       	.word	0x0101;	????	
 b40:	00 00       	.word	0x0000;	????	
 b42:	00 01       	.word	0x0100;	????	
 b44:	00 00       	.word	0x0000;	????	
 b46:	01 2e       	jc	$-1020   	;abs 0x74a
 b48:	2e 2f       	jc	$-418    	;abs 0x9a6
 b4a:	2e 2e       	jc	$-930    	;abs 0x7a8
 b4c:	2f 2e       	jc	$-928    	;abs 0x7ac
 b4e:	2e 2f       	jc	$-418    	;abs 0x9ac
 b50:	67 63       	addc.b	#2,	r7	;r3 As==10
 b52:	63 2f       	jc	$-312    	;abs 0xa1a
 b54:	67 63       	addc.b	#2,	r7	;r3 As==10
 b56:	63 2f       	jc	$-312    	;abs 0xa1e
 b58:	63 6f       	.word	0x6f63;	????	Illegal as 2-op instr
 b5a:	6e 66       	addc.b	@r6,	r14	
 b5c:	69 67       	addc.b	@r7,	r9	
 b5e:	2f 6d       	addc	@r13,	r15	
 b60:	73 70       	.word	0x7073;	????	Illegal as 2-op instr
 b62:	34 33       	jn	$-406    	;abs 0x9cc
 b64:	30 00       	.word	0x0030;	????	
 b66:	00 63       	adc	r0		
 b68:	72 74       	subc.b	@r4+,	r2	
 b6a:	30 2e       	jc	$-926    	;abs 0x7cc
 b6c:	53 00       	.word	0x0053;	????	
 b6e:	01 00       	.word	0x0001;	????	
 b70:	00 00       	.word	0x0000;	????	
 b72:	00 03       	.word	0x0300;	????	
 b74:	02 10       	rrc	r2		
 b76:	c0 03       	.word	0x03c0;	????	
 b78:	bc 01       	.word	0x01bc;	????	
 b7a:	01 4b       	mov	r11,	r1	
 b7c:	2f 30       	jn	$+96     	;abs 0xbdc
 b7e:	67 2f       	jc	$-304    	;abs 0xa4e
 b80:	67 02       	.word	0x0267;	????	
 b82:	02 00       	.word	0x0002;	????	
 b84:	01 01       	.word	0x0101;	????	
 b86:	56 00       	.word	0x0056;	????	
 b88:	00 00       	.word	0x0000;	????	
 b8a:	02 00       	.word	0x0002;	????	
 b8c:	3c 00       	.word	0x003c;	????	
 b8e:	00 00       	.word	0x0000;	????	
 b90:	01 01       	.word	0x0101;	????	
 b92:	fb 0e       	.word	0x0efb;	????	
 b94:	0d 00       	.word	0x000d;	????	
 b96:	01 01       	.word	0x0101;	????	
 b98:	01 01       	.word	0x0101;	????	
 b9a:	00 00       	.word	0x0000;	????	
 b9c:	00 01       	.word	0x0100;	????	
 b9e:	00 00       	.word	0x0000;	????	
 ba0:	01 2e       	jc	$-1020   	;abs 0x7a4
 ba2:	2e 2f       	jc	$-418    	;abs 0xa00
 ba4:	2e 2e       	jc	$-930    	;abs 0x802
 ba6:	2f 2e       	jc	$-928    	;abs 0x806
 ba8:	2e 2f       	jc	$-418    	;abs 0xa06
 baa:	67 63       	addc.b	#2,	r7	;r3 As==10
 bac:	63 2f       	jc	$-312    	;abs 0xa74
 bae:	67 63       	addc.b	#2,	r7	;r3 As==10
 bb0:	63 2f       	jc	$-312    	;abs 0xa78
 bb2:	63 6f       	.word	0x6f63;	????	Illegal as 2-op instr
 bb4:	6e 66       	addc.b	@r6,	r14	
 bb6:	69 67       	addc.b	@r7,	r9	
 bb8:	2f 6d       	addc	@r13,	r15	
 bba:	73 70       	.word	0x7073;	????	Illegal as 2-op instr
 bbc:	34 33       	jn	$-406    	;abs 0xa26
 bbe:	30 00       	.word	0x0030;	????	
 bc0:	00 63       	adc	r0		
 bc2:	72 74       	subc.b	@r4+,	r2	
 bc4:	30 2e       	jc	$-926    	;abs 0x826
 bc6:	53 00       	.word	0x0053;	????	
 bc8:	01 00       	.word	0x0001;	????	
 bca:	00 00       	.word	0x0000;	????	
 bcc:	00 03       	.word	0x0300;	????	
 bce:	02 28       	jnc	$+6      	;abs 0xbd4
 bd0:	c0 03       	.word	0x03c0;	????	
 bd2:	d6 01       	.word	0x01d6;	????	
 bd4:	01 4b       	mov	r11,	r1	
 bd6:	2f 30       	jn	$+96     	;abs 0xc36
 bd8:	67 2f       	jc	$-304    	;abs 0xaa8
 bda:	4b 02       	.word	0x024b;	????	
 bdc:	02 00       	.word	0x0002;	????	
 bde:	01 01       	.word	0x0101;	????	
 be0:	51 00       	.word	0x0051;	????	
 be2:	00 00       	.word	0x0000;	????	
 be4:	02 00       	.word	0x0002;	????	
 be6:	3c 00       	.word	0x003c;	????	
 be8:	00 00       	.word	0x0000;	????	
 bea:	01 01       	.word	0x0101;	????	
 bec:	fb 0e       	.word	0x0efb;	????	
 bee:	0d 00       	.word	0x000d;	????	
 bf0:	01 01       	.word	0x0101;	????	
 bf2:	01 01       	.word	0x0101;	????	
 bf4:	00 00       	.word	0x0000;	????	
 bf6:	00 01       	.word	0x0100;	????	
 bf8:	00 00       	.word	0x0000;	????	
 bfa:	01 2e       	jc	$-1020   	;abs 0x7fe
 bfc:	2e 2f       	jc	$-418    	;abs 0xa5a
 bfe:	2e 2e       	jc	$-930    	;abs 0x85c
 c00:	2f 2e       	jc	$-928    	;abs 0x860
 c02:	2e 2f       	jc	$-418    	;abs 0xa60
 c04:	67 63       	addc.b	#2,	r7	;r3 As==10
 c06:	63 2f       	jc	$-312    	;abs 0xace
 c08:	67 63       	addc.b	#2,	r7	;r3 As==10
 c0a:	63 2f       	jc	$-312    	;abs 0xad2
 c0c:	63 6f       	.word	0x6f63;	????	Illegal as 2-op instr
 c0e:	6e 66       	addc.b	@r6,	r14	
 c10:	69 67       	addc.b	@r7,	r9	
 c12:	2f 6d       	addc	@r13,	r15	
 c14:	73 70       	.word	0x7073;	????	Illegal as 2-op instr
 c16:	34 33       	jn	$-406    	;abs 0xa80
 c18:	30 00       	.word	0x0030;	????	
 c1a:	00 63       	adc	r0		
 c1c:	72 74       	subc.b	@r4+,	r2	
 c1e:	30 2e       	jc	$-926    	;abs 0x880
 c20:	53 00       	.word	0x0053;	????	
 c22:	01 00       	.word	0x0001;	????	
 c24:	00 00       	.word	0x0000;	????	
 c26:	00 03       	.word	0x0300;	????	
 c28:	02 1e       	.word	0x1e02;	????	
 c2a:	c1 03       	.word	0x03c1;	????	
 c2c:	fe 01       	.word	0x01fe;	????	
 c2e:	01 4b       	mov	r11,	r1	
 c30:	02 02       	.word	0x0202;	????	
 c32:	00 01       	.word	0x0100;	????	
 c34:	01 50       	add	r0,	r1	
 c36:	00 00       	.word	0x0000;	????	
 c38:	00 02       	.word	0x0200;	????	
 c3a:	00 3c       	jmp	$+2      	;abs 0xc3c
 c3c:	00 00       	.word	0x0000;	????	
 c3e:	00 01       	.word	0x0100;	????	
 c40:	01 fb       	and	r11,	r1	
 c42:	0e 0d       	.word	0x0d0e;	????	
 c44:	00 01       	.word	0x0100;	????	
 c46:	01 01       	.word	0x0101;	????	
 c48:	01 00       	.word	0x0001;	????	
 c4a:	00 00       	.word	0x0000;	????	
 c4c:	01 00       	.word	0x0001;	????	
 c4e:	00 01       	.word	0x0100;	????	
 c50:	2e 2e       	jc	$-930    	;abs 0x8ae
 c52:	2f 2e       	jc	$-928    	;abs 0x8b2
 c54:	2e 2f       	jc	$-418    	;abs 0xab2
 c56:	2e 2e       	jc	$-930    	;abs 0x8b4
 c58:	2f 67       	addc	@r7,	r15	
 c5a:	63 63       	.word	0x6363;	????	Illegal as 2-op instr
 c5c:	2f 67       	addc	@r7,	r15	
 c5e:	63 63       	.word	0x6363;	????	Illegal as 2-op instr
 c60:	2f 63       	addc	#2,	r15	;r3 As==10
 c62:	6f 6e       	addc.b	@r14,	r15	
 c64:	66 69       	addc.b	@r9,	r6	
 c66:	67 2f       	jc	$-304    	;abs 0xb36
 c68:	6d 73       	subc.b	#2,	r13	;r3 As==10
 c6a:	70 34       	jge	$+226    	;abs 0xd4c
 c6c:	33 30       	jn	$+104    	;abs 0xcd4
 c6e:	00 00       	.word	0x0000;	????	
 c70:	63 72       	.word	0x7263;	????	Illegal as 2-op instr
 c72:	74 30       	jn	$+234    	;abs 0xd5c
 c74:	2e 53       	incd	r14		
 c76:	00 01       	.word	0x0100;	????	
 c78:	00 00       	.word	0x0000;	????	
 c7a:	00 00       	.word	0x0000;	????	
 c7c:	03 02       	.word	0x0203;	????	
 c7e:	68 cd       	bic.b	@r13,	r8	
 c80:	03 cd       	.word	0xcd03;	????	Illegal as 2-op instr
 c82:	02 01       	.word	0x0102;	????	
 c84:	02 02       	.word	0x0202;	????	
 c86:	00 01       	.word	0x0100;	????	
 c88:	01 53       	Address 0x0000000000000c88 is out of bounds.
Address 0x0000000000000c8a is out of bounds.
and.b	@r15+,	-1(r15)	;0xffff(r15)

Disassembly of section .debug_frame:

00000000 <.debug_frame>:
   0:	0e 00       	.word	0x000e;	????	
   2:	00 00       	.word	0x0000;	????	
   4:	ff ff ff ff 	and.b	@r15+,	-1(r15)	;0xffff(r15)
   8:	01 00       	.word	0x0001;	????	
   a:	01 7e       	subc	r14,	r1	
   c:	00 0c       	.word	0x0c00;	????	
   e:	01 02       	.word	0x0201;	????	
  10:	80 01       	.word	0x0180;	????	
  12:	2e 00       	.word	0x002e;	????	
  14:	00 00       	.word	0x0000;	????	
  16:	00 00       	.word	0x0000;	????	
  18:	00 00       	.word	0x0000;	????	
  1a:	28 c1       	bic	@r1,	r8	
  1c:	4e 00       	.word	0x004e;	????	
  1e:	42 0e       	.word	0x0e42;	????	
  20:	04 8b       	sub	r11,	r4	
  22:	02 42       	mov	r2,	r2	
  24:	0e 06       	.word	0x060e;	????	
  26:	8a 03       	.word	0x038a;	????	
  28:	58 0e       	.word	0x0e58;	????	
  2a:	08 44       	mov	r4,	r8	
  2c:	0e 0a       	.word	0x0a0e;	????	
  2e:	42 0e       	.word	0x0e42;	????	
  30:	0c 44       	mov	r4,	r12	
  32:	0e 0e       	.word	0x0e0e;	????	
  34:	40 2e       	jc	$-894    	;abs 0xfcb6
  36:	08 46       	mov	r6,	r8	
  38:	0e 06       	.word	0x060e;	????	
  3a:	54 0e       	.word	0x0e54;	????	
  3c:	08 40       	mov	r0,	r8	
  3e:	2e 02       	.word	0x022e;	????	
  40:	46 0e       	.word	0x0e46;	????	
  42:	06 00       	.word	0x0006;	????	
  44:	1e 00       	.word	0x001e;	????	
  46:	00 00       	.word	0x0000;	????	
  48:	00 00       	.word	0x0000;	????	
  4a:	00 00       	.word	0x0000;	????	
  4c:	76 c1       	bic.b	@r1+,	r6	
  4e:	40 00       	.word	0x0040;	????	
  50:	42 0e       	.word	0x0e42;	????	
  52:	04 8b       	sub	r11,	r4	
  54:	02 42       	mov	r2,	r2	
  56:	0e 06       	.word	0x060e;	????	
  58:	8a 03       	.word	0x038a;	????	
  5a:	62 0e       	.word	0x0e62;	????	
  5c:	08 44       	mov	r4,	r8	
  5e:	0e 0a       	.word	0x0a0e;	????	
  60:	40 2e       	jc	$-894    	;abs 0xfce2
  62:	04 46       	mov	r6,	r4	
  64:	0e 06       	.word	0x060e;	????	
  66:	22 00       	.word	0x0022;	????	
  68:	00 00       	.word	0x0000;	????	
  6a:	00 00       	.word	0x0000;	????	
  6c:	00 00       	.word	0x0000;	????	
  6e:	b6 c1 38 00 	bic	@r1+,	56(r6)	;0x0038(r6)
  72:	42 0e       	.word	0x0e42;	????	
  74:	04 8b       	sub	r11,	r4	
  76:	02 42       	mov	r2,	r2	
  78:	0e 06       	.word	0x060e;	????	
  7a:	8a 03       	.word	0x038a;	????	
  7c:	4e 0e       	.word	0x0e4e;	????	
  7e:	08 44       	mov	r4,	r8	
  80:	0e 0a       	.word	0x0a0e;	????	
  82:	44 0e       	.word	0x0e44;	????	
  84:	0c 40       	mov	r0,	r12	
  86:	2e 06       	.word	0x062e;	????	
  88:	48 0e       	.word	0x0e48;	????	
  8a:	06 00       	.word	0x0006;	????	
  8c:	14 00       	.word	0x0014;	????	
  8e:	00 00       	.word	0x0000;	????	
  90:	00 00       	.word	0x0000;	????	
  92:	00 00       	.word	0x0000;	????	
  94:	ee c1 9a 00 	bic.b	@r1,	154(r14);0x009a(r14)
  98:	7c 0e       	.word	0x0e7c;	????	
  9a:	04 40       	mov	r0,	r4	
  9c:	2e 02       	.word	0x022e;	????	
  9e:	46 0e       	.word	0x0e46;	????	
  a0:	02 4a       	mov	r10,	r2	
  a2:	2e 00       	.word	0x002e;	????	
  a4:	66 00       	.word	0x0066;	????	
  a6:	00 00       	.word	0x0000;	????	
  a8:	00 00       	.word	0x0000;	????	
  aa:	00 00       	.word	0x0000;	????	
  ac:	88 c2 28 01 	bic	r2,	296(r8)	;0x0128(r8)
  b0:	42 0e       	.word	0x0e42;	????	
  b2:	04 8b       	sub	r11,	r4	
  b4:	02 42       	mov	r2,	r2	
  b6:	0e 06       	.word	0x060e;	????	
  b8:	8a 03       	.word	0x038a;	????	
  ba:	72 0e       	.word	0x0e72;	????	
  bc:	08 46       	mov	r6,	r8	
  be:	2e 02       	.word	0x022e;	????	
  c0:	46 0e       	.word	0x0e46;	????	
  c2:	0a 42       	mov	r2,	r10	
  c4:	0e 0c       	.word	0x0c0e;	????	
  c6:	44 0e       	.word	0x0e44;	????	
  c8:	0e 40       	mov	r0,	r14	
  ca:	2e 08       	.word	0x082e;	????	
  cc:	46 0e       	.word	0x0e46;	????	
  ce:	06 4c       	mov	r12,	r6	
  d0:	2e 00       	.word	0x002e;	????	
  d2:	54 0e       	.word	0x0e54;	????	
  d4:	08 40       	mov	r0,	r8	
  d6:	2e 02       	.word	0x022e;	????	
  d8:	46 0e       	.word	0x0e46;	????	
  da:	06 54       	add	r4,	r6	
  dc:	2e 00       	.word	0x002e;	????	
  de:	50 0e       	.word	0x0e50;	????	
  e0:	08 46       	mov	r6,	r8	
  e2:	2e 02       	.word	0x022e;	????	
  e4:	46 0e       	.word	0x0e46;	????	
  e6:	0a 42       	mov	r2,	r10	
  e8:	0e 0c       	.word	0x0c0e;	????	
  ea:	44 0e       	.word	0x0e44;	????	
  ec:	0e 40       	mov	r0,	r14	
  ee:	2e 08       	.word	0x082e;	????	
  f0:	46 0e       	.word	0x0e46;	????	
  f2:	06 4c       	mov	r12,	r6	
  f4:	2e 00       	.word	0x002e;	????	
  f6:	72 0e       	.word	0x0e72;	????	
  f8:	08 46       	mov	r6,	r8	
  fa:	2e 02       	.word	0x022e;	????	
  fc:	46 0e       	.word	0x0e46;	????	
  fe:	0a 42       	mov	r2,	r10	
 100:	0e 0c       	.word	0x0c0e;	????	
 102:	44 0e       	.word	0x0e44;	????	
 104:	0e 40       	mov	r0,	r14	
 106:	2e 08       	.word	0x082e;	????	
 108:	46 0e       	.word	0x0e46;	????	
 10a:	06 4c       	mov	r12,	r6	
 10c:	2e 00       	.word	0x002e;	????	
 10e:	24 00       	.word	0x0024;	????	
 110:	00 00       	.word	0x0000;	????	
 112:	00 00       	.word	0x0000;	????	
 114:	00 00       	.word	0x0000;	????	
 116:	b0 c3 18 01 	bic	#-1,	280(r0)	;r3 As==11, PC rel. 0x0230
 11a:	42 0e       	.word	0x0e42;	????	
 11c:	04 8b       	sub	r11,	r4	
 11e:	02 42       	mov	r2,	r2	
 120:	0e 06       	.word	0x060e;	????	
 122:	8a 03       	.word	0x038a;	????	
 124:	42 0e       	.word	0x0e42;	????	
 126:	08 89       	sub	r9,	r8	
 128:	04 50       	add	r0,	r4	
 12a:	0e 0a       	.word	0x0a0e;	????	
 12c:	40 2e       	jc	$-894    	;abs 0xfdae
 12e:	02 46       	mov	r6,	r2	
 130:	0e 08       	.word	0x080e;	????	
 132:	4e 2e       	jc	$-866    	;abs 0xfdd0
 134:	00 00       	.word	0x0000;	????	
 136:	08 00       	.word	0x0008;	????	
 138:	00 00       	.word	0x0000;	????	
 13a:	00 00       	.word	0x0000;	????	
 13c:	00 00       	.word	0x0000;	????	
 13e:	c8 c4 0c 00 	bic.b	r4,	12(r8)	;0x000c(r8)
 142:	08 00       	.word	0x0008;	????	
 144:	00 00       	.word	0x0000;	????	
 146:	00 00       	.word	0x0000;	????	
 148:	00 00       	.word	0x0000;	????	
 14a:	d4 c4 16 00 	bic.b	22(r4),	8(r4)	;0x0016(r4), 0x0008(r4)
 14e:	08 00 
 150:	00 00       	.word	0x0000;	????	
 152:	00 00       	.word	0x0000;	????	
 154:	00 00       	.word	0x0000;	????	
 156:	3e c0 e0 00 	bic	#224,	r14	;#0x00e0
 15a:	18 00       	.word	0x0018;	????	
 15c:	00 00       	.word	0x0000;	????	
 15e:	00 00       	.word	0x0000;	????	
 160:	00 00       	.word	0x0000;	????	
 162:	ea c4 42 00 	bic.b	@r4,	66(r10)	;0x0042(r10)
 166:	42 0e       	.word	0x0e42;	????	
 168:	04 8f       	sub	r15,	r4	
 16a:	02 42       	mov	r2,	r2	
 16c:	0e 06       	.word	0x060e;	????	
 16e:	8e 03       	.word	0x038e;	????	
 170:	42 0e       	.word	0x0e42;	????	
 172:	08 8d       	sub	r13,	r8	
 174:	04 00       	.word	0x0004;	????	
 176:	0e 00       	.word	0x000e;	????	
 178:	00 00       	.word	0x0000;	????	
 17a:	ff ff ff ff 	and.b	@r15+,	-1(r15)	;0xffff(r15)
 17e:	01 00       	.word	0x0001;	????	
 180:	01 7e       	subc	r14,	r1	
 182:	00 0c       	.word	0x0c00;	????	
 184:	01 02       	.word	0x0201;	????	
 186:	80 01       	.word	0x0180;	????	
 188:	08 00       	.word	0x0008;	????	
 18a:	00 00       	.word	0x0000;	????	
 18c:	76 01       	.word	0x0176;	????	
 18e:	00 00       	.word	0x0000;	????	
 190:	2c c5       	bic	@r5,	r12	
 192:	18 00       	.word	0x0018;	????	
 194:	18 00       	.word	0x0018;	????	
 196:	00 00       	.word	0x0000;	????	
 198:	76 01       	.word	0x0176;	????	
 19a:	00 00       	.word	0x0000;	????	
 19c:	44 c5       	bic.b	r5,	r4	
 19e:	44 00       	.word	0x0044;	????	
 1a0:	42 0e       	.word	0x0e42;	????	
 1a2:	04 8b       	sub	r11,	r4	
 1a4:	02 42       	mov	r2,	r2	
 1a6:	0e 06       	.word	0x060e;	????	
 1a8:	8a 03       	.word	0x038a;	????	
 1aa:	42 0e       	.word	0x0e42;	????	
 1ac:	08 89       	sub	r9,	r8	
 1ae:	04 00       	.word	0x0004;	????	
 1b0:	08 00       	.word	0x0008;	????	
 1b2:	00 00       	.word	0x0000;	????	
 1b4:	76 01       	.word	0x0176;	????	
 1b6:	00 00       	.word	0x0000;	????	
 1b8:	88 c5 30 00 	bic	r5,	48(r8)	;0x0030(r8)
 1bc:	2c 00       	.word	0x002c;	????	
 1be:	00 00       	.word	0x0000;	????	
 1c0:	76 01       	.word	0x0176;	????	
 1c2:	00 00       	.word	0x0000;	????	
 1c4:	b8 c5 a6 00 	bic	@r5+,	166(r8)	;0x00a6(r8)
 1c8:	42 0e       	.word	0x0e42;	????	
 1ca:	04 8b       	sub	r11,	r4	
 1cc:	02 42       	mov	r2,	r2	
 1ce:	0e 06       	.word	0x060e;	????	
 1d0:	8a 03       	.word	0x038a;	????	
 1d2:	42 0e       	.word	0x0e42;	????	
 1d4:	08 89       	sub	r9,	r8	
 1d6:	04 42       	mov	r2,	r4	
 1d8:	0e 0a       	.word	0x0a0e;	????	
 1da:	88 05       	.word	0x0588;	????	
 1dc:	42 0e       	.word	0x0e42;	????	
 1de:	0c 87       	sub	r7,	r12	
 1e0:	06 42       	mov	r2,	r6	
 1e2:	0e 0e       	.word	0x0e0e;	????	
 1e4:	86 07       	.word	0x0786;	????	
 1e6:	42 0e       	.word	0x0e42;	????	
 1e8:	10 85 08 00 	sub	8(r5),	r0	;0x0008(r5)
 1ec:	2a 00       	.word	0x002a;	????	
 1ee:	00 00       	.word	0x0000;	????	
 1f0:	76 01       	.word	0x0176;	????	
 1f2:	00 00       	.word	0x0000;	????	
 1f4:	5e c6 90 00 	bic.b	144(r6),r14	;0x0090(r6)
 1f8:	42 0e       	.word	0x0e42;	????	
 1fa:	04 8b       	sub	r11,	r4	
 1fc:	02 42       	mov	r2,	r2	
 1fe:	0e 06       	.word	0x060e;	????	
 200:	8a 03       	.word	0x038a;	????	
 202:	42 0e       	.word	0x0e42;	????	
 204:	08 89       	sub	r9,	r8	
 206:	04 42       	mov	r2,	r4	
 208:	0e 0a       	.word	0x0a0e;	????	
 20a:	88 05       	.word	0x0588;	????	
 20c:	42 0e       	.word	0x0e42;	????	
 20e:	0c 87       	sub	r7,	r12	
 210:	06 42       	mov	r2,	r6	
 212:	0e 0e       	.word	0x0e0e;	????	
 214:	86 07       	.word	0x0786;	????	
 216:	44 0e       	.word	0x0e44;	????	
 218:	60 00       	.word	0x0060;	????	
 21a:	0e 00       	.word	0x000e;	????	
 21c:	00 00       	.word	0x0000;	????	
 21e:	ff ff ff ff 	and.b	@r15+,	-1(r15)	;0xffff(r15)
 222:	01 00       	.word	0x0001;	????	
 224:	01 7e       	subc	r14,	r1	
 226:	00 0c       	.word	0x0c00;	????	
 228:	01 02       	.word	0x0201;	????	
 22a:	80 01       	.word	0x0180;	????	
 22c:	22 00       	.word	0x0022;	????	
 22e:	00 00       	.word	0x0000;	????	
 230:	1a 02       	.word	0x021a;	????	
 232:	00 00       	.word	0x0000;	????	
 234:	ee c6 6a 00 	bic.b	@r6,	106(r14);0x006a(r14)
 238:	42 0e       	.word	0x0e42;	????	
 23a:	04 8b       	sub	r11,	r4	
 23c:	02 42       	mov	r2,	r2	
 23e:	0e 06       	.word	0x060e;	????	
 240:	8a 03       	.word	0x038a;	????	
 242:	42 0e       	.word	0x0e42;	????	
 244:	08 89       	sub	r9,	r8	
 246:	04 42       	mov	r2,	r4	
 248:	0e 0a       	.word	0x0a0e;	????	
 24a:	88 05       	.word	0x0588;	????	
 24c:	42 0e       	.word	0x0e42;	????	
 24e:	0c 87       	sub	r7,	r12	
 250:	06 00       	.word	0x0006;	????	
 252:	08 00       	.word	0x0008;	????	
 254:	00 00       	.word	0x0000;	????	
 256:	1a 02       	.word	0x021a;	????	
 258:	00 00       	.word	0x0000;	????	
 25a:	58 c7 0e 00 	bic.b	14(r7),	r8	;0x000e(r7)
 25e:	0e 00       	.word	0x000e;	????	
 260:	00 00       	.word	0x0000;	????	
 262:	1a 02       	.word	0x021a;	????	
 264:	00 00       	.word	0x0000;	????	
 266:	66 c7       	bic.b	@r7,	r6	
 268:	14 00       	.word	0x0014;	????	
 26a:	42 0e       	.word	0x0e42;	????	
 26c:	04 8b       	sub	r11,	r4	
 26e:	02 00       	.word	0x0002;	????	
 270:	1a 00       	.word	0x001a;	????	
 272:	00 00       	.word	0x0000;	????	
 274:	1a 02       	.word	0x021a;	????	
 276:	00 00       	.word	0x0000;	????	
 278:	7a c7       	bic.b	@r7+,	r10	
 27a:	7a 00       	.word	0x007a;	????	
 27c:	42 0e       	.word	0x0e42;	????	
 27e:	04 8b       	sub	r11,	r4	
 280:	02 42       	mov	r2,	r2	
 282:	0e 06       	.word	0x060e;	????	
 284:	8a 03       	.word	0x038a;	????	
 286:	42 0e       	.word	0x0e42;	????	
 288:	08 89       	sub	r9,	r8	
 28a:	04 44       	mov	r4,	r4	
 28c:	0e 28       	jnc	$+30     	;abs 0x2aa
 28e:	12 00       	.word	0x0012;	????	
 290:	00 00       	.word	0x0000;	????	
 292:	1a 02       	.word	0x021a;	????	
 294:	00 00       	.word	0x0000;	????	
 296:	f4 c7 3a 00 	bic.b	@r7+,	58(r4)	;0x003a(r4)
 29a:	42 0e       	.word	0x0e42;	????	
 29c:	04 8b       	sub	r11,	r4	
 29e:	02 42       	mov	r2,	r2	
 2a0:	0e 06       	.word	0x060e;	????	
 2a2:	8a 03       	.word	0x038a;	????	
 2a4:	1c 00       	.word	0x001c;	????	
 2a6:	00 00       	.word	0x0000;	????	
 2a8:	1a 02       	.word	0x021a;	????	
 2aa:	00 00       	.word	0x0000;	????	
 2ac:	2e c8       	bic	@r8,	r14	
 2ae:	2a 01       	.word	0x012a;	????	
 2b0:	42 0e       	.word	0x0e42;	????	
 2b2:	04 8b       	sub	r11,	r4	
 2b4:	02 42       	mov	r2,	r2	
 2b6:	0e 06       	.word	0x060e;	????	
 2b8:	8a 03       	.word	0x038a;	????	
 2ba:	42 0e       	.word	0x0e42;	????	
 2bc:	08 89       	sub	r9,	r8	
 2be:	04 42       	mov	r2,	r4	
 2c0:	0e 0a       	.word	0x0a0e;	????	
 2c2:	88 05       	.word	0x0588;	????	
 2c4:	0e 00       	.word	0x000e;	????	
 2c6:	00 00       	.word	0x0000;	????	
 2c8:	ff ff ff ff 	and.b	@r15+,	-1(r15)	;0xffff(r15)
 2cc:	01 00       	.word	0x0001;	????	
 2ce:	01 7e       	subc	r14,	r1	
 2d0:	00 0c       	.word	0x0c00;	????	
 2d2:	01 02       	.word	0x0201;	????	
 2d4:	80 01       	.word	0x0180;	????	
 2d6:	08 00       	.word	0x0008;	????	
 2d8:	00 00       	.word	0x0000;	????	
 2da:	c4 02       	.word	0x02c4;	????	
 2dc:	00 00       	.word	0x0000;	????	
 2de:	58 c9 06 00 	bic.b	6(r9),	r8	;0x0006(r9)
 2e2:	08 00       	.word	0x0008;	????	
 2e4:	00 00       	.word	0x0000;	????	
 2e6:	c4 02       	.word	0x02c4;	????	
 2e8:	00 00       	.word	0x0000;	????	
 2ea:	5e c9 06 00 	bic.b	6(r9),	r14	;0x0006(r9)
 2ee:	0e 00       	.word	0x000e;	????	
 2f0:	00 00       	.word	0x0000;	????	
 2f2:	ff ff ff ff 	and.b	@r15+,	-1(r15)	;0xffff(r15)
 2f6:	01 00       	.word	0x0001;	????	
 2f8:	01 7e       	subc	r14,	r1	
 2fa:	00 0c       	.word	0x0c00;	????	
 2fc:	01 02       	.word	0x0201;	????	
 2fe:	80 01       	.word	0x0180;	????	
 300:	08 00       	.word	0x0008;	????	
 302:	00 00       	.word	0x0000;	????	
 304:	ee 02       	.word	0x02ee;	????	
 306:	00 00       	.word	0x0000;	????	
 308:	64 c9       	bic.b	@r9,	r4	
 30a:	2a 01       	.word	0x012a;	????	
 30c:	08 00       	.word	0x0008;	????	
 30e:	00 00       	.word	0x0000;	????	
 310:	ee 02       	.word	0x02ee;	????	
 312:	00 00       	.word	0x0000;	????	
 314:	8e ca 10 00 	bic	r10,	16(r14)	;0x0010(r14)
 318:	08 00       	.word	0x0008;	????	
 31a:	00 00       	.word	0x0000;	????	
 31c:	ee 02       	.word	0x02ee;	????	
 31e:	00 00       	.word	0x0000;	????	
 320:	9e ca 06 00 	bic	6(r10),	8(r14)	;0x0006(r10), 0x0008(r14)
 324:	08 00 
 326:	00 00       	.word	0x0000;	????	
 328:	ee 02       	.word	0x02ee;	????	
 32a:	00 00       	.word	0x0000;	????	
 32c:	a4 ca 0e 00 	bic	@r10,	14(r4)	;0x000e(r4)
 330:	08 00       	.word	0x0008;	????	
 332:	00 00       	.word	0x0000;	????	
 334:	ee 02       	.word	0x02ee;	????	
 336:	00 00       	.word	0x0000;	????	
 338:	b2 ca 06 00 	bic	@r10+,	&0x0006	
 33c:	08 00       	.word	0x0008;	????	
 33e:	00 00       	.word	0x0000;	????	
 340:	ee 02       	.word	0x02ee;	????	
 342:	00 00       	.word	0x0000;	????	
 344:	b8 ca 0e 00 	bic	@r10+,	14(r8)	;0x000e(r8)
 348:	0e 00       	.word	0x000e;	????	
 34a:	00 00       	.word	0x0000;	????	
 34c:	ff ff ff ff 	and.b	@r15+,	-1(r15)	;0xffff(r15)
 350:	01 00       	.word	0x0001;	????	
 352:	01 7e       	subc	r14,	r1	
 354:	00 0c       	.word	0x0c00;	????	
 356:	01 02       	.word	0x0201;	????	
 358:	80 01       	.word	0x0180;	????	
 35a:	0e 00       	.word	0x000e;	????	
 35c:	00 00       	.word	0x0000;	????	
 35e:	48 03       	.word	0x0348;	????	
 360:	00 00       	.word	0x0000;	????	
 362:	3a cb       	bic	@r11+,	r10	
 364:	2a 00       	.word	0x002a;	????	
 366:	42 0e       	.word	0x0e42;	????	
 368:	04 8b       	sub	r11,	r4	
 36a:	02 00       	.word	0x0002;	????	
 36c:	0e 00       	.word	0x000e;	????	
 36e:	00 00       	.word	0x0000;	????	
 370:	ff ff ff ff 	and.b	@r15+,	-1(r15)	;0xffff(r15)
 374:	01 00       	.word	0x0001;	????	
 376:	01 7e       	subc	r14,	r1	
 378:	00 0c       	.word	0x0c00;	????	
 37a:	01 02       	.word	0x0201;	????	
 37c:	80 01       	.word	0x0180;	????	
 37e:	1c 00       	.word	0x001c;	????	
 380:	00 00       	.word	0x0000;	????	
 382:	6c 03       	.word	0x036c;	????	
 384:	00 00       	.word	0x0000;	????	
 386:	64 cb       	bic.b	@r11,	r4	
 388:	6a 00       	.word	0x006a;	????	
 38a:	42 0e       	.word	0x0e42;	????	
 38c:	04 8b       	sub	r11,	r4	
 38e:	02 42       	mov	r2,	r2	
 390:	0e 06       	.word	0x060e;	????	
 392:	8a 03       	.word	0x038a;	????	
 394:	42 0e       	.word	0x0e42;	????	
 396:	08 89       	sub	r9,	r8	
 398:	04 42       	mov	r2,	r4	
 39a:	0e 0a       	.word	0x0a0e;	????	
 39c:	88 05       	.word	0x0588;	????	
 39e:	0e 00       	.word	0x000e;	????	
 3a0:	00 00       	.word	0x0000;	????	
 3a2:	ff ff ff ff 	and.b	@r15+,	-1(r15)	;0xffff(r15)
 3a6:	01 00       	.word	0x0001;	????	
 3a8:	01 7e       	subc	r14,	r1	
 3aa:	00 0c       	.word	0x0c00;	????	
 3ac:	01 02       	.word	0x0201;	????	
 3ae:	80 01       	.word	0x0180;	????	
 3b0:	30 00       	.word	0x0030;	????	
 3b2:	00 00       	.word	0x0000;	????	
 3b4:	9e 03       	.word	0x039e;	????	
 3b6:	00 00       	.word	0x0000;	????	
 3b8:	ce cb 08 01 	bic.b	r11,	264(r14);0x0108(r14)
 3bc:	42 0e       	.word	0x0e42;	????	
 3be:	04 8b       	sub	r11,	r4	
 3c0:	02 42       	mov	r2,	r2	
 3c2:	0e 06       	.word	0x060e;	????	
 3c4:	8a 03       	.word	0x038a;	????	
 3c6:	42 0e       	.word	0x0e42;	????	
 3c8:	08 89       	sub	r9,	r8	
 3ca:	04 42       	mov	r2,	r4	
 3cc:	0e 0a       	.word	0x0a0e;	????	
 3ce:	88 05       	.word	0x0588;	????	
 3d0:	42 0e       	.word	0x0e42;	????	
 3d2:	0c 87       	sub	r7,	r12	
 3d4:	06 42       	mov	r2,	r6	
 3d6:	0e 0e       	.word	0x0e0e;	????	
 3d8:	86 07       	.word	0x0786;	????	
 3da:	42 0e       	.word	0x0e42;	????	
 3dc:	10 85 08 42 	sub	16904(r5),r0	;0x4208(r5)
 3e0:	0e 12       	push	r14		
 3e2:	84 09       	.word	0x0984;	????	
 3e4:	08 00       	.word	0x0008;	????	
 3e6:	00 00       	.word	0x0000;	????	
 3e8:	9e 03       	.word	0x039e;	????	
 3ea:	00 00       	.word	0x0000;	????	
 3ec:	d6 cc 08 00 	bic.b	8(r12),	14(r6)	;0x0008(r12), 0x000e(r6)
 3f0:	0e 00 
 3f2:	00 00       	.word	0x0000;	????	
 3f4:	ff ff ff ff 	and.b	@r15+,	-1(r15)	;0xffff(r15)
 3f8:	01 00       	.word	0x0001;	????	
 3fa:	01 7e       	subc	r14,	r1	
 3fc:	00 0c       	.word	0x0c00;	????	
 3fe:	01 02       	.word	0x0201;	????	
 400:	80 01       	.word	0x0180;	????	
 402:	0e 00       	.word	0x000e;	????	
 404:	00 00       	.word	0x0000;	????	
 406:	f0 03       	.word	0x03f0;	????	
 408:	00 00       	.word	0x0000;	????	
 40a:	de cc 8a 00 	bic.b	138(r12),3650(r14);0x008a(r12), 0x0e42(r14)
 40e:	42 0e 
 410:	04 8b       	sub	r11,	r4	
 412:	02 00       	.word	0x0002;	????	

Disassembly of section .debug_str:

00000000 <.debug_str>:
   0:	5f 5f 50 31 	add.b	12624(r15),r15	;0x3150(r15)
   4:	4f 55       	add.b	r5,	r15	
   6:	54 00       	.word	0x0054;	????	
   8:	73 68       	.word	0x6873;	????	Illegal as 2-op instr
   a:	65 6c       	addc.b	@r12,	r5	
   c:	6c 5f       	add.b	@r15,	r12	
   e:	70 72       	subc.b	#8,	r0	;r2 As==11
  10:	6f 63       	addc.b	#2,	r15	;r3 As==10
  12:	65 73       	subc.b	#2,	r5	;r3 As==10
  14:	73 00       	.word	0x0073;	????	
  16:	73 68       	.word	0x6873;	????	Illegal as 2-op instr
  18:	65 6c       	addc.b	@r12,	r5	
  1a:	6c 5f       	add.b	@r15,	r12	
  1c:	63 6d       	.word	0x6d63;	????	Illegal as 2-op instr
  1e:	64 5f       	add.b	@r15,	r4	
  20:	73 65       	.word	0x6573;	????	Illegal as 2-op instr
  22:	6c 6c       	addc.b	@r12,	r12	
  24:	00 73       	sbc	r0		
  26:	68 65       	addc.b	@r5,	r8	
  28:	6c 6c       	addc.b	@r12,	r12	
  2a:	5f 63       	addc.b	#1,	r15	;r3 As==01
  2c:	6d 64       	addc.b	@r4,	r13	
  2e:	00 74       	subc	r4,	r0	
  30:	65 6d       	addc.b	@r13,	r5	
  32:	70 00       	.word	0x0070;	????	
  34:	73 68       	.word	0x6873;	????	Illegal as 2-op instr
  36:	65 6c       	addc.b	@r12,	r5	
  38:	6c 5f       	add.b	@r15,	r12	
  3a:	63 6d       	.word	0x6d63;	????	Illegal as 2-op instr
  3c:	64 5f       	add.b	@r15,	r4	
  3e:	73 68       	.word	0x6873;	????	Illegal as 2-op instr
  40:	6f 77       	subc.b	@r7,	r15	
  42:	00 6d       	addc	r13,	r0	
  44:	61 69       	addc.b	@r9,	r1	
  46:	6e 00       	.word	0x006e;	????	
  48:	73 74       	.word	0x7473;	????	Illegal as 2-op instr
  4a:	61 63       	addc.b	#2,	r1	;r3 As==10
  4c:	6b 00       	.word	0x006b;	????	
  4e:	5f 5f 50 31 	add.b	12624(r15),r15	;0x3150(r15)
  52:	44 49       	mov.b	r9,	r4	
  54:	52 00       	.word	0x0052;	????	
  56:	73 68       	.word	0x6873;	????	Illegal as 2-op instr
  58:	65 6c       	addc.b	@r12,	r5	
  5a:	6c 5f       	add.b	@r15,	r12	
  5c:	63 6d       	.word	0x6d63;	????	Illegal as 2-op instr
  5e:	64 5f       	add.b	@r15,	r4	
  60:	68 65       	addc.b	@r5,	r8	
  62:	6c 70       	subc.b	@r0,	r12	
  64:	00 71       	subc	r1,	r0	
  66:	75 61       	addc.b	@r1+,	r5	
  68:	6e 74       	subc.b	@r4,	r14	
  6a:	69 74       	subc.b	@r4,	r9	
  6c:	79 00       	.word	0x0079;	????	
  6e:	73 68       	.word	0x6873;	????	Illegal as 2-op instr
  70:	65 6c       	addc.b	@r12,	r5	
  72:	6c 2e       	jc	$-806    	;abs 0xfd4c
  74:	63 00       	.word	0x0063;	????	
  76:	73 68       	.word	0x6873;	????	Illegal as 2-op instr
  78:	65 6c       	addc.b	@r12,	r5	
  7a:	6c 5f       	add.b	@r15,	r12	
  7c:	63 6d       	.word	0x6d63;	????	Illegal as 2-op instr
  7e:	64 5f       	add.b	@r15,	r4	
  80:	61 72       	subc.b	#4,	r1	;r2 As==10
  82:	67 00       	.word	0x0067;	????	
  84:	73 68       	.word	0x6873;	????	Illegal as 2-op instr
  86:	65 6c       	addc.b	@r12,	r5	
  88:	6c 5f       	add.b	@r15,	r12	
  8a:	63 6d       	.word	0x6d63;	????	Illegal as 2-op instr
  8c:	64 5f       	add.b	@r15,	r4	
  8e:	70 75       	subc.b	@r5+,	r0	
  90:	73 68       	.word	0x6873;	????	Illegal as 2-op instr
  92:	00 5f       	add	r15,	r0	
  94:	5f 50 32 4f 	add.b	20274(r0),r15	;PC rel. 0x4fc8
  98:	55 54 00 2f 	add.b	12032(r4),r5	;0x2f00(r4)
  9c:	55 73       	subc.b	#1,	r5	;r3 As==01
  9e:	65 72       	subc.b	#4,	r5	;r2 As==10
  a0:	73 2f       	jc	$-280    	;abs 0xff88
  a2:	6f 6c       	addc.b	@r12,	r15	
  a4:	69 76       	subc.b	@r6,	r9	
  a6:	65 72       	subc.b	#4,	r5	;r2 As==10
  a8:	73 61       	.word	0x6173;	????	Illegal as 2-op instr
  aa:	6e 63       	addc.b	#2,	r14	;r3 As==10
  ac:	68 65       	addc.b	@r5,	r8	
  ae:	7a 2f       	jc	$-266    	;abs 0xffa4
  b0:	44 6f       	addc.b	r15,	r4	
  b2:	63 75       	.word	0x7563;	????	Illegal as 2-op instr
  b4:	6d 65       	addc.b	@r5,	r13	
  b6:	6e 74       	subc.b	@r4,	r14	
  b8:	73 2f       	jc	$-280    	;abs 0xffa0
  ba:	53 63       	.word	0x6353;	????	Illegal as 2-op instr
  bc:	68 6f       	addc.b	@r15,	r8	
  be:	6f 6c       	addc.b	@r12,	r15	
  c0:	2f 43       	mov	#2,	r15	;r3 As==10
  c2:	53 20       	jnz	$+168    	;abs 0x16a
  c4:	32 32       	jn	$-922    	;abs 0xfd2a
  c6:	33 30       	jn	$+104    	;abs 0x12e
  c8:	20 2d       	jc	$+578    	;abs 0x30a
  ca:	20 43       	br	#2		;r3 As==10
  cc:	6f 6d       	addc.b	@r13,	r15	
  ce:	70 75       	subc.b	@r5+,	r0	
  d0:	74 65       	addc.b	@r5+,	r4	
  d2:	72 20       	jnz	$+230    	;abs 0x1b8
  d4:	4f 72       	subc.b	r2,	r15	
  d6:	67 61       	addc.b	@r1,	r7	
  d8:	6e 69       	addc.b	@r9,	r14	
  da:	7a 61       	addc.b	@r1+,	r10	
  dc:	74 69       	addc.b	@r9+,	r4	
  de:	6f 6e       	addc.b	@r14,	r15	
  e0:	20 61       	addc	@r1,	r0	
  e2:	6e 64       	addc.b	@r4,	r14	
  e4:	20 41       	br	@r1		
  e6:	73 73       	.word	0x7373;	????	Illegal as 2-op instr
  e8:	65 6d       	addc.b	@r13,	r5	
  ea:	62 6c       	addc.b	@r12,	r2	
  ec:	79 2f       	jc	$-268    	;abs 0xffe0
  ee:	61 36       	jge	$-828    	;abs 0xfdb2
  f0:	00 66       	addc	r6,	r0	
  f2:	75 6e       	addc.b	@r14+,	r5	
  f4:	63 00       	.word	0x0063;	????	
  f6:	6c 6f       	addc.b	@r15,	r12	
  f8:	6e 67       	addc.b	@r7,	r14	
  fa:	20 6c       	addc	@r12,	r0	
  fc:	6f 6e       	addc.b	@r14,	r15	
  fe:	67 20       	jnz	$+208    	;abs 0x1ce
 100:	69 6e       	addc.b	@r14,	r9	
 102:	74 00       	.word	0x0074;	????	
 104:	5f 5f 44 43 	add.b	17220(r15),r15	;0x4344(r15)
 108:	4f 43       	clr.b	r15		
 10a:	54 4c 00 5f 	mov.b	24320(r12),r4	;0x5f00(r12)
 10e:	5f 57 44 54 	add.b	21572(r7),r15	;0x5444(r7)
 112:	43 54       	.word	0x5443;	????	Illegal as 2-op instr
 114:	4c 00       	.word	0x004c;	????	
 116:	47 4e       	mov.b	r14,	r7	
 118:	55 20       	jnz	$+172    	;abs 0x1c4
 11a:	43 20       	jnz	$+136    	;abs 0x1a2
 11c:	34 2e       	jc	$-918    	;abs 0xfd86
 11e:	36 2e       	jc	$-914    	;abs 0xfd8c
 120:	33 20       	jnz	$+104    	;abs 0x188
 122:	32 30       	jn	$+102    	;abs 0x188
 124:	31 32       	jn	$-924    	;abs 0xfd88
 126:	30 33       	jn	$-414    	;abs 0xff88
 128:	30 31       	jn	$+610    	;abs 0x38a
 12a:	20 28       	jnc	$+66     	;abs 0x16c
 12c:	6d 73       	subc.b	#2,	r13	;r3 As==10
 12e:	70 67       	addc.b	@r7+,	r0	
 130:	63 63       	.word	0x6363;	????	Illegal as 2-op instr
 132:	20 4c       	br	@r12		
 134:	54 53       	inc.b	r4		
 136:	20 32       	jn	$-958    	;abs 0xfd78
 138:	30 31       	jn	$+610    	;abs 0x39a
 13a:	32 30       	jn	$+102    	;abs 0x1a0
 13c:	34 30       	jn	$+106    	;abs 0x1a6
 13e:	36 20       	jnz	$+110    	;abs 0x1ac
 140:	75 6e       	addc.b	@r14+,	r5	
 142:	70 61       	addc.b	@r1+,	r0	
 144:	74 63       	addc.b	#-1,	r4	;r3 As==11
 146:	68 65       	addc.b	@r5,	r8	
 148:	64 29       	jnc	$+714    	;abs 0x412
 14a:	00 5f       	add	r15,	r0	
 14c:	5f 50 32 44 	add.b	17458(r0),r15	;PC rel. 0x4580
 150:	49 52       	add.b	r2,	r9	
 152:	00 5f       	add	r15,	r0	
 154:	5f 50 31 52 	add.b	21041(r0),r15	;PC rel. 0x5387
 158:	45 4e       	mov.b	r14,	r5	
 15a:	00 70       	subc	r0,	r0	
 15c:	65 6e       	addc.b	@r14,	r5	
 15e:	6e 69       	addc.b	@r9,	r14	
 160:	65 73       	subc.b	#2,	r5	;r3 As==10
 162:	00 6e       	addc	r14,	r0	
 164:	61 6d       	addc.b	@r13,	r1	
 166:	65 00       	.word	0x0065;	????	
 168:	5f 5f 50 31 	add.b	12624(r15),r15	;0x3150(r15)
 16c:	49 45       	mov.b	r5,	r9	
 16e:	53 00       	.word	0x0053;	????	
 170:	5f 5f 43 41 	add.b	16707(r15),r15	;0x4143(r15)
 174:	4c 44       	mov.b	r4,	r12	
 176:	43 4f       	.word	0x4f43;	????	Illegal as 2-op instr
 178:	5f 31       	jn	$+704    	;abs 0x438
 17a:	4d 48       	mov.b	r8,	r13	
 17c:	5a 00       	.word	0x005a;	????	
 17e:	75 6e       	addc.b	@r14+,	r5	
 180:	73 69       	.word	0x6973;	????	Illegal as 2-op instr
 182:	67 6e       	addc.b	@r14,	r7	
 184:	65 64       	addc.b	@r4,	r5	
 186:	20 63       	addc	#2,	r0	;r3 As==10
 188:	68 61       	addc.b	@r1,	r8	
 18a:	72 00       	.word	0x0072;	????	
 18c:	6c 6f       	addc.b	@r15,	r12	
 18e:	6e 67       	addc.b	@r7,	r14	
 190:	20 6c       	addc	@r12,	r0	
 192:	6f 6e       	addc.b	@r14,	r15	
 194:	67 20       	jnz	$+208    	;abs 0x264
 196:	75 6e       	addc.b	@r14+,	r5	
 198:	73 69       	.word	0x6973;	????	Illegal as 2-op instr
 19a:	67 6e       	addc.b	@r14,	r7	
 19c:	65 64       	addc.b	@r4,	r5	
 19e:	20 69       	addc	@r9,	r0	
 1a0:	6e 74       	subc.b	@r4,	r14	
 1a2:	00 50       	rla	r0		
 1a4:	6f 72       	subc.b	#4,	r15	;r2 As==10
 1a6:	74 31       	jn	$+746    	;abs 0x490
 1a8:	5f 49 53 52 	mov.b	21075(r9),r15	;0x5253(r9)
 1ac:	00 70       	subc	r0,	r0	
 1ae:	72 69       	addc.b	@r9+,	r2	
 1b0:	63 65       	.word	0x6563;	????	Illegal as 2-op instr
 1b2:	00 63       	adc	r0		
 1b4:	6d 64       	addc.b	@r4,	r13	
 1b6:	5f 6c 69 6e 	addc.b	28265(r12),r15	;0x6e69(r12)
 1ba:	65 00       	.word	0x0065;	????	
 1bc:	64 65       	addc.b	@r5,	r4	
 1be:	73 63       	.word	0x6373;	????	Illegal as 2-op instr
 1c0:	00 73       	sbc	r0		
 1c2:	68 65       	addc.b	@r5,	r8	
 1c4:	6c 6c       	addc.b	@r12,	r12	
 1c6:	5f 63       	addc.b	#1,	r15	;r3 As==01
 1c8:	6d 64       	addc.b	@r4,	r13	
 1ca:	5f 61 72 67 	addc.b	26482(r1),r15	;0x6772(r1)
 1ce:	73 00       	.word	0x0073;	????	
 1d0:	73 68       	.word	0x6873;	????	Illegal as 2-op instr
 1d2:	65 6c       	addc.b	@r12,	r5	
 1d4:	6c 5f       	add.b	@r15,	r12	
 1d6:	63 6d       	.word	0x6d63;	????	Illegal as 2-op instr
 1d8:	64 5f       	add.b	@r15,	r4	
 1da:	61 72       	subc.b	#4,	r1	;r2 As==10
 1dc:	67 74       	subc.b	@r4,	r7	
 1de:	00 73       	sbc	r0		
 1e0:	68 6f       	addc.b	@r15,	r8	
 1e2:	72 74       	subc.b	@r4+,	r2	
 1e4:	20 75       	subc	@r5,	r0	
 1e6:	6e 73       	subc.b	#2,	r14	;r3 As==10
 1e8:	69 67       	addc.b	@r7,	r9	
 1ea:	6e 65       	addc.b	@r5,	r14	
 1ec:	64 20       	jnz	$+202    	;abs 0x2b6
 1ee:	69 6e       	addc.b	@r14,	r9	
 1f0:	74 00       	.word	0x0074;	????	
 1f2:	63 65       	.word	0x6563;	????	Illegal as 2-op instr
 1f4:	6e 74       	subc.b	@r4,	r14	
 1f6:	73 00       	.word	0x0073;	????	
 1f8:	63 6f       	.word	0x6f63;	????	Illegal as 2-op instr
 1fa:	73 74       	.word	0x7473;	????	Illegal as 2-op instr
 1fc:	00 6d       	addc	r13,	r0	
 1fe:	79 5f       	add.b	@r15+,	r9	
 200:	73 68       	.word	0x6873;	????	Illegal as 2-op instr
 202:	65 6c       	addc.b	@r12,	r5	
 204:	6c 5f       	add.b	@r15,	r12	
 206:	63 6d       	.word	0x6d63;	????	Illegal as 2-op instr
 208:	64 73       	subc.b	#2,	r4	;r3 As==10
 20a:	00 5f       	add	r15,	r0	
 20c:	5f 50 31 49 	add.b	18737(r0),r15	;PC rel. 0x4b3f
 210:	46 47       	mov.b	r7,	r6	
 212:	00 5f       	add	r15,	r0	
 214:	62 6f       	addc.b	@r15,	r2	
 216:	78 5f       	add.b	@r15+,	r8	
 218:	74 00       	.word	0x0074;	????	
 21a:	5f 5f 42 43 	add.b	17218(r15),r15	;0x4342(r15)
 21e:	53 43       	.word	0x4353;	????	Illegal as 2-op instr
 220:	54 4c 31 00 	mov.b	49(r12),r4	;0x0031(r12)
 224:	73 68       	.word	0x6873;	????	Illegal as 2-op instr
 226:	65 6c       	addc.b	@r12,	r5	
 228:	6c 5f       	add.b	@r15,	r12	
 22a:	63 6d       	.word	0x6d63;	????	Illegal as 2-op instr
 22c:	64 5f       	add.b	@r15,	r4	
 22e:	70 6f       	addc.b	@r15+,	r0	
 230:	70 00       	.word	0x0070;	????	
 232:	5f 5f 50 31 	add.b	12624(r15),r15	;0x3150(r15)
 236:	49 45       	mov.b	r5,	r9	
 238:	00 63       	adc	r0		
 23a:	6f 75       	subc.b	@r5,	r15	
 23c:	6e 74       	subc.b	@r4,	r14	
 23e:	00 5f       	add	r15,	r0	
 240:	5f 50 31 49 	add.b	18737(r0),r15	;PC rel. 0x4b73
 244:	4e 00       	.word	0x004e;	????	
 246:	73 74       	.word	0x7473;	????	Illegal as 2-op instr
 248:	61 63       	addc.b	#2,	r1	;r3 As==10
 24a:	6b 5f       	add.b	@r15,	r11	
 24c:	74 6f       	addc.b	@r15+,	r4	
 24e:	70 00       	.word	0x0070;	????	
 250:	5f 5f 43 41 	add.b	16707(r15),r15	;0x4143(r15)
 254:	4c 42       	mov.b	r2,	r12	
 256:	43 31       	jn	$+648    	;abs 0x4de
 258:	5f 31       	jn	$+704    	;abs 0x518
 25a:	4d 48       	mov.b	r8,	r13	
 25c:	5a 00       	.word	0x005a;	????	
 25e:	73 68       	.word	0x6873;	????	Illegal as 2-op instr
 260:	65 6c       	addc.b	@r12,	r5	
 262:	6c 5f       	add.b	@r15,	r12	
 264:	61 72       	subc.b	#4,	r1	;r2 As==10
 266:	67 5f       	add.b	@r15,	r7	
 268:	70 61       	addc.b	@r1+,	r0	
 26a:	72 73       	subc.b	#-1,	r2	;r3 As==11
 26c:	65 72       	subc.b	#4,	r5	;r2 As==10
 26e:	00 63       	adc	r0		
 270:	6d 64       	addc.b	@r4,	r13	
 272:	5f 6c 69 6e 	addc.b	28265(r12),r15	;0x6e69(r12)
 276:	65 5f       	add.b	@r15,	r5	
 278:	6c 65       	addc.b	@r5,	r12	
 27a:	6e 00       	.word	0x006e;	????	
 27c:	73 68       	.word	0x6873;	????	Illegal as 2-op instr
 27e:	65 6c       	addc.b	@r12,	r5	
 280:	6c 5f       	add.b	@r15,	r12	
 282:	73 74       	.word	0x7473;	????	Illegal as 2-op instr
 284:	72 5f       	add.b	@r15+,	r2	
 286:	63 6d       	.word	0x6d63;	????	Illegal as 2-op instr
 288:	70 00       	.word	0x0070;	????	
 28a:	73 70       	.word	0x7073;	????	Illegal as 2-op instr
 28c:	6f 73       	subc.b	#2,	r15	;r3 As==10
 28e:	00 63       	adc	r0		
 290:	6d 64       	addc.b	@r4,	r13	
 292:	5f 6c 65 6e 	addc.b	28261(r12),r15	;0x6e65(r12)
 296:	00 73       	sbc	r0		
 298:	74 72       	subc.b	#8,	r4	;r2 As==11
 29a:	32 00       	.word	0x0032;	????	
 29c:	61 72       	subc.b	#4,	r1	;r2 As==10
 29e:	67 63       	addc.b	#2,	r7	;r3 As==10
 2a0:	00 73       	sbc	r0		
 2a2:	68 65       	addc.b	@r5,	r8	
 2a4:	6c 6c       	addc.b	@r12,	r12	
 2a6:	5f 73       	subc.b	#1,	r15	;r3 As==01
 2a8:	74 72       	subc.b	#8,	r4	;r2 As==11
 2aa:	5f 6c 65 6e 	addc.b	28261(r12),r15	;0x6e65(r12)
 2ae:	00 6c       	addc	r12,	r0	
 2b0:	65 6e       	addc.b	@r14,	r5	
 2b2:	31 00       	.word	0x0031;	????	
 2b4:	6c 65       	addc.b	@r5,	r12	
 2b6:	6e 32       	jn	$-802    	;abs 0xff94
 2b8:	00 73       	sbc	r0		
 2ba:	68 65       	addc.b	@r5,	r8	
 2bc:	6c 6c       	addc.b	@r12,	r12	
 2be:	5f 70 72 6f 	subc.b	28530(r0),r15	;PC rel. 0x7232
 2c2:	63 65       	.word	0x6563;	????	Illegal as 2-op instr
 2c4:	73 73       	.word	0x7373;	????	Illegal as 2-op instr
 2c6:	5f 63       	addc.b	#1,	r15	;r3 As==01
 2c8:	6d 64       	addc.b	@r4,	r13	
 2ca:	73 00       	.word	0x0073;	????	
 2cc:	73 68       	.word	0x6873;	????	Illegal as 2-op instr
 2ce:	65 6c       	addc.b	@r12,	r5	
 2d0:	6c 5f       	add.b	@r15,	r12	
 2d2:	70 61       	addc.b	@r1+,	r0	
 2d4:	72 73       	subc.b	#-1,	r2	;r3 As==11
 2d6:	65 5f       	add.b	@r15,	r5	
 2d8:	69 6e       	addc.b	@r14,	r9	
 2da:	74 00       	.word	0x0074;	????	
 2dc:	73 74       	.word	0x7473;	????	Illegal as 2-op instr
 2de:	72 31       	jn	$+742    	;abs 0x5c4
 2e0:	00 2f       	jc	$-510    	;abs 0xe2
 2e2:	55 73       	subc.b	#1,	r5	;r3 As==01
 2e4:	65 72       	subc.b	#4,	r5	;r2 As==10
 2e6:	73 2f       	jc	$-280    	;abs 0x1ce
 2e8:	6f 6c       	addc.b	@r12,	r15	
 2ea:	69 76       	subc.b	@r6,	r9	
 2ec:	65 72       	subc.b	#4,	r5	;r2 As==10
 2ee:	73 61       	.word	0x6173;	????	Illegal as 2-op instr
 2f0:	6e 63       	addc.b	#2,	r14	;r3 As==10
 2f2:	68 65       	addc.b	@r5,	r8	
 2f4:	7a 2f       	jc	$-266    	;abs 0x1ea
 2f6:	44 6f       	addc.b	r15,	r4	
 2f8:	77 6e       	addc.b	@r14+,	r7	
 2fa:	6c 6f       	addc.b	@r15,	r12	
 2fc:	61 64       	addc.b	@r4,	r1	
 2fe:	73 2f       	jc	$-280    	;abs 0x1e6
 300:	6c 69       	addc.b	@r9,	r12	
 302:	62 65       	addc.b	@r5,	r2	
 304:	6d 62       	addc.b	#4,	r13	;r2 As==10
 306:	2d 6d       	addc	@r13,	r13	
 308:	61 73       	subc.b	#2,	r1	;r3 As==10
 30a:	74 65       	addc.b	@r5+,	r4	
 30c:	72 2f       	jc	$-282    	;abs 0x1f2
 30e:	6c 69       	addc.b	@r9,	r12	
 310:	62 73       	subc.b	#2,	r2	;r3 As==10
 312:	68 65       	addc.b	@r5,	r8	
 314:	6c 6c       	addc.b	@r12,	r12	
 316:	2f 73       	subc	#2,	r15	;r3 As==10
 318:	72 63       	addc.b	#-1,	r2	;r3 As==11
 31a:	00 63       	adc	r0		
 31c:	69 6f       	addc.b	@r15,	r9	
 31e:	5f 70 72 69 	subc.b	26994(r0),r15	;PC rel. 0x6c92
 322:	6e 74       	subc.b	@r4,	r14	
 324:	62 00       	.word	0x0062;	????	
 326:	2f 55       	add	@r5,	r15	
 328:	73 65       	.word	0x6573;	????	Illegal as 2-op instr
 32a:	72 73       	subc.b	#-1,	r2	;r3 As==11
 32c:	2f 6f       	addc	@r15,	r15	
 32e:	6c 69       	addc.b	@r9,	r12	
 330:	76 65       	addc.b	@r5+,	r6	
 332:	72 73       	subc.b	#-1,	r2	;r3 As==11
 334:	61 6e       	addc.b	@r14,	r1	
 336:	63 68       	.word	0x6863;	????	Illegal as 2-op instr
 338:	65 7a       	subc.b	@r10,	r5	
 33a:	2f 44       	mov	@r4,	r15	
 33c:	6f 77       	subc.b	@r7,	r15	
 33e:	6e 6c       	addc.b	@r12,	r14	
 340:	6f 61       	addc.b	@r1,	r15	
 342:	64 73       	subc.b	#2,	r4	;r3 As==10
 344:	2f 6c       	addc	@r12,	r15	
 346:	69 62       	addc.b	#4,	r9	;r2 As==10
 348:	65 6d       	addc.b	@r13,	r5	
 34a:	62 2d       	jc	$+710    	;abs 0x610
 34c:	6d 61       	addc.b	@r1,	r13	
 34e:	73 74       	.word	0x7473;	????	Illegal as 2-op instr
 350:	65 72       	subc.b	#4,	r5	;r2 As==10
 352:	2f 6c       	addc	@r12,	r15	
 354:	69 62       	addc.b	#4,	r9	;r2 As==10
 356:	63 6f       	.word	0x6f63;	????	Illegal as 2-op instr
 358:	6e 69       	addc.b	@r9,	r14	
 35a:	6f 2f       	jc	$-288    	;abs 0x23a
 35c:	73 72       	.word	0x7273;	????	Illegal as 2-op instr
 35e:	63 00       	.word	0x0063;	????	
 360:	63 69       	.word	0x6963;	????	Illegal as 2-op instr
 362:	6f 5f       	add.b	@r15,	r15	
 364:	70 72       	subc.b	#8,	r0	;r2 As==11
 366:	69 6e       	addc.b	@r14,	r9	
 368:	74 66       	addc.b	@r6+,	r4	
 36a:	00 5f       	add	r15,	r0	
 36c:	5f 62 75 69 	addc.b	&0x6975,r15	
 370:	6c 74       	subc.b	@r4,	r12	
 372:	69 6e       	addc.b	@r14,	r9	
 374:	5f 76 61 5f 	subc.b	24417(r6),r15	;0x5f61(r6)
 378:	6c 69       	addc.b	@r9,	r12	
 37a:	73 74       	.word	0x7473;	????	Illegal as 2-op instr
 37c:	00 63       	adc	r0		
 37e:	69 6f       	addc.b	@r15,	r9	
 380:	5f 70 72 69 	subc.b	26994(r0),r15	;PC rel. 0x6cf4
 384:	6e 74       	subc.b	@r4,	r14	
 386:	69 00       	.word	0x0069;	????	
 388:	5f 78 74 6f 	subc.b	28532(r8),r15	;0x6f74(r8)
 38c:	61 00       	.word	0x0061;	????	
 38e:	62 61       	addc.b	@r1,	r2	
 390:	64 5f       	add.b	@r15,	r4	
 392:	66 6d       	addc.b	@r13,	r6	
 394:	74 00       	.word	0x0074;	????	
 396:	5f 70 75 74 	subc.b	29813(r0),r15	;PC rel. 0x780d
 39a:	68 00       	.word	0x0068;	????	
 39c:	63 6f       	.word	0x6f63;	????	Illegal as 2-op instr
 39e:	6e 69       	addc.b	@r9,	r14	
 3a0:	6f 2e       	jc	$-800    	;abs 0x80
 3a2:	63 00       	.word	0x0063;	????	
 3a4:	66 6f       	addc.b	@r15,	r6	
 3a6:	72 6d       	addc.b	@r13+,	r2	
 3a8:	61 74       	subc.b	@r4,	r1	
 3aa:	00 63       	adc	r0		
 3ac:	69 6f       	addc.b	@r15,	r9	
 3ae:	5f 70 72 69 	subc.b	26994(r0),r15	;PC rel. 0x6d22
 3b2:	6e 74       	subc.b	@r4,	r14	
 3b4:	00 5f       	add	r15,	r0	
 3b6:	5f 67 6e 75 	addc.b	30062(r7),r15	;0x756e(r7)
 3ba:	63 5f       	.word	0x5f63;	????	Illegal as 2-op instr
 3bc:	76 61       	addc.b	@r1+,	r6	
 3be:	5f 6c 69 73 	addc.b	29545(r12),r15	;0x7369(r12)
 3c2:	74 00       	.word	0x0074;	????	
 3c4:	62 75       	subc.b	@r5,	r2	
 3c6:	66 66       	addc.b	@r6,	r6	
 3c8:	65 72       	subc.b	#4,	r5	;r2 As==10
 3ca:	00 63       	adc	r0		
 3cc:	69 6f       	addc.b	@r15,	r9	
 3ce:	5f 67 65 74 	addc.b	29797(r7),r15	;0x7465(r7)
 3d2:	63 00       	.word	0x0063;	????	
 3d4:	63 69       	.word	0x6963;	????	Illegal as 2-op instr
 3d6:	6f 5f       	add.b	@r15,	r15	
 3d8:	70 72       	subc.b	#8,	r0	;r2 As==11
 3da:	69 6e       	addc.b	@r14,	r9	
 3dc:	74 63       	addc.b	#-1,	r4	;r3 As==11
 3de:	00 63       	adc	r0		
 3e0:	6f 6e       	addc.b	@r14,	r15	
 3e2:	69 6f       	addc.b	@r15,	r9	
 3e4:	5f 73       	subc.b	#1,	r15	;r3 As==01
 3e6:	65 72       	subc.b	#4,	r5	;r2 As==10
 3e8:	69 61       	addc.b	@r1,	r9	
 3ea:	6c 2e       	jc	$-806    	;abs 0xc4
 3ec:	63 00       	.word	0x0063;	????	
 3ee:	63 6c       	.word	0x6c63;	????	Illegal as 2-op instr
 3f0:	6b 73       	subc.b	#2,	r11	;r3 As==10
 3f2:	70 65       	addc.b	@r5+,	r0	
 3f4:	65 64       	addc.b	@r4,	r5	
 3f6:	00 73       	sbc	r0		
 3f8:	65 72       	subc.b	#4,	r5	;r2 As==10
 3fa:	69 61       	addc.b	@r1,	r9	
 3fc:	6c 5f       	add.b	@r15,	r12	
 3fe:	72 65       	addc.b	@r5+,	r2	
 400:	63 76       	.word	0x7663;	????	Illegal as 2-op instr
 402:	00 73       	sbc	r0		
 404:	65 72       	subc.b	#4,	r5	;r2 As==10
 406:	69 61       	addc.b	@r1,	r9	
 408:	6c 5f       	add.b	@r15,	r12	
 40a:	75 73       	subc.b	#-1,	r5	;r3 As==11
 40c:	63 69       	.word	0x6963;	????	Illegal as 2-op instr
 40e:	5f 6d 73 70 	addc.b	28787(r13),r15	;0x7073(r13)
 412:	34 33       	jn	$-406    	;abs 0x27c
 414:	30 2e       	jc	$-926    	;abs 0x76
 416:	63 00       	.word	0x0063;	????	
 418:	5f 5f 55 43 	add.b	17237(r15),r15	;0x4355(r15)
 41c:	41 30       	jn	$+132    	;abs 0x4a0
 41e:	52 58 42 55 	add.b	21826(r8),r2	;0x5542(r8)
 422:	46 00       	.word	0x0046;	????	
 424:	5f 5f 55 43 	add.b	17237(r15),r15	;0x4355(r15)
 428:	41 30       	jn	$+132    	;abs 0x4ac
 42a:	43 54       	.word	0x5443;	????	Illegal as 2-op instr
 42c:	4c 31       	jn	$+666    	;abs 0x6c6
 42e:	00 2f       	jc	$-510    	;abs 0x230
 430:	55 73       	subc.b	#1,	r5	;r3 As==01
 432:	65 72       	subc.b	#4,	r5	;r2 As==10
 434:	73 2f       	jc	$-280    	;abs 0x31c
 436:	6f 6c       	addc.b	@r12,	r15	
 438:	69 76       	subc.b	@r6,	r9	
 43a:	65 72       	subc.b	#4,	r5	;r2 As==10
 43c:	73 61       	.word	0x6173;	????	Illegal as 2-op instr
 43e:	6e 63       	addc.b	#2,	r14	;r3 As==10
 440:	68 65       	addc.b	@r5,	r8	
 442:	7a 2f       	jc	$-266    	;abs 0x338
 444:	44 6f       	addc.b	r15,	r4	
 446:	77 6e       	addc.b	@r14+,	r7	
 448:	6c 6f       	addc.b	@r15,	r12	
 44a:	61 64       	addc.b	@r4,	r1	
 44c:	73 2f       	jc	$-280    	;abs 0x334
 44e:	6c 69       	addc.b	@r9,	r12	
 450:	62 65       	addc.b	@r5,	r2	
 452:	6d 62       	addc.b	#4,	r13	;r2 As==10
 454:	2d 6d       	addc	@r13,	r13	
 456:	61 73       	subc.b	#2,	r1	;r3 As==10
 458:	74 65       	addc.b	@r5+,	r4	
 45a:	72 2f       	jc	$-282    	;abs 0x340
 45c:	6c 69       	addc.b	@r9,	r12	
 45e:	62 73       	subc.b	#2,	r2	;r3 As==10
 460:	65 72       	subc.b	#4,	r5	;r2 As==10
 462:	69 61       	addc.b	@r1,	r9	
 464:	6c 2f       	jc	$-294    	;abs 0x33e
 466:	73 72       	.word	0x7273;	????	Illegal as 2-op instr
 468:	63 00       	.word	0x0063;	????	
 46a:	73 65       	.word	0x6573;	????	Illegal as 2-op instr
 46c:	72 69       	addc.b	@r9+,	r2	
 46e:	61 6c       	addc.b	@r12,	r1	
 470:	5f 73       	subc.b	#1,	r15	;r3 As==01
 472:	65 6e       	addc.b	@r14,	r5	
 474:	64 00       	.word	0x0064;	????	
 476:	5f 5f 50 31 	add.b	12624(r15),r15	;0x3150(r15)
 47a:	53 45       	.word	0x4553;	????	Illegal as 2-op instr
 47c:	4c 32       	jn	$-870    	;abs 0x116
 47e:	00 5f       	add	r15,	r0	
 480:	5f 50 31 53 	add.b	21297(r0),r15	;PC rel. 0x57b3
 484:	45 4c       	mov.b	r12,	r5	
 486:	00 64       	addc	r4,	r0	
 488:	61 74       	subc.b	@r4,	r1	
 48a:	61 00       	.word	0x0061;	????	
 48c:	62 61       	addc.b	@r1,	r2	
 48e:	75 64       	addc.b	@r4+,	r5	
 490:	72 61       	addc.b	@r1+,	r2	
 492:	74 65       	addc.b	@r5+,	r4	
 494:	00 73       	sbc	r0		
 496:	65 72       	subc.b	#4,	r5	;r2 As==10
 498:	69 61       	addc.b	@r1,	r9	
 49a:	6c 5f       	add.b	@r15,	r12	
 49c:	63 6c       	.word	0x6c63;	????	Illegal as 2-op instr
 49e:	6b 5f       	add.b	@r15,	r11	
 4a0:	69 6e       	addc.b	@r14,	r9	
 4a2:	69 74       	subc.b	@r4,	r9	
 4a4:	00 5f       	add	r15,	r0	
 4a6:	5f 55 43 41 	add.b	16707(r5),r15	;0x4143(r5)
 4aa:	30 54       	add	@r4+,	r0	
 4ac:	58 42 55 46 	mov.b	&0x4655,r8	
 4b0:	00 73       	sbc	r0		
 4b2:	65 72       	subc.b	#4,	r5	;r2 As==10
 4b4:	69 61       	addc.b	@r1,	r9	
 4b6:	6c 5f       	add.b	@r15,	r12	
 4b8:	72 65       	addc.b	@r5+,	r2	
 4ba:	63 76       	.word	0x7663;	????	Illegal as 2-op instr
 4bc:	5f 62 6c 6f 	addc.b	&0x6f6c,r15	
 4c0:	63 6b       	.word	0x6b63;	????	Illegal as 2-op instr
 4c2:	69 6e       	addc.b	@r14,	r9	
 4c4:	67 00       	.word	0x0067;	????	
 4c6:	73 65       	.word	0x6573;	????	Illegal as 2-op instr
 4c8:	72 69       	addc.b	@r9+,	r2	
 4ca:	61 6c       	addc.b	@r12,	r1	
 4cc:	5f 69 6e 69 	addc.b	26990(r9),r15	;0x696e(r9)
 4d0:	74 00       	.word	0x0074;	????	
 4d2:	5f 5f 55 43 	add.b	17237(r15),r15	;0x4355(r15)
 4d6:	41 30       	jn	$+132    	;abs 0x55a
 4d8:	4d 43       	clr.b	r13		
 4da:	54 4c 00 73 	mov.b	29440(r12),r4	;0x7300(r12)
 4de:	65 72       	subc.b	#4,	r5	;r2 As==10
 4e0:	69 61       	addc.b	@r1,	r9	
 4e2:	6c 5f       	add.b	@r15,	r12	
 4e4:	73 65       	.word	0x6573;	????	Illegal as 2-op instr
 4e6:	6e 64       	addc.b	@r4,	r14	
 4e8:	5f 62 6c 6f 	addc.b	&0x6f6c,r15	
 4ec:	63 6b       	.word	0x6b63;	????	Illegal as 2-op instr
 4ee:	69 6e       	addc.b	@r14,	r9	
 4f0:	67 00       	.word	0x0067;	????	
 4f2:	5f 5f 49 46 	add.b	17993(r15),r15	;0x4649(r15)
 4f6:	47 32       	jn	$-880    	;abs 0x186
 4f8:	00 5f       	add	r15,	r0	
 4fa:	5f 55 43 41 	add.b	16707(r5),r15	;0x4143(r5)
 4fe:	30 42       	br	#8		;r2 As==11
 500:	52 30       	jn	$+166    	;abs 0x5a6
 502:	00 5f       	add	r15,	r0	
 504:	5f 55 43 41 	add.b	16707(r5),r15	;0x4143(r5)
 508:	30 42       	br	#8		;r2 As==11
 50a:	52 31       	jn	$+678    	;abs 0x7b0
 50c:	00 73       	sbc	r0		
 50e:	69 7a       	subc.b	@r10,	r9	
 510:	65 5f       	add.b	@r15,	r5	
 512:	74 00       	.word	0x0074;	????	
 514:	73 74       	.word	0x7473;	????	Illegal as 2-op instr
 516:	72 6e       	addc.b	@r14+,	r2	
 518:	63 70       	.word	0x7063;	????	Illegal as 2-op instr
 51a:	79 00       	.word	0x0079;	????	
 51c:	2f 55       	add	@r5,	r15	
 51e:	73 65       	.word	0x6573;	????	Illegal as 2-op instr
 520:	72 73       	subc.b	#-1,	r2	;r3 As==11
 522:	2f 72       	subc	#4,	r15	;r2 As==10
 524:	77 65       	addc.b	@r5+,	r7	
 526:	73 73       	.word	0x7373;	????	Illegal as 2-op instr
 528:	65 6c       	addc.b	@r12,	r5	
 52a:	73 2f       	jc	$-280    	;abs 0x412
 52c:	6d 73       	subc.b	#2,	r13	;r3 As==10
 52e:	70 67       	addc.b	@r7+,	r0	
 530:	63 63       	.word	0x6363;	????	Illegal as 2-op instr
 532:	2f 6d       	addc	@r13,	r15	
 534:	73 70       	.word	0x7073;	????	Illegal as 2-op instr
 536:	34 33       	jn	$-406    	;abs 0x3a0
 538:	30 2d       	jc	$+610    	;abs 0x79a
 53a:	6c 69       	addc.b	@r9,	r12	
 53c:	62 63       	addc.b	#2,	r2	;r3 As==10
 53e:	2d 32       	jn	$-932    	;abs 0x19a
 540:	30 31       	jn	$+610    	;abs 0x7a2
 542:	32 30       	jn	$+102    	;abs 0x5a8
 544:	32 32       	jn	$-922    	;abs 0x1aa
 546:	34 2f       	jc	$-406    	;abs 0x3b0
 548:	73 72       	.word	0x7273;	????	Illegal as 2-op instr
 54a:	63 00       	.word	0x0063;	????	
 54c:	2e 2f       	jc	$-418    	;abs 0x3aa
 54e:	73 74       	.word	0x7473;	????	Illegal as 2-op instr
 550:	72 69       	addc.b	@r9+,	r2	
 552:	6e 67       	addc.b	@r7,	r14	
 554:	2f 73       	subc	#2,	r15	;r3 As==10
 556:	74 72       	subc.b	#8,	r4	;r2 As==11
 558:	6e 63       	addc.b	#2,	r14	;r3 As==10
 55a:	70 79       	subc.b	@r9+,	r0	
 55c:	2e 63       	addc	#2,	r14	;r3 As==10
 55e:	00 64       	addc	r4,	r0	
 560:	73 74       	.word	0x7473;	????	Illegal as 2-op instr
 562:	30 00       	.word	0x0030;	????	
 564:	75 5f       	add.b	@r15+,	r5	
 566:	63 68       	.word	0x6863;	????	Illegal as 2-op instr
 568:	61 72       	subc.b	#4,	r1	;r2 As==10
 56a:	00 6d       	addc	r13,	r0	
 56c:	65 6d       	addc.b	@r13,	r5	
 56e:	73 65       	.word	0x6573;	????	Illegal as 2-op instr
 570:	74 00       	.word	0x0074;	????	
 572:	2e 2f       	jc	$-418    	;abs 0x3d0
 574:	73 74       	.word	0x7473;	????	Illegal as 2-op instr
 576:	72 69       	addc.b	@r9+,	r2	
 578:	6e 67       	addc.b	@r7,	r14	
 57a:	2f 6d       	addc	@r13,	r15	
 57c:	65 6d       	addc.b	@r13,	r5	
 57e:	73 65       	.word	0x6573;	????	Illegal as 2-op instr
 580:	74 2e       	jc	$-790    	;abs 0x26a
 582:	63 00       	.word	0x0063;	????	
 584:	75 5f       	add.b	@r15+,	r5	
 586:	69 6e       	addc.b	@r14,	r9	
 588:	74 00       	.word	0x0074;	????	
 58a:	6c 65       	addc.b	@r5,	r12	
 58c:	6e 67       	addc.b	@r7,	r14	
 58e:	74 68       	addc.b	@r8+,	r4	
 590:	00 78       	subc	r8,	r0	
 592:	73 69       	.word	0x6973;	????	Illegal as 2-op instr
 594:	7a 65       	addc.b	@r5+,	r10	
 596:	00 5f       	add	r15,	r0	
 598:	5f 6e 6f 69 	addc.b	26991(r14),r15	;0x696f(r14)
 59c:	6e 69       	addc.b	@r9,	r14	
 59e:	74 5f       	add.b	@r15+,	r4	
 5a0:	65 6e       	addc.b	@r14,	r5	
 5a2:	64 00       	.word	0x0064;	????	
 5a4:	6f 6e       	addc.b	@r14,	r15	
 5a6:	63 65       	.word	0x6563;	????	Illegal as 2-op instr
 5a8:	00 68       	addc	r8,	r0	
 5aa:	65 61       	addc.b	@r1,	r5	
 5ac:	70 5f       	add.b	@r15+,	r0	
 5ae:	62 6f       	addc.b	@r15,	r2	
 5b0:	74 74       	subc.b	@r4+,	r4	
 5b2:	6f 6d       	addc.b	@r13,	r15	
 5b4:	00 68       	addc	r8,	r0	
 5b6:	65 61       	addc.b	@r1,	r5	
 5b8:	70 5f       	add.b	@r15+,	r0	
 5ba:	74 6f       	addc.b	@r15+,	r4	
 5bc:	70 00       	.word	0x0070;	????	
 5be:	68 65       	addc.b	@r5,	r8	
 5c0:	61 70       	subc.b	@r0,	r1	
 5c2:	5f 6e 65 78 	addc.b	30821(r14),r15	;0x7865(r14)
 5c6:	74 00       	.word	0x0074;	????	
 5c8:	66 72       	subc.b	#4,	r6	;r2 As==10
 5ca:	65 65       	addc.b	@r5,	r5	
 5cc:	00 2e       	jc	$-1022   	;abs 0x1ce
 5ce:	2f 73       	subc	#2,	r15	;r3 As==10
 5d0:	74 64       	addc.b	@r4+,	r4	
 5d2:	6c 69       	addc.b	@r9,	r12	
 5d4:	62 2f       	jc	$-314    	;abs 0x49a
 5d6:	6d 61       	addc.b	@r1,	r13	
 5d8:	6c 6c       	addc.b	@r12,	r12	
 5da:	6f 63       	addc.b	#2,	r15	;r3 As==10
 5dc:	2e 63       	addc	#2,	r14	;r3 As==10
 5de:	00 6d       	addc	r13,	r0	
 5e0:	61 6c       	addc.b	@r12,	r1	
 5e2:	6c 6f       	addc.b	@r15,	r12	
 5e4:	63 00       	.word	0x0063;	????	
 5e6:	73 69       	.word	0x6973;	????	Illegal as 2-op instr
 5e8:	67 6e       	addc.b	@r14,	r7	
 5ea:	00 61       	addc	r1,	r0	
 5ec:	74 6f       	addc.b	@r15+,	r4	
 5ee:	69 00       	.word	0x0069;	????	
 5f0:	2e 2f       	jc	$-418    	;abs 0x44e
 5f2:	73 74       	.word	0x7473;	????	Illegal as 2-op instr
 5f4:	64 6c       	addc.b	@r12,	r4	
 5f6:	69 62       	addc.b	#4,	r9	;r2 As==10
 5f8:	2f 61       	addc	@r1,	r15	
 5fa:	74 6f       	addc.b	@r15+,	r4	
 5fc:	69 2e       	jc	$-812    	;abs 0x2d0
 5fe:	63 00       	.word	0x0063;	????	

Disassembly of section .debug_loc:

00000000 <.debug_loc>:
   0:	28 c1       	bic	@r1,	r8	
   2:	2a c1       	bic	@r1,	r10	
   4:	02 00       	.word	0x0002;	????	
   6:	71 02       	.word	0x0271;	????	
   8:	2a c1       	bic	@r1,	r10	
   a:	2c c1       	bic	@r1,	r12	
   c:	02 00       	.word	0x0002;	????	
   e:	71 04       	.word	0x0471;	????	
  10:	2c c1       	bic	@r1,	r12	
  12:	44 c1       	bic.b	r1,	r4	
  14:	02 00       	.word	0x0002;	????	
  16:	71 06       	.word	0x0671;	????	
  18:	44 c1       	bic.b	r1,	r4	
  1a:	48 c1       	bic.b	r1,	r8	
  1c:	02 00       	.word	0x0002;	????	
  1e:	71 08       	.word	0x0871;	????	
  20:	48 c1       	bic.b	r1,	r8	
  22:	4a c1       	bic.b	r1,	r10	
  24:	02 00       	.word	0x0002;	????	
  26:	71 0a       	.word	0x0a71;	????	
  28:	4a c1       	bic.b	r1,	r10	
  2a:	4e c1       	bic.b	r1,	r14	
  2c:	02 00       	.word	0x0002;	????	
  2e:	71 0c       	.word	0x0c71;	????	
  30:	4e c1       	bic.b	r1,	r14	
  32:	54 c1 02 00 	bic.b	2(r1),	r4	;0x0002(r1)
  36:	71 0e       	.word	0x0e71;	????	
  38:	54 c1 68 c1 	bic.b	-16024(r1),r4	;0xc168(r1)
  3c:	02 00       	.word	0x0002;	????	
  3e:	71 06       	.word	0x0671;	????	
  40:	68 c1       	bic.b	@r1,	r8	
  42:	6e c1       	bic.b	@r1,	r14	
  44:	02 00       	.word	0x0002;	????	
  46:	71 08       	.word	0x0871;	????	
  48:	6e c1       	bic.b	@r1,	r14	
  4a:	76 c1       	bic.b	@r1+,	r6	
  4c:	02 00       	.word	0x0002;	????	
  4e:	71 06       	.word	0x0671;	????	
  50:	00 00       	.word	0x0000;	????	
  52:	00 00       	.word	0x0000;	????	
  54:	28 c1       	bic	@r1,	r8	
  56:	3e c1       	bic	@r1+,	r14	
  58:	01 00       	.word	0x0001;	????	
  5a:	5f 64 c1 6b 	addc.b	27585(r4),r15	;0x6bc1(r4)
  5e:	c1 01       	.word	0x01c1;	????	
  60:	00 5f       	add	r15,	r0	
  62:	00 00       	.word	0x0000;	????	
  64:	00 00       	.word	0x0000;	????	
  66:	36 c1       	bic	@r1+,	r6	
  68:	60 c1       	bic.b	@r1,	r0	
  6a:	01 00       	.word	0x0001;	????	
  6c:	5a 00       	.word	0x005a;	????	
  6e:	00 00       	.word	0x0000;	????	
  70:	00 76       	subc	r6,	r0	
  72:	c1 78 c1 02 	subc.b	r8,	705(r1)	;0x02c1(r1)
  76:	00 71       	subc	r1,	r0	
  78:	02 78       	subc	r8,	r2	
  7a:	c1 7a c1 02 	subc.b	r10,	705(r1)	;0x02c1(r1)
  7e:	00 71       	subc	r1,	r0	
  80:	04 7a       	subc	r10,	r4	
  82:	c1 9c c1 02 	cmp.b	r12,	705(r1)	;0x02c1(r1)
  86:	00 71       	subc	r1,	r0	
  88:	06 9c       	cmp	r12,	r6	
  8a:	c1 a0 c1 02 	dadd.b	r0,	705(r1)	;0x02c1(r1)
  8e:	00 71       	subc	r1,	r0	
  90:	08 a0       	dadd	r0,	r8	
  92:	c1 a6 c1 02 	dadd.b	r6,	705(r1)	;0x02c1(r1)
  96:	00 71       	subc	r1,	r0	
  98:	0a a6       	dadd	r6,	r10	
  9a:	c1 b6 c1 02 	bit.b	r6,	705(r1)	;0x02c1(r1)
  9e:	00 71       	subc	r1,	r0	
  a0:	06 00       	.word	0x0006;	????	
  a2:	00 00       	.word	0x0000;	????	
  a4:	00 76       	subc	r6,	r0	
  a6:	c1 80 c1 01 	sub.b	r0,	449(r1)	;0x01c1(r1)
  aa:	00 5f       	add	r15,	r0	
  ac:	80 c1 b2 c1 	bic	r1,	-15950(r0);PC rel. 0xc260
  b0:	01 00       	.word	0x0001;	????	
  b2:	5a 00       	.word	0x005a;	????	
  b4:	00 00       	.word	0x0000;	????	
  b6:	00 84       	sub	r4,	r0	
  b8:	c1 8c c1 02 	sub.b	r12,	705(r1)	;0x02c1(r1)
  bc:	00 30       	jn	$+2      	;abs 0xbe
  be:	9f a8 c1 ae 	dadd	-20799(r8),449(r15);0xaec1(r8), 0x01c1(r15)
  c2:	c1 01 
  c4:	00 5b       	add	r11,	r0	
  c6:	00 00       	.word	0x0000;	????	
  c8:	00 00       	.word	0x0000;	????	
  ca:	b6 c1 b8 c1 	bic	@r1+,	-15944(r6);0xc1b8(r6)
  ce:	02 00       	.word	0x0002;	????	
  d0:	71 02       	.word	0x0271;	????	
  d2:	b8 c1 ba c1 	bic	@r1+,	-15942(r8);0xc1ba(r8)
  d6:	02 00       	.word	0x0002;	????	
  d8:	71 04       	.word	0x0471;	????	
  da:	ba c1 c8 c1 	bic	@r1+,	-15928(r10);0xc1c8(r10)
  de:	02 00       	.word	0x0002;	????	
  e0:	71 06       	.word	0x0671;	????	
  e2:	c8 c1 cc c1 	bic.b	r1,	-15924(r8);0xc1cc(r8)
  e6:	02 00       	.word	0x0002;	????	
  e8:	71 08       	.word	0x0871;	????	
  ea:	cc c1 d0 c1 	bic.b	r1,	-15920(r12);0xc1d0(r12)
  ee:	02 00       	.word	0x0002;	????	
  f0:	71 0a       	.word	0x0a71;	????	
  f2:	d0 c1 d8 c1 	bic.b	-15912(r1),2(r0)	;0xc1d8(r1), PC rel. 0x00f8
  f6:	02 00 
  f8:	71 0c       	.word	0x0c71;	????	
  fa:	d8 c1 ee c1 	bic.b	-15890(r1),2(r8)	;0xc1ee(r1), 0x0002(r8)
  fe:	02 00 
 100:	71 06       	.word	0x0671;	????	
 102:	00 00       	.word	0x0000;	????	
 104:	00 00       	.word	0x0000;	????	
 106:	b6 c1 c6 c1 	bic	@r1+,	-15930(r6);0xc1c6(r6)
 10a:	01 00       	.word	0x0001;	????	
 10c:	5f 00       	.word	0x005f;	????	
 10e:	00 00       	.word	0x0000;	????	
 110:	00 ba       	bit	r10,	r0	
 112:	c1 c6 c1 02 	bic.b	r6,	705(r1)	;0x02c1(r1)
 116:	00 30       	jn	$+2      	;abs 0x118
 118:	9f da c1 e6 	bis	-6463(r10),449(r15);0xe6c1(r10), 0x01c1(r15)
 11c:	c1 01 
 11e:	00 5a       	add	r10,	r0	
 120:	00 00       	.word	0x0000;	????	
 122:	00 00       	.word	0x0000;	????	
 124:	ee c1 2a c2 	bic.b	@r1,	-15830(r14);0xc22a(r14)
 128:	02 00       	.word	0x0002;	????	
 12a:	71 02       	.word	0x0271;	????	
 12c:	2a c2       	bic	#4,	r10	;r2 As==10
 12e:	30 c2       	bic	#8,	r0	;r2 As==11
 130:	02 00       	.word	0x0002;	????	
 132:	71 04       	.word	0x0471;	????	
 134:	30 c2       	bic	#8,	r0	;r2 As==11
 136:	88 c2 02 00 	bic	r2,	2(r8)	;0x0002(r8)
 13a:	71 02       	.word	0x0271;	????	
 13c:	00 00       	.word	0x0000;	????	
 13e:	00 00       	.word	0x0000;	????	
 140:	ee c1 f2 c1 	bic.b	@r1,	-15886(r14);0xc1f2(r14)
 144:	01 00       	.word	0x0001;	????	
 146:	5f 00       	.word	0x005f;	????	
 148:	00 00       	.word	0x0000;	????	
 14a:	00 88       	sub	r8,	r0	
 14c:	c2 8a c2 02 	sub.b	r10,	&0x02c2	
 150:	00 71       	subc	r1,	r0	
 152:	02 8a       	sub	r10,	r2	
 154:	c2 8c c2 02 	sub.b	r12,	&0x02c2	
 158:	00 71       	subc	r1,	r0	
 15a:	04 8c       	sub	r12,	r4	
 15c:	c2 be c2 02 	bit.b	r14,	&0x02c2	
 160:	00 71       	subc	r1,	r0	
 162:	06 be       	bit	r14,	r6	
 164:	c2 ca c2 02 	bic.b	r10,	&0x02c2	
 168:	00 71       	subc	r1,	r0	
 16a:	08 ca       	bic	r10,	r8	
 16c:	c2 cc c2 02 	bic.b	r12,	&0x02c2	
 170:	00 71       	subc	r1,	r0	
 172:	0a cc       	bic	r12,	r10	
 174:	c2 d0 c2 02 	bis.b	r0,	&0x02c2	
 178:	00 71       	subc	r1,	r0	
 17a:	0c d0       	bis	r0,	r12	
 17c:	c2 d6 c2 02 	bis.b	r6,	&0x02c2	
 180:	00 71       	subc	r1,	r0	
 182:	0e d6       	bis	r6,	r14	
 184:	c2 f6 c2 02 	and.b	r6,	&0x02c2	
 188:	00 71       	subc	r1,	r0	
 18a:	06 f6       	and	r6,	r6	
 18c:	c2 fc c2 02 	and.b	r12,	&0x02c2	
 190:	00 71       	subc	r1,	r0	
 192:	08 fc       	and	r12,	r8	
 194:	c2 20       	jnz	$+390    	;abs 0x31a
 196:	c3 02       	.word	0x02c3;	????	
 198:	00 71       	subc	r1,	r0	
 19a:	06 20       	jnz	$+14     	;abs 0x1a8
 19c:	c3 2c       	jc	$+392    	;abs 0x324
 19e:	c3 02       	.word	0x02c3;	????	
 1a0:	00 71       	subc	r1,	r0	
 1a2:	08 2c       	jc	$+18     	;abs 0x1b4
 1a4:	c3 2e       	jc	$-632    	;abs 0xff2c
 1a6:	c3 02       	.word	0x02c3;	????	
 1a8:	00 71       	subc	r1,	r0	
 1aa:	0a 2e       	jc	$-1002   	;abs 0xfdc0
 1ac:	c3 32       	jn	$-632    	;abs 0xff34
 1ae:	c3 02       	.word	0x02c3;	????	
 1b0:	00 71       	subc	r1,	r0	
 1b2:	0c 32       	jn	$-998    	;abs 0xfdcc
 1b4:	c3 38       	jl	$+392    	;abs 0x33c
 1b6:	c3 02       	.word	0x02c3;	????	
 1b8:	00 71       	subc	r1,	r0	
 1ba:	0e 38       	jl	$+30     	;abs 0x1d8
 1bc:	c3 76       	subc.b	r6,	#1	;r3 As==01
 1be:	c3 02       	.word	0x02c3;	????	
 1c0:	00 71       	subc	r1,	r0	
 1c2:	06 76       	subc	r6,	r6	
 1c4:	c3 82       	sub.b	r2,	#1	;r3 As==01
 1c6:	c3 02       	.word	0x02c3;	????	
 1c8:	00 71       	subc	r1,	r0	
 1ca:	08 82       	sub	r2,	r8	
 1cc:	c3 84       	sub.b	r4,	#1	;r3 As==01
 1ce:	c3 02       	.word	0x02c3;	????	
 1d0:	00 71       	subc	r1,	r0	
 1d2:	0a 84       	sub	r4,	r10	
 1d4:	c3 88       	sub.b	r8,	#1	;r3 As==01
 1d6:	c3 02       	.word	0x02c3;	????	
 1d8:	00 71       	subc	r1,	r0	
 1da:	0c 88       	sub	r8,	r12	
 1dc:	c3 8e       	sub.b	r14,	#1	;r3 As==01
 1de:	c3 02       	.word	0x02c3;	????	
 1e0:	00 71       	subc	r1,	r0	
 1e2:	0e 8e       	sub	r14,	r14	
 1e4:	c3 b0       	bit.b	r0,	#1	;r3 As==01
 1e6:	c3 02       	.word	0x02c3;	????	
 1e8:	00 71       	subc	r1,	r0	
 1ea:	06 00       	.word	0x0006;	????	
 1ec:	00 00       	.word	0x0000;	????	
 1ee:	00 88       	sub	r8,	r0	
 1f0:	c2 90 c2 01 	cmp.b	r0,	&0x01c2	
 1f4:	00 5f       	add	r15,	r0	
 1f6:	00 00       	.word	0x0000;	????	
 1f8:	00 00       	.word	0x0000;	????	
 1fa:	a6 c2 ae c2 	bic	#4,	-15698(r6);r2 As==10, 0xc2ae(r6)
 1fe:	06 00       	.word	0x0006;	????	
 200:	7f 00       	.word	0x007f;	????	
 202:	03 84       	.word	0x8403;	????	Illegal as 2-op instr
 204:	02 22       	jnz	$-1018   	;abs 0xfe0a
 206:	ae c2 ea c2 	bic	#4,	-15638(r14);r2 As==10, 0xc2ea(r14)
 20a:	01 00       	.word	0x0001;	????	
 20c:	5b 00       	.word	0x005b;	????	
 20e:	00 00       	.word	0x0000;	????	
 210:	00 b4       	bit	r4,	r0	
 212:	c2 bb c2 01 	bit.b	r11,	&0x01c2	
 216:	00 5f       	add	r15,	r0	
 218:	bb c2 ea c2 	bic	#8,	-15638(r11);r2 As==11, 0xc2ea(r11)
 21c:	01 00       	.word	0x0001;	????	
 21e:	5a 00       	.word	0x005a;	????	
 220:	00 00       	.word	0x0000;	????	
 222:	00 b4       	bit	r4,	r0	
 224:	c2 bb c2 0a 	bit.b	r11,	&0x0ac2	
 228:	00 7f       	subc	r15,	r0	
 22a:	00 08       	.word	0x0800;	????	
 22c:	64 14       	.word	0x1464;	????	
 22e:	14 1b       	.word	0x1b14;	????	
 230:	1e 1c       	.word	0x1c1e;	????	
 232:	9f bb c2 ea 	bit	-5438(r11),2754(r15);0xeac2(r11), 0x0ac2(r15)
 236:	c2 0a 
 238:	00 7a       	subc	r10,	r0	
 23a:	00 08       	.word	0x0800;	????	
 23c:	64 14       	.word	0x1464;	????	
 23e:	14 1b       	.word	0x1b14;	????	
 240:	1e 1c       	.word	0x1c1e;	????	
 242:	9f 00       	.word	0x009f;	????	
 244:	00 00       	.word	0x0000;	????	
 246:	00 08       	.word	0x0800;	????	
 248:	c3 13       	.word	0x13c3;	????	
 24a:	c3 03       	.word	0x03c3;	????	
 24c:	00 03       	.word	0x0300;	????	
 24e:	84 02       	.word	0x0284;	????	
 250:	13 c3       	.word	0xc313;	????	Illegal as 2-op instr
 252:	58 c3       	bic.b	#1,	r8	;r3 As==01
 254:	01 00       	.word	0x0001;	????	
 256:	5b 00       	.word	0x005b;	????	
 258:	00 00       	.word	0x0000;	????	
 25a:	00 16       	.word	0x1600;	????	
 25c:	c3 1d       	.word	0x1dc3;	????	
 25e:	c3 01       	.word	0x01c3;	????	
 260:	00 5f       	add	r15,	r0	
 262:	1d c3       	bic	#1,	r13	;r3 As==01
 264:	56 c3       	bic.b	#1,	r6	;r3 As==01
 266:	01 00       	.word	0x0001;	????	
 268:	5a 00       	.word	0x005a;	????	
 26a:	00 00       	.word	0x0000;	????	
 26c:	00 16       	.word	0x1600;	????	
 26e:	c3 1d       	.word	0x1dc3;	????	
 270:	c3 0a       	.word	0x0ac3;	????	
 272:	00 7f       	subc	r15,	r0	
 274:	00 08       	.word	0x0800;	????	
 276:	64 14       	.word	0x1464;	????	
 278:	14 1b       	.word	0x1b14;	????	
 27a:	1e 1c       	.word	0x1c1e;	????	
 27c:	9f 1d       	.word	0x1d9f;	????	
 27e:	c3 56       	add.b	r6,	#1	;r3 As==01
 280:	c3 0a       	.word	0x0ac3;	????	
 282:	00 7a       	subc	r10,	r0	
 284:	00 08       	.word	0x0800;	????	
 286:	64 14       	.word	0x1464;	????	
 288:	14 1b       	.word	0x1b14;	????	
 28a:	1e 1c       	.word	0x1c1e;	????	
 28c:	9f 00       	.word	0x009f;	????	
 28e:	00 00       	.word	0x0000;	????	
 290:	00 5e       	add	r14,	r0	
 292:	c3 69       	addc.b	r9,	#1	;r3 As==01
 294:	c3 03       	.word	0x03c3;	????	
 296:	00 03       	.word	0x0300;	????	
 298:	8c 02       	.word	0x028c;	????	
 29a:	69 c3       	bic.b	#2,	r9	;r3 As==10
 29c:	b0 c3 01 00 	bic	#-1,	1(r0)	;r3 As==11, PC rel. 0x029f
 2a0:	5b 00       	.word	0x005b;	????	
 2a2:	00 00       	.word	0x0000;	????	
 2a4:	00 6c       	addc	r12,	r0	
 2a6:	c3 73       	sbc.b	#1		;r3 As==01
 2a8:	c3 01       	.word	0x01c3;	????	
 2aa:	00 5f       	add	r15,	r0	
 2ac:	73 c3       	.word	0xc373;	????	Illegal as 2-op instr
 2ae:	b0 c3 01 00 	bic	#-1,	1(r0)	;r3 As==11, PC rel. 0x02b1
 2b2:	5a 00       	.word	0x005a;	????	
 2b4:	00 00       	.word	0x0000;	????	
 2b6:	00 6c       	addc	r12,	r0	
 2b8:	c3 73       	sbc.b	#1		;r3 As==01
 2ba:	c3 0a       	.word	0x0ac3;	????	
 2bc:	00 7f       	subc	r15,	r0	
 2be:	00 08       	.word	0x0800;	????	
 2c0:	64 14       	.word	0x1464;	????	
 2c2:	14 1b       	.word	0x1b14;	????	
 2c4:	1e 1c       	.word	0x1c1e;	????	
 2c6:	9f 73 c3 b0 	subc	#1,	-20285(r15);r3 As==01, 0xb0c3(r15)
 2ca:	c3 0a       	.word	0x0ac3;	????	
 2cc:	00 7a       	subc	r10,	r0	
 2ce:	00 08       	.word	0x0800;	????	
 2d0:	64 14       	.word	0x1464;	????	
 2d2:	14 1b       	.word	0x1b14;	????	
 2d4:	1e 1c       	.word	0x1c1e;	????	
 2d6:	9f 00       	.word	0x009f;	????	
 2d8:	00 00       	.word	0x0000;	????	
 2da:	00 b0       	bit	r0,	r0	
 2dc:	c3 b2       	bit.b	r2,	#1	;r3 As==01
 2de:	c3 02       	.word	0x02c3;	????	
 2e0:	00 71       	subc	r1,	r0	
 2e2:	02 b2       	bit	r2,	r2	
 2e4:	c3 b4       	bit.b	r4,	#1	;r3 As==01
 2e6:	c3 02       	.word	0x02c3;	????	
 2e8:	00 71       	subc	r1,	r0	
 2ea:	04 b4       	bit	r4,	r4	
 2ec:	c3 b6       	bit.b	r6,	#1	;r3 As==01
 2ee:	c3 02       	.word	0x02c3;	????	
 2f0:	00 71       	subc	r1,	r0	
 2f2:	06 b6       	bit	r6,	r6	
 2f4:	c3 c6       	bic.b	r6,	#1	;r3 As==01
 2f6:	c3 02       	.word	0x02c3;	????	
 2f8:	00 71       	subc	r1,	r0	
 2fa:	08 c6       	bic	r6,	r8	
 2fc:	c3 cc       	bic.b	r12,	#1	;r3 As==01
 2fe:	c3 02       	.word	0x02c3;	????	
 300:	00 71       	subc	r1,	r0	
 302:	0a cc       	bic	r12,	r10	
 304:	c3 c8       	bic.b	r8,	#1	;r3 As==01
 306:	c4 02       	.word	0x02c4;	????	
 308:	00 71       	subc	r1,	r0	
 30a:	08 00       	.word	0x0008;	????	
 30c:	00 00       	.word	0x0000;	????	
 30e:	00 b0       	bit	r0,	r0	
 310:	c3 c0       	bic.b	r0,	#1	;r3 As==01
 312:	c3 01       	.word	0x01c3;	????	
 314:	00 5f       	add	r15,	r0	
 316:	c0 c3 d2 c3 	bic.b	#0,	-15406(r0);r3 As==00, PC rel. 0xc6ea
 31a:	01 00       	.word	0x0001;	????	
 31c:	5a d6 c3 c8 	bis.b	-14141(r6),r10	;0xc8c3(r6)
 320:	c4 01       	.word	0x01c4;	????	
 322:	00 5a       	add	r10,	r0	
 324:	00 00       	.word	0x0000;	????	
 326:	00 00       	.word	0x0000;	????	
 328:	c8 c4 ce c4 	bic.b	r4,	-15154(r8);0xc4ce(r8)
 32c:	01 00       	.word	0x0001;	????	
 32e:	5f ce c4 d1 	bic.b	-11836(r14),r15	;0xd1c4(r14)
 332:	c4 01       	.word	0x01c4;	????	
 334:	00 5e       	add	r14,	r0	
 336:	00 00       	.word	0x0000;	????	
 338:	00 00       	.word	0x0000;	????	
 33a:	d4 c4 dc c4 	bic.b	-15140(r4),1(r4)	;0xc4dc(r4), 0x0001(r4)
 33e:	01 00 
 340:	5f 00       	.word	0x005f;	????	
 342:	00 00       	.word	0x0000;	????	
 344:	00 d4       	bis	r4,	r0	
 346:	c4 dc c4 08 	bis.b	r12,	2244(r4);0x08c4(r4)
 34a:	00 7f       	subc	r15,	r0	
 34c:	02 06       	.word	0x0602;	????	
 34e:	7f 04       	.word	0x047f;	????	
 350:	06 1e       	.word	0x1e06;	????	
 352:	9f dc c4 df 	bis	-8252(r12),1732(r15);0xdfc4(r12), 0x06c4(r15)
 356:	c4 06 
 358:	00 7f       	subc	r15,	r0	
 35a:	00 7e       	subc	r14,	r0	
 35c:	00 1e       	.word	0x1e00;	????	
 35e:	9f 00       	.word	0x009f;	????	
 360:	00 00       	.word	0x0000;	????	
 362:	00 d4       	bis	r4,	r0	
 364:	c4 dc c4 0f 	bis.b	r12,	4036(r4);0x0fc4(r4)
 368:	00 7f       	subc	r15,	r0	
 36a:	02 06       	.word	0x0602;	????	
 36c:	7f 04       	.word	0x047f;	????	
 36e:	06 1e       	.word	0x1e06;	????	
 370:	08 64       	addc	r4,	r8	
 372:	14 14       	.word	0x1414;	????	
 374:	1b 1e       	.word	0x1e1b;	????	
 376:	1c 9f dc c4 	cmp	-15140(r15),r12	;0xc4dc(r15)
 37a:	df c4 0d 00 	bic.b	13(r4),	127(r15);0x000d(r4), 0x007f(r15)
 37e:	7f 00 
 380:	7e 00       	.word	0x007e;	????	
 382:	1e 08       	.word	0x081e;	????	
 384:	64 14       	.word	0x1464;	????	
 386:	14 1b       	.word	0x1b14;	????	
 388:	1e 1c       	.word	0x1c1e;	????	
 38a:	9f 00       	.word	0x009f;	????	
 38c:	00 00       	.word	0x0000;	????	
 38e:	00 7c       	subc	r12,	r0	
 390:	c0 9e c0 02 	cmp.b	r14,	704(r0)	;PC rel. 0x0652
 394:	00 30       	jn	$+2      	;abs 0x396
 396:	9f a8 c0 c0 	dadd	-16192(r8),448(r15);0xc0c0(r8), 0x01c0(r15)
 39a:	c0 01 
 39c:	00 5b       	add	r11,	r0	
 39e:	c6 c0 d4 c0 	bic.b	r0,	-16172(r6);0xc0d4(r6)
 3a2:	01 00       	.word	0x0001;	????	
 3a4:	5b 00       	.word	0x005b;	????	
 3a6:	00 00       	.word	0x0000;	????	
 3a8:	00 96       	cmp	r6,	r0	
 3aa:	c0 af c0 01 	dadd.b	r15,	448(r0)	;PC rel. 0x056c
 3ae:	00 5f       	add	r15,	r0	
 3b0:	c0 c0 c9 c0 	bic.b	r0,	-16183(r0);PC rel. 0xc47b
 3b4:	01 00       	.word	0x0001;	????	
 3b6:	5f ce c0 d8 	bic.b	-10048(r14),r15	;0xd8c0(r14)
 3ba:	c0 01       	.word	0x01c0;	????	
 3bc:	00 5f       	add	r15,	r0	
 3be:	00 00       	.word	0x0000;	????	
 3c0:	00 00       	.word	0x0000;	????	
 3c2:	ea c4 ec c4 	bic.b	@r4,	-15124(r10);0xc4ec(r10)
 3c6:	02 00       	.word	0x0002;	????	
 3c8:	71 00       	.word	0x0071;	????	
 3ca:	ec c4 ee c4 	bic.b	@r4,	-15122(r12);0xc4ee(r12)
 3ce:	02 00       	.word	0x0002;	????	
 3d0:	71 02       	.word	0x0271;	????	
 3d2:	ee c4 f0 c4 	bic.b	@r4,	-15120(r14);0xc4f0(r14)
 3d6:	02 00       	.word	0x0002;	????	
 3d8:	71 04       	.word	0x0471;	????	
 3da:	f0 c4 2c c5 	bic.b	@r4+,	-15060(r0);PC rel. 0xc908
 3de:	02 00       	.word	0x0002;	????	
 3e0:	71 06       	.word	0x0671;	????	
 3e2:	00 00       	.word	0x0000;	????	
 3e4:	00 00       	.word	0x0000;	????	
 3e6:	00 c5       	bic	r5,	r0	
 3e8:	28 c5       	bic	@r5,	r8	
 3ea:	02 00       	.word	0x0002;	????	
 3ec:	7e 00       	.word	0x007e;	????	
 3ee:	00 00       	.word	0x0000;	????	
 3f0:	00 00       	.word	0x0000;	????	
 3f2:	00 00       	.word	0x0000;	????	
 3f4:	04 00       	.word	0x0004;	????	
 3f6:	01 00       	.word	0x0001;	????	
 3f8:	5f 04       	.word	0x045f;	????	
 3fa:	00 18       	.word	0x1800;	????	
 3fc:	00 01       	.word	0x0100;	????	
 3fe:	00 5e       	add	r14,	r0	
 400:	00 00       	.word	0x0000;	????	
 402:	00 00       	.word	0x0000;	????	
 404:	02 00       	.word	0x0002;	????	
 406:	06 00       	.word	0x0006;	????	
 408:	02 00       	.word	0x0002;	????	
 40a:	30 9f       	cmp	@r15+,	r0	
 40c:	06 00       	.word	0x0006;	????	
 40e:	08 00       	.word	0x0008;	????	
 410:	01 00       	.word	0x0001;	????	
 412:	5c 08       	.word	0x085c;	????	
 414:	00 0c       	.word	0x0c00;	????	
 416:	00 01       	.word	0x0100;	????	
 418:	00 5f       	add	r15,	r0	
 41a:	0c 00       	.word	0x000c;	????	
 41c:	18 00       	.word	0x0018;	????	
 41e:	01 00       	.word	0x0001;	????	
 420:	5c 00       	.word	0x005c;	????	
 422:	00 00       	.word	0x0000;	????	
 424:	00 18       	.word	0x1800;	????	
 426:	00 1a       	.word	0x1a00;	????	
 428:	00 02       	.word	0x0200;	????	
 42a:	00 71       	subc	r1,	r0	
 42c:	02 1a       	.word	0x1a02;	????	
 42e:	00 1c       	.word	0x1c00;	????	
 430:	00 02       	.word	0x0200;	????	
 432:	00 71       	subc	r1,	r0	
 434:	04 1c       	.word	0x1c04;	????	
 436:	00 1e       	.word	0x1e00;	????	
 438:	00 02       	.word	0x0200;	????	
 43a:	00 71       	subc	r1,	r0	
 43c:	06 1e       	.word	0x1e06;	????	
 43e:	00 5c       	add	r12,	r0	
 440:	00 02       	.word	0x0200;	????	
 442:	00 71       	subc	r1,	r0	
 444:	08 00       	.word	0x0008;	????	
 446:	00 00       	.word	0x0000;	????	
 448:	00 18       	.word	0x1800;	????	
 44a:	00 4c       	br	r12		
 44c:	00 01       	.word	0x0100;	????	
 44e:	00 5f       	add	r15,	r0	
 450:	4e 00       	.word	0x004e;	????	
 452:	50 00       	.word	0x0050;	????	
 454:	01 00       	.word	0x0001;	????	
 456:	5f 52 00 54 	add.b	&0x5400,r15	
 45a:	00 01       	.word	0x0100;	????	
 45c:	00 5f       	add	r15,	r0	
 45e:	00 00       	.word	0x0000;	????	
 460:	00 00       	.word	0x0000;	????	
 462:	26 00       	.word	0x0026;	????	
 464:	40 00       	.word	0x0040;	????	
 466:	01 00       	.word	0x0001;	????	
 468:	5b 00       	.word	0x005b;	????	
 46a:	00 00       	.word	0x0000;	????	
 46c:	00 5c       	add	r12,	r0	
 46e:	00 60       	rlc	r0		
 470:	00 01       	.word	0x0100;	????	
 472:	00 5f       	add	r15,	r0	
 474:	00 00       	.word	0x0000;	????	
 476:	00 00       	.word	0x0000;	????	
 478:	5c 00       	.word	0x005c;	????	
 47a:	60 00       	.word	0x0060;	????	
 47c:	02 00       	.word	0x0002;	????	
 47e:	30 9f       	cmp	@r15+,	r0	
 480:	60 00       	.word	0x0060;	????	
 482:	70 00       	.word	0x0070;	????	
 484:	01 00       	.word	0x0001;	????	
 486:	5d 82 00 8c 	sub.b	&0x8c00,r13	
 48a:	00 01       	.word	0x0100;	????	
 48c:	00 5d       	add	r13,	r0	
 48e:	00 00       	.word	0x0000;	????	
 490:	00 00       	.word	0x0000;	????	
 492:	5c 00       	.word	0x005c;	????	
 494:	60 00       	.word	0x0060;	????	
 496:	02 00       	.word	0x0002;	????	
 498:	30 9f       	cmp	@r15+,	r0	
 49a:	00 00       	.word	0x0000;	????	
 49c:	00 00       	.word	0x0000;	????	
 49e:	60 00       	.word	0x0060;	????	
 4a0:	82 00       	.word	0x0082;	????	
 4a2:	01 00       	.word	0x0001;	????	
 4a4:	5c 84 00 88 	sub.b	-30720(r4),r12	;0x8800(r4)
 4a8:	00 02       	.word	0x0200;	????	
 4aa:	00 7f       	subc	r15,	r0	
 4ac:	00 88       	sub	r8,	r0	
 4ae:	00 8c       	sub	r12,	r0	
 4b0:	00 01       	.word	0x0100;	????	
 4b2:	00 5c       	add	r12,	r0	
 4b4:	00 00       	.word	0x0000;	????	
 4b6:	00 00       	.word	0x0000;	????	
 4b8:	8c 00       	.word	0x008c;	????	
 4ba:	8e 00       	.word	0x008e;	????	
 4bc:	02 00       	.word	0x0002;	????	
 4be:	71 02       	.word	0x0271;	????	
 4c0:	8e 00       	.word	0x008e;	????	
 4c2:	90 00       	.word	0x0090;	????	
 4c4:	02 00       	.word	0x0002;	????	
 4c6:	71 04       	.word	0x0471;	????	
 4c8:	90 00       	.word	0x0090;	????	
 4ca:	92 00       	.word	0x0092;	????	
 4cc:	02 00       	.word	0x0002;	????	
 4ce:	71 06       	.word	0x0671;	????	
 4d0:	92 00       	.word	0x0092;	????	
 4d2:	94 00       	.word	0x0094;	????	
 4d4:	02 00       	.word	0x0002;	????	
 4d6:	71 08       	.word	0x0871;	????	
 4d8:	94 00       	.word	0x0094;	????	
 4da:	96 00       	.word	0x0096;	????	
 4dc:	02 00       	.word	0x0002;	????	
 4de:	71 0a       	.word	0x0a71;	????	
 4e0:	96 00       	.word	0x0096;	????	
 4e2:	98 00       	.word	0x0098;	????	
 4e4:	02 00       	.word	0x0002;	????	
 4e6:	71 0c       	.word	0x0c71;	????	
 4e8:	98 00       	.word	0x0098;	????	
 4ea:	9a 00       	.word	0x009a;	????	
 4ec:	02 00       	.word	0x0002;	????	
 4ee:	71 0e       	.word	0x0e71;	????	
 4f0:	9a 00       	.word	0x009a;	????	
 4f2:	32 01       	.word	0x0132;	????	
 4f4:	02 00       	.word	0x0002;	????	
 4f6:	71 10       	rrc.b	@r1+		
 4f8:	00 00       	.word	0x0000;	????	
 4fa:	00 00       	.word	0x0000;	????	
 4fc:	8c 00       	.word	0x008c;	????	
 4fe:	1a 01       	.word	0x011a;	????	
 500:	01 00       	.word	0x0001;	????	
 502:	5f 1c       	.word	0x1c5f;	????	
 504:	01 1e       	.word	0x1e01;	????	
 506:	01 01       	.word	0x0101;	????	
 508:	00 5f       	add	r15,	r0	
 50a:	20 01       	.word	0x0120;	????	
 50c:	22 01       	.word	0x0122;	????	
 50e:	01 00       	.word	0x0001;	????	
 510:	5f 00       	.word	0x005f;	????	
 512:	00 00       	.word	0x0000;	????	
 514:	00 9a       	cmp	r10,	r0	
 516:	00 a6       	dadd	r6,	r0	
 518:	00 02       	.word	0x0200;	????	
 51a:	00 30       	jn	$+2      	;abs 0x51c
 51c:	9f a6 00 30 	dadd	12288(r6),257(r15);0x3000(r6), 0x0101(r15)
 520:	01 01 
 522:	00 5b       	add	r11,	r0	
 524:	00 00       	.word	0x0000;	????	
 526:	00 00       	.word	0x0000;	????	
 528:	da 00       	.word	0x00da;	????	
 52a:	0c 01       	.word	0x010c;	????	
 52c:	01 00       	.word	0x0001;	????	
 52e:	59 00       	.word	0x0059;	????	
 530:	00 00       	.word	0x0000;	????	
 532:	00 9a       	cmp	r10,	r0	
 534:	00 a6       	dadd	r6,	r0	
 536:	00 02       	.word	0x0200;	????	
 538:	00 30       	jn	$+2      	;abs 0x53a
 53a:	9f a6 00 da 	dadd	-9728(r6),256(r15);0xda00(r6), 0x0100(r15)
 53e:	00 01 
 540:	00 5c       	add	r12,	r0	
 542:	0e 01       	.word	0x010e;	????	
 544:	32 01       	.word	0x0132;	????	
 546:	01 00       	.word	0x0001;	????	
 548:	5c 00       	.word	0x005c;	????	
 54a:	00 00       	.word	0x0000;	????	
 54c:	00 9a       	cmp	r10,	r0	
 54e:	00 a6       	dadd	r6,	r0	
 550:	00 02       	.word	0x0200;	????	
 552:	00 30       	jn	$+2      	;abs 0x554
 554:	9f a6 00 2e 	dadd	11776(r6),257(r15);0x2e00(r6), 0x0101(r15)
 558:	01 01 
 55a:	00 5a       	add	r10,	r0	
 55c:	00 00       	.word	0x0000;	????	
 55e:	00 00       	.word	0x0000;	????	
 560:	32 01       	.word	0x0132;	????	
 562:	34 01       	.word	0x0134;	????	
 564:	02 00       	.word	0x0002;	????	
 566:	71 02       	.word	0x0271;	????	
 568:	34 01       	.word	0x0134;	????	
 56a:	36 01       	.word	0x0136;	????	
 56c:	02 00       	.word	0x0002;	????	
 56e:	71 04       	.word	0x0471;	????	
 570:	36 01       	.word	0x0136;	????	
 572:	38 01       	.word	0x0138;	????	
 574:	02 00       	.word	0x0002;	????	
 576:	71 06       	.word	0x0671;	????	
 578:	38 01       	.word	0x0138;	????	
 57a:	3a 01       	.word	0x013a;	????	
 57c:	02 00       	.word	0x0002;	????	
 57e:	71 08       	.word	0x0871;	????	
 580:	3a 01       	.word	0x013a;	????	
 582:	3c 01       	.word	0x013c;	????	
 584:	02 00       	.word	0x0002;	????	
 586:	71 0a       	.word	0x0a71;	????	
 588:	3c 01       	.word	0x013c;	????	
 58a:	3e 01       	.word	0x013e;	????	
 58c:	02 00       	.word	0x0002;	????	
 58e:	71 0c       	.word	0x0c71;	????	
 590:	3e 01       	.word	0x013e;	????	
 592:	42 01       	.word	0x0142;	????	
 594:	02 00       	.word	0x0002;	????	
 596:	71 0e       	.word	0x0e71;	????	
 598:	42 01       	.word	0x0142;	????	
 59a:	c2 01       	.word	0x01c2;	????	
 59c:	03 00       	.word	0x0003;	????	
 59e:	71 e0 00 00 	xor.b	#0,	r1	;#0x0000
 5a2:	00 00       	.word	0x0000;	????	
 5a4:	00 32       	jn	$-1022   	;abs 0x1a6
 5a6:	01 4c       	mov	r12,	r1	
 5a8:	01 01       	.word	0x0101;	????	
 5aa:	00 5f       	add	r15,	r0	
 5ac:	4c 01       	.word	0x014c;	????	
 5ae:	c0 01       	.word	0x01c0;	????	
 5b0:	01 00       	.word	0x0001;	????	
 5b2:	5b 00       	.word	0x005b;	????	
 5b4:	00 00       	.word	0x0000;	????	
 5b6:	00 32       	jn	$-1022   	;abs 0x1b8
 5b8:	01 4c       	mov	r12,	r1	
 5ba:	01 01       	.word	0x0101;	????	
 5bc:	00 5e       	add	r14,	r0	
 5be:	4c 01       	.word	0x014c;	????	
 5c0:	ba 01       	.word	0x01ba;	????	
 5c2:	01 00       	.word	0x0001;	????	
 5c4:	58 00       	.word	0x0058;	????	
 5c6:	00 00       	.word	0x0000;	????	
 5c8:	00 46       	br	r6		
 5ca:	01 4c       	mov	r12,	r1	
 5cc:	01 02       	.word	0x0201;	????	
 5ce:	00 30       	jn	$+2      	;abs 0x5d0
 5d0:	9f 4c 01 be 	mov	-16895(r12),257(r15);0xbe01(r12), 0x0101(r15)
 5d4:	01 01 
 5d6:	00 5a       	add	r10,	r0	
 5d8:	00 00       	.word	0x0000;	????	
 5da:	00 00       	.word	0x0000;	????	
 5dc:	7c 01       	.word	0x017c;	????	
 5de:	94 01       	.word	0x0194;	????	
 5e0:	01 00       	.word	0x0001;	????	
 5e2:	5f a6 01 aa 	dadd.b	-22015(r6),r15	;0xaa01(r6)
 5e6:	01 01       	.word	0x0101;	????	
 5e8:	00 5f       	add	r15,	r0	
 5ea:	ac 01       	.word	0x01ac;	????	
 5ec:	b0 01       	.word	0x01b0;	????	
 5ee:	01 00       	.word	0x0001;	????	
 5f0:	5f 00       	.word	0x005f;	????	
 5f2:	00 00       	.word	0x0000;	????	
 5f4:	00 5e       	add	r14,	r0	
 5f6:	01 66       	addc	r6,	r1	
 5f8:	01 01       	.word	0x0101;	????	
 5fa:	00 5f       	add	r15,	r0	
 5fc:	66 01       	.word	0x0166;	????	
 5fe:	69 01       	.word	0x0169;	????	
 600:	01 00       	.word	0x0001;	????	
 602:	5d 00       	.word	0x005d;	????	
 604:	00 00       	.word	0x0000;	????	
 606:	00 54       	add	r4,	r0	
 608:	01 5a       	add	r10,	r1	
 60a:	01 01       	.word	0x0101;	????	
 60c:	00 5f       	add	r15,	r0	
 60e:	5a 01       	.word	0x015a;	????	
 610:	9a 01       	.word	0x019a;	????	
 612:	01 00       	.word	0x0001;	????	
 614:	57 a6 01 b0 	dadd.b	-20479(r6),r7	;0xb001(r6)
 618:	01 01       	.word	0x0101;	????	
 61a:	00 57       	add	r7,	r0	
 61c:	00 00       	.word	0x0000;	????	
 61e:	00 00       	.word	0x0000;	????	
 620:	00 00       	.word	0x0000;	????	
 622:	02 00       	.word	0x0002;	????	
 624:	02 00       	.word	0x0002;	????	
 626:	71 02       	.word	0x0271;	????	
 628:	02 00       	.word	0x0002;	????	
 62a:	04 00       	.word	0x0004;	????	
 62c:	02 00       	.word	0x0002;	????	
 62e:	71 04       	.word	0x0471;	????	
 630:	04 00       	.word	0x0004;	????	
 632:	06 00       	.word	0x0006;	????	
 634:	02 00       	.word	0x0002;	????	
 636:	71 06       	.word	0x0671;	????	
 638:	06 00       	.word	0x0006;	????	
 63a:	08 00       	.word	0x0008;	????	
 63c:	02 00       	.word	0x0002;	????	
 63e:	71 08       	.word	0x0871;	????	
 640:	08 00       	.word	0x0008;	????	
 642:	0a 00       	.word	0x000a;	????	
 644:	02 00       	.word	0x0002;	????	
 646:	71 0a       	.word	0x0a71;	????	
 648:	0a 00       	.word	0x000a;	????	
 64a:	6a 00       	.word	0x006a;	????	
 64c:	02 00       	.word	0x0002;	????	
 64e:	71 0c       	.word	0x0c71;	????	
 650:	00 00       	.word	0x0000;	????	
 652:	00 00       	.word	0x0000;	????	
 654:	00 00       	.word	0x0000;	????	
 656:	14 00       	.word	0x0014;	????	
 658:	06 00       	.word	0x0006;	????	
 65a:	5e 93       	cmp.b	#1,	r14	;r3 As==01
 65c:	02 5f       	add	r15,	r2	
 65e:	93 02       	.word	0x0293;	????	
 660:	14 00       	.word	0x0014;	????	
 662:	66 00       	.word	0x0066;	????	
 664:	06 00       	.word	0x0006;	????	
 666:	5a 93       	cmp.b	#1,	r10	;r3 As==01
 668:	02 5b       	add	r11,	r2	
 66a:	93 02       	.word	0x0293;	????	
 66c:	00 00       	.word	0x0000;	????	
 66e:	00 00       	.word	0x0000;	????	
 670:	00 00       	.word	0x0000;	????	
 672:	14 00       	.word	0x0014;	????	
 674:	01 00       	.word	0x0001;	????	
 676:	5d 14       	.word	0x145d;	????	
 678:	00 60       	rlc	r0		
 67a:	00 01       	.word	0x0100;	????	
 67c:	00 57       	add	r7,	r0	
 67e:	00 00       	.word	0x0000;	????	
 680:	00 00       	.word	0x0000;	????	
 682:	2c 00       	.word	0x002c;	????	
 684:	32 00       	.word	0x0032;	????	
 686:	03 00       	.word	0x0003;	????	
 688:	08 30       	jn	$+18     	;abs 0x69a
 68a:	9f 32       	jn	$-704    	;abs 0x3ca
 68c:	00 47       	br	r7		
 68e:	00 01       	.word	0x0100;	????	
 690:	00 5f       	add	r15,	r0	
 692:	00 00       	.word	0x0000;	????	
 694:	00 00       	.word	0x0000;	????	
 696:	2c 00       	.word	0x002c;	????	
 698:	47 00       	.word	0x0047;	????	
 69a:	02 00       	.word	0x0002;	????	
 69c:	77 7c       	subc.b	@r12+,	r7	
 69e:	47 00       	.word	0x0047;	????	
 6a0:	4c 00       	.word	0x004c;	????	
 6a2:	06 00       	.word	0x0006;	????	
 6a4:	58 93       	cmp.b	#1,	r8	;r3 As==01
 6a6:	02 59       	add	r9,	r2	
 6a8:	93 02       	.word	0x0293;	????	
 6aa:	00 00       	.word	0x0000;	????	
 6ac:	00 00       	.word	0x0000;	????	
 6ae:	6a 00       	.word	0x006a;	????	
 6b0:	6e 00       	.word	0x006e;	????	
 6b2:	01 00       	.word	0x0001;	????	
 6b4:	5f 00       	.word	0x005f;	????	
 6b6:	00 00       	.word	0x0000;	????	
 6b8:	00 78       	subc	r8,	r0	
 6ba:	00 7a       	subc	r10,	r0	
 6bc:	00 02       	.word	0x0200;	????	
 6be:	00 71       	subc	r1,	r0	
 6c0:	02 7a       	subc	r10,	r2	
 6c2:	00 8c       	sub	r12,	r0	
 6c4:	00 02       	.word	0x0200;	????	
 6c6:	00 71       	subc	r1,	r0	
 6c8:	04 00       	.word	0x0004;	????	
 6ca:	00 00       	.word	0x0000;	????	
 6cc:	00 78       	subc	r8,	r0	
 6ce:	00 7e       	subc	r14,	r0	
 6d0:	00 01       	.word	0x0100;	????	
 6d2:	00 5f       	add	r15,	r0	
 6d4:	00 00       	.word	0x0000;	????	
 6d6:	00 00       	.word	0x0000;	????	
 6d8:	7c 00       	.word	0x007c;	????	
 6da:	7e 00       	.word	0x007e;	????	
 6dc:	02 00       	.word	0x0002;	????	
 6de:	30 9f       	cmp	@r15+,	r0	
 6e0:	00 00       	.word	0x0000;	????	
 6e2:	00 00       	.word	0x0000;	????	
 6e4:	8c 00       	.word	0x008c;	????	
 6e6:	8e 00       	.word	0x008e;	????	
 6e8:	02 00       	.word	0x0002;	????	
 6ea:	71 02       	.word	0x0271;	????	
 6ec:	8e 00       	.word	0x008e;	????	
 6ee:	90 00       	.word	0x0090;	????	
 6f0:	02 00       	.word	0x0002;	????	
 6f2:	71 04       	.word	0x0471;	????	
 6f4:	90 00       	.word	0x0090;	????	
 6f6:	92 00       	.word	0x0092;	????	
 6f8:	02 00       	.word	0x0002;	????	
 6fa:	71 06       	.word	0x0671;	????	
 6fc:	92 00       	.word	0x0092;	????	
 6fe:	96 00       	.word	0x0096;	????	
 700:	02 00       	.word	0x0002;	????	
 702:	71 08       	.word	0x0871;	????	
 704:	96 00       	.word	0x0096;	????	
 706:	06 01       	.word	0x0106;	????	
 708:	02 00       	.word	0x0002;	????	
 70a:	71 28       	jnc	$+228    	;abs 0x7ee
 70c:	00 00       	.word	0x0000;	????	
 70e:	00 00       	.word	0x0000;	????	
 710:	8c 00       	.word	0x008c;	????	
 712:	9c 00       	.word	0x009c;	????	
 714:	01 00       	.word	0x0001;	????	
 716:	5f 9c 00 d0 	cmp.b	-12288(r12),r15	;0xd000(r12)
 71a:	00 01       	.word	0x0100;	????	
 71c:	00 5b       	add	r11,	r0	
 71e:	d0 00       	.word	0x00d0;	????	
 720:	d8 00       	.word	0x00d8;	????	
 722:	01 00       	.word	0x0001;	????	
 724:	5f d8 00 e0 	bis.b	-8192(r8),r15	;0xe000(r8)
 728:	00 01       	.word	0x0100;	????	
 72a:	00 5b       	add	r11,	r0	
 72c:	e0 00       	.word	0x00e0;	????	
 72e:	e2 00       	.word	0x00e2;	????	
 730:	01 00       	.word	0x0001;	????	
 732:	5f 00       	.word	0x005f;	????	
 734:	00 00       	.word	0x0000;	????	
 736:	00 d2       	bis	r2,	r0	
 738:	00 d8       	bis	r8,	r0	
 73a:	00 01       	.word	0x0100;	????	
 73c:	00 5a       	add	r10,	r0	
 73e:	00 00       	.word	0x0000;	????	
 740:	00 00       	.word	0x0000;	????	
 742:	dc 00       	.word	0x00dc;	????	
 744:	e2 00       	.word	0x00e2;	????	
 746:	03 00       	.word	0x0003;	????	
 748:	7a 01       	.word	0x017a;	????	
 74a:	9f 00       	.word	0x009f;	????	
 74c:	00 00       	.word	0x0000;	????	
 74e:	00 06       	.word	0x0600;	????	
 750:	01 08       	.word	0x0801;	????	
 752:	01 02       	.word	0x0201;	????	
 754:	00 71       	subc	r1,	r0	
 756:	02 08       	.word	0x0802;	????	
 758:	01 0a       	.word	0x0a01;	????	
 75a:	01 02       	.word	0x0201;	????	
 75c:	00 71       	subc	r1,	r0	
 75e:	04 0a       	.word	0x0a04;	????	
 760:	01 40       	mov	r0,	r1	
 762:	01 02       	.word	0x0201;	????	
 764:	00 71       	subc	r1,	r0	
 766:	06 00       	.word	0x0006;	????	
 768:	00 00       	.word	0x0000;	????	
 76a:	00 06       	.word	0x0600;	????	
 76c:	01 10       	rrc	r1		
 76e:	01 01       	.word	0x0101;	????	
 770:	00 5f       	add	r15,	r0	
 772:	10 01       	.word	0x0110;	????	
 774:	3c 01       	.word	0x013c;	????	
 776:	01 00       	.word	0x0001;	????	
 778:	5a 00       	.word	0x005a;	????	
 77a:	00 00       	.word	0x0000;	????	
 77c:	00 06       	.word	0x0600;	????	
 77e:	01 10       	rrc	r1		
 780:	01 01       	.word	0x0101;	????	
 782:	00 5e       	add	r14,	r0	
 784:	00 00       	.word	0x0000;	????	
 786:	00 00       	.word	0x0000;	????	
 788:	10 01       	.word	0x0110;	????	
 78a:	34 01       	.word	0x0134;	????	
 78c:	01 00       	.word	0x0001;	????	
 78e:	5b 36       	jge	$-840    	;abs 0x446
 790:	01 3e       	jmp	$-1020   	;abs 0x394
 792:	01 01       	.word	0x0101;	????	
 794:	00 5b       	add	r11,	r0	
 796:	00 00       	.word	0x0000;	????	
 798:	00 00       	.word	0x0000;	????	
 79a:	40 01       	.word	0x0140;	????	
 79c:	42 01       	.word	0x0142;	????	
 79e:	02 00       	.word	0x0002;	????	
 7a0:	71 02       	.word	0x0271;	????	
 7a2:	42 01       	.word	0x0142;	????	
 7a4:	44 01       	.word	0x0144;	????	
 7a6:	02 00       	.word	0x0002;	????	
 7a8:	71 04       	.word	0x0471;	????	
 7aa:	44 01       	.word	0x0144;	????	
 7ac:	46 01       	.word	0x0146;	????	
 7ae:	02 00       	.word	0x0002;	????	
 7b0:	71 06       	.word	0x0671;	????	
 7b2:	46 01       	.word	0x0146;	????	
 7b4:	48 01       	.word	0x0148;	????	
 7b6:	02 00       	.word	0x0002;	????	
 7b8:	71 08       	.word	0x0871;	????	
 7ba:	48 01       	.word	0x0148;	????	
 7bc:	6a 02       	.word	0x026a;	????	
 7be:	02 00       	.word	0x0002;	????	
 7c0:	71 0a       	.word	0x0a71;	????	
 7c2:	00 00       	.word	0x0000;	????	
 7c4:	00 00       	.word	0x0000;	????	
 7c6:	40 01       	.word	0x0140;	????	
 7c8:	52 01       	.word	0x0152;	????	
 7ca:	02 00       	.word	0x0002;	????	
 7cc:	91 00       	.word	0x0091;	????	
 7ce:	52 01       	.word	0x0152;	????	
 7d0:	5e 01       	.word	0x015e;	????	
 7d2:	03 00       	.word	0x0003;	????	
 7d4:	7a 01       	.word	0x017a;	????	
 7d6:	9f 5e 01 54 	add	21505(r14),258(r15);0x5401(r14), 0x0102(r15)
 7da:	02 01 
 7dc:	00 5a       	add	r10,	r0	
 7de:	54 02       	.word	0x0254;	????	
 7e0:	56 02       	.word	0x0256;	????	
 7e2:	03 00       	.word	0x0003;	????	
 7e4:	7a 01       	.word	0x017a;	????	
 7e6:	9f 56 02 5c 	add	23554(r6),258(r15);0x5c02(r6), 0x0102(r15)
 7ea:	02 01 
 7ec:	00 5a       	add	r10,	r0	
 7ee:	5c 02       	.word	0x025c;	????	
 7f0:	60 02       	.word	0x0260;	????	
 7f2:	03 00       	.word	0x0003;	????	
 7f4:	7a 01       	.word	0x017a;	????	
 7f6:	9f 00       	.word	0x009f;	????	
 7f8:	00 00       	.word	0x0000;	????	
 7fa:	00 52       	add	r2,	r0	
 7fc:	01 5c       	add	r12,	r1	
 7fe:	01 01       	.word	0x0101;	????	
 800:	00 5f       	add	r15,	r0	
 802:	5c 01       	.word	0x015c;	????	
 804:	5e 01       	.word	0x015e;	????	
 806:	02 00       	.word	0x0002;	????	
 808:	7a 01       	.word	0x017a;	????	
 80a:	5e 01       	.word	0x015e;	????	
 80c:	a5 01       	.word	0x01a5;	????	
 80e:	02 00       	.word	0x0002;	????	
 810:	7a 7f       	subc.b	@r15+,	r10	
 812:	a8 01       	.word	0x01a8;	????	
 814:	ae 01       	.word	0x01ae;	????	
 816:	01 00       	.word	0x0001;	????	
 818:	5f ae 01 b1 	dadd.b	-20223(r14),r15	;0xb101(r14)
 81c:	01 02       	.word	0x0201;	????	
 81e:	00 7a       	subc	r10,	r0	
 820:	7f b6       	bit.b	@r6+,	r15	
 822:	01 ce       	bic	r14,	r1	
 824:	01 01       	.word	0x0101;	????	
 826:	00 5f       	add	r15,	r0	
 828:	ce 01       	.word	0x01ce;	????	
 82a:	d1 01       	.word	0x01d1;	????	
 82c:	02 00       	.word	0x0002;	????	
 82e:	7a 7f       	subc.b	@r15+,	r10	
 830:	e0 01       	.word	0x01e0;	????	
 832:	08 02       	.word	0x0208;	????	
 834:	01 00       	.word	0x0001;	????	
 836:	5f 08       	.word	0x085f;	????	
 838:	02 0b       	.word	0x0b02;	????	
 83a:	02 02       	.word	0x0202;	????	
 83c:	00 7a       	subc	r10,	r0	
 83e:	7f 1c       	.word	0x1c7f;	????	
 840:	02 24       	jz	$+6      	;abs 0x846
 842:	02 01       	.word	0x0102;	????	
 844:	00 5f       	add	r15,	r0	
 846:	24 02       	.word	0x0224;	????	
 848:	33 02       	.word	0x0233;	????	
 84a:	02 00       	.word	0x0002;	????	
 84c:	7a 7f       	subc.b	@r15+,	r10	
 84e:	54 02       	.word	0x0254;	????	
 850:	59 02       	.word	0x0259;	????	
 852:	01 00       	.word	0x0001;	????	
 854:	5f 5c 02 60 	add.b	24578(r12),r15	;0x6002(r12)
 858:	02 02       	.word	0x0202;	????	
 85a:	00 7a       	subc	r10,	r0	
 85c:	00 60       	rlc	r0		
 85e:	02 6a       	addc	r10,	r2	
 860:	02 01       	.word	0x0102;	????	
 862:	00 5f       	add	r15,	r0	
 864:	00 00       	.word	0x0000;	????	
 866:	00 00       	.word	0x0000;	????	
 868:	bc 01       	.word	0x01bc;	????	
 86a:	ca 01       	.word	0x01ca;	????	
 86c:	02 00       	.word	0x0002;	????	
 86e:	79 7e       	subc.b	@r14+,	r9	
 870:	ca 01       	.word	0x01ca;	????	
 872:	e0 01       	.word	0x01e0;	????	
 874:	01 00       	.word	0x0001;	????	
 876:	5b 22       	jnz	$-840    	;abs 0x52e
 878:	02 33       	jn	$-506    	;abs 0x67e
 87a:	02 02       	.word	0x0202;	????	
 87c:	00 79       	subc	r9,	r0	
 87e:	7e 33       	jn	$-258    	;abs 0x77c
 880:	02 54       	add	r4,	r2	
 882:	02 01       	.word	0x0102;	????	
 884:	00 5b       	add	r11,	r0	
 886:	00 00       	.word	0x0000;	????	
 888:	00 00       	.word	0x0000;	????	
 88a:	ea 01       	.word	0x01ea;	????	
 88c:	04 02       	.word	0x0204;	????	
 88e:	08 00       	.word	0x0008;	????	
 890:	78 7c       	subc.b	@r12+,	r8	
 892:	93 02       	.word	0x0293;	????	
 894:	78 7e       	subc.b	@r14+,	r8	
 896:	93 02       	.word	0x0293;	????	
 898:	04 02       	.word	0x0204;	????	
 89a:	0b 02       	.word	0x020b;	????	
 89c:	07 00       	.word	0x0007;	????	
 89e:	5c 93       	cmp.b	#1,	r12	;r3 As==01
 8a0:	02 78       	subc	r8,	r2	
 8a2:	7e 93       	cmp.b	#-1,	r14	;r3 As==11
 8a4:	02 0b       	.word	0x0b02;	????	
 8a6:	02 1a       	.word	0x1a02;	????	
 8a8:	02 06       	.word	0x0602;	????	
 8aa:	00 59       	add	r9,	r0	
 8ac:	93 02       	.word	0x0293;	????	
 8ae:	5b 93       	cmp.b	#1,	r11	;r3 As==01
 8b0:	02 00       	.word	0x0002;	????	
 8b2:	00 00       	.word	0x0000;	????	
 8b4:	00 50       	rla	r0		
 8b6:	01 a0       	dadd	r0,	r1	
 8b8:	01 01       	.word	0x0101;	????	
 8ba:	00 5b       	add	r11,	r0	
 8bc:	a0 01       	.word	0x01a0;	????	
 8be:	a8 01       	.word	0x01a8;	????	
 8c0:	01 00       	.word	0x0001;	????	
 8c2:	59 a8 01 ac 	dadd.b	-21503(r8),r9	;0xac01(r8)
 8c6:	01 01       	.word	0x0101;	????	
 8c8:	00 5b       	add	r11,	r0	
 8ca:	ac 01       	.word	0x01ac;	????	
 8cc:	b6 01       	.word	0x01b6;	????	
 8ce:	01 00       	.word	0x0001;	????	
 8d0:	59 b6 01 ba 	bit.b	-17919(r6),r9	;0xba01(r6)
 8d4:	01 01       	.word	0x0101;	????	
 8d6:	00 5b       	add	r11,	r0	
 8d8:	ba 01       	.word	0x01ba;	????	
 8da:	e0 01       	.word	0x01e0;	????	
 8dc:	01 00       	.word	0x0001;	????	
 8de:	59 e0 01 e4 	xor.b	-7167(r0),r9	;PC rel. 0xece1
 8e2:	01 01       	.word	0x0101;	????	
 8e4:	00 5b       	add	r11,	r0	
 8e6:	e4 01       	.word	0x01e4;	????	
 8e8:	1c 02       	.word	0x021c;	????	
 8ea:	01 00       	.word	0x0001;	????	
 8ec:	58 1c       	.word	0x1c58;	????	
 8ee:	02 20       	jnz	$+6      	;abs 0x8f4
 8f0:	02 01       	.word	0x0102;	????	
 8f2:	00 5b       	add	r11,	r0	
 8f4:	20 02       	.word	0x0220;	????	
 8f6:	54 02       	.word	0x0254;	????	
 8f8:	01 00       	.word	0x0001;	????	
 8fa:	59 54 02 68 	add.b	26626(r4),r9	;0x6802(r4)
 8fe:	02 01       	.word	0x0102;	????	
 900:	00 5b       	add	r11,	r0	
 902:	00 00       	.word	0x0000;	????	
 904:	00 00       	.word	0x0000;	????	
 906:	00 00       	.word	0x0000;	????	
 908:	03 00       	.word	0x0003;	????	
 90a:	01 00       	.word	0x0001;	????	
 90c:	5f 00       	.word	0x005f;	????	
 90e:	00 00       	.word	0x0000;	????	
 910:	00 2a       	jnc	$-1022   	;abs 0x512
 912:	01 37       	jge	$-508    	;abs 0x716
 914:	01 01       	.word	0x0101;	????	
 916:	00 5f       	add	r15,	r0	
 918:	00 00       	.word	0x0000;	????	
 91a:	00 00       	.word	0x0000;	????	
 91c:	00 00       	.word	0x0000;	????	
 91e:	02 00       	.word	0x0002;	????	
 920:	02 00       	.word	0x0002;	????	
 922:	71 02       	.word	0x0271;	????	
 924:	02 00       	.word	0x0002;	????	
 926:	2a 00       	.word	0x002a;	????	
 928:	02 00       	.word	0x0002;	????	
 92a:	71 04       	.word	0x0471;	????	
 92c:	00 00       	.word	0x0000;	????	
 92e:	00 00       	.word	0x0000;	????	
 930:	00 00       	.word	0x0000;	????	
 932:	08 00       	.word	0x0008;	????	
 934:	01 00       	.word	0x0001;	????	
 936:	5e 00       	.word	0x005e;	????	
 938:	00 00       	.word	0x0000;	????	
 93a:	00 08       	.word	0x0800;	????	
 93c:	00 26       	jz	$-1022   	;abs 0x53e
 93e:	00 01       	.word	0x0100;	????	
 940:	00 5c       	add	r12,	r0	
 942:	00 00       	.word	0x0000;	????	
 944:	00 00       	.word	0x0000;	????	
 946:	08 00       	.word	0x0008;	????	
 948:	0a 00       	.word	0x000a;	????	
 94a:	01 00       	.word	0x0001;	????	
 94c:	5e 0a       	.word	0x0a5e;	????	
 94e:	00 10       	rrc	r0		
 950:	00 03       	.word	0x0300;	????	
 952:	00 7e       	subc	r14,	r0	
 954:	7f 9f       	cmp.b	@r15+,	r15	
 956:	10 00       	.word	0x0010;	????	
 958:	26 00       	.word	0x0026;	????	
 95a:	01 00       	.word	0x0001;	????	
 95c:	5e 00       	.word	0x005e;	????	
 95e:	00 00       	.word	0x0000;	????	
 960:	00 00       	.word	0x0000;	????	
 962:	00 02       	.word	0x0200;	????	
 964:	00 02       	.word	0x0200;	????	
 966:	00 71       	subc	r1,	r0	
 968:	02 02       	.word	0x0202;	????	
 96a:	00 04       	.word	0x0400;	????	
 96c:	00 02       	.word	0x0200;	????	
 96e:	00 71       	subc	r1,	r0	
 970:	04 04       	.word	0x0404;	????	
 972:	00 06       	.word	0x0600;	????	
 974:	00 02       	.word	0x0200;	????	
 976:	00 71       	subc	r1,	r0	
 978:	06 06       	.word	0x0606;	????	
 97a:	00 08       	.word	0x0800;	????	
 97c:	00 02       	.word	0x0200;	????	
 97e:	00 71       	subc	r1,	r0	
 980:	08 08       	.word	0x0808;	????	
 982:	00 6a       	addc	r10,	r0	
 984:	00 02       	.word	0x0200;	????	
 986:	00 71       	subc	r1,	r0	
 988:	0a 00       	.word	0x000a;	????	
 98a:	00 00       	.word	0x0000;	????	
 98c:	00 00       	.word	0x0000;	????	
 98e:	00 22       	jnz	$-1022   	;abs 0x590
 990:	00 01       	.word	0x0100;	????	
 992:	00 5e       	add	r14,	r0	
 994:	00 00       	.word	0x0000;	????	
 996:	00 00       	.word	0x0000;	????	
 998:	00 00       	.word	0x0000;	????	
 99a:	5a 00       	.word	0x005a;	????	
 99c:	01 00       	.word	0x0001;	????	
 99e:	5d 00       	.word	0x005d;	????	
 9a0:	00 00       	.word	0x0000;	????	
 9a2:	00 2e       	jc	$-1022   	;abs 0x5a4
 9a4:	00 32       	jn	$-1022   	;abs 0x5a6
 9a6:	00 05       	.word	0x0500;	????	
 9a8:	00 7f       	subc	r15,	r0	
 9aa:	00 31       	jn	$+514    	;abs 0xbac
 9ac:	1a 9f 32 00 	cmp	50(r15),r10	;0x0032(r15)
 9b0:	3c 00       	.word	0x003c;	????	
 9b2:	02 00       	.word	0x0002;	????	
 9b4:	31 9f       	cmp	@r15+,	r1	
 9b6:	3c 00       	.word	0x003c;	????	
 9b8:	3e 00       	.word	0x003e;	????	
 9ba:	02 00       	.word	0x0002;	????	
 9bc:	30 9f       	cmp	@r15+,	r0	
 9be:	3e 00       	.word	0x003e;	????	
 9c0:	40 00       	.word	0x0040;	????	
 9c2:	05 00       	.word	0x0005;	????	
 9c4:	7f 00       	.word	0x007f;	????	
 9c6:	31 1a       	.word	0x1a31;	????	
 9c8:	9f 46 00 4a 	mov	18944(r6),256(r15);0x4a00(r6), 0x0100(r15)
 9cc:	00 01 
 9ce:	00 5c       	add	r12,	r0	
 9d0:	4a 00       	.word	0x004a;	????	
 9d2:	58 00       	.word	0x0058;	????	
 9d4:	01 00       	.word	0x0001;	????	
 9d6:	58 58 00 5a 	add.b	23040(r8),r8	;0x5a00(r8)
 9da:	00 05       	.word	0x0500;	????	
 9dc:	00 7d       	subc	r13,	r0	
 9de:	00 31       	jn	$+514    	;abs 0xbe0
 9e0:	1a 9f 5a 00 	cmp	90(r15),r10	;0x005a(r15)
 9e4:	5c 00       	.word	0x005c;	????	
 9e6:	01 00       	.word	0x0001;	????	
 9e8:	5d 5c 00 60 	add.b	24576(r12),r13	;0x6000(r12)
 9ec:	00 02       	.word	0x0200;	????	
 9ee:	00 31       	jn	$+514    	;abs 0xbf0
 9f0:	9f 00       	.word	0x009f;	????	
 9f2:	00 00       	.word	0x0000;	????	
 9f4:	00 24       	jz	$+2      	;abs 0x9f6
 9f6:	00 60       	rlc	r0		
 9f8:	00 01       	.word	0x0100;	????	
 9fa:	00 5b       	add	r11,	r0	
 9fc:	00 00       	.word	0x0000;	????	
 9fe:	00 00       	.word	0x0000;	????	
 a00:	08 00       	.word	0x0008;	????	
 a02:	12 00       	.word	0x0012;	????	
 a04:	01 00       	.word	0x0001;	????	
 a06:	5f 12 00 20 	push.b	8192(r15)	;0x2000(r15)
 a0a:	00 01       	.word	0x0100;	????	
 a0c:	00 5c       	add	r12,	r0	
 a0e:	20 00       	.word	0x0020;	????	
 a10:	3c 00       	.word	0x003c;	????	
 a12:	01 00       	.word	0x0001;	????	
 a14:	5f 3c       	jmp	$+192    	;abs 0xad4
 a16:	00 3e       	jmp	$-1022   	;abs 0x618
 a18:	00 01       	.word	0x0100;	????	
 a1a:	00 59       	add	r9,	r0	
 a1c:	3e 00       	.word	0x003e;	????	
 a1e:	40 00       	.word	0x0040;	????	
 a20:	01 00       	.word	0x0001;	????	
 a22:	5f 40 00 4a 	mov.b	18944(r0),r15	;PC rel. 0x5424
 a26:	00 01       	.word	0x0100;	????	
 a28:	00 59       	add	r9,	r0	
 a2a:	4a 00       	.word	0x004a;	????	
 a2c:	5c 00       	.word	0x005c;	????	
 a2e:	01 00       	.word	0x0001;	????	
 a30:	5a 5c 00 60 	add.b	24576(r12),r10	;0x6000(r12)
 a34:	00 01       	.word	0x0100;	????	
 a36:	00 5c       	add	r12,	r0	
 a38:	00 00       	.word	0x0000;	????	
 a3a:	00 00       	.word	0x0000;	????	
 a3c:	00 00       	.word	0x0000;	????	
 a3e:	02 00       	.word	0x0002;	????	
 a40:	02 00       	.word	0x0002;	????	
 a42:	71 02       	.word	0x0271;	????	
 a44:	02 00       	.word	0x0002;	????	
 a46:	04 00       	.word	0x0004;	????	
 a48:	02 00       	.word	0x0002;	????	
 a4a:	71 04       	.word	0x0471;	????	
 a4c:	04 00       	.word	0x0004;	????	
 a4e:	06 00       	.word	0x0006;	????	
 a50:	02 00       	.word	0x0002;	????	
 a52:	71 06       	.word	0x0671;	????	
 a54:	06 00       	.word	0x0006;	????	
 a56:	08 00       	.word	0x0008;	????	
 a58:	02 00       	.word	0x0002;	????	
 a5a:	71 08       	.word	0x0871;	????	
 a5c:	08 00       	.word	0x0008;	????	
 a5e:	0a 00       	.word	0x000a;	????	
 a60:	02 00       	.word	0x0002;	????	
 a62:	71 0a       	.word	0x0a71;	????	
 a64:	0a 00       	.word	0x000a;	????	
 a66:	0c 00       	.word	0x000c;	????	
 a68:	02 00       	.word	0x0002;	????	
 a6a:	71 0c       	.word	0x0c71;	????	
 a6c:	0c 00       	.word	0x000c;	????	
 a6e:	0e 00       	.word	0x000e;	????	
 a70:	02 00       	.word	0x0002;	????	
 a72:	71 0e       	.word	0x0e71;	????	
 a74:	0e 00       	.word	0x000e;	????	
 a76:	10 00       	.word	0x0010;	????	
 a78:	02 00       	.word	0x0002;	????	
 a7a:	71 10       	rrc.b	@r1+		
 a7c:	10 00       	.word	0x0010;	????	
 a7e:	08 01       	.word	0x0108;	????	
 a80:	02 00       	.word	0x0002;	????	
 a82:	71 12       	push.b	@r1+		
 a84:	00 00       	.word	0x0000;	????	
 a86:	00 00       	.word	0x0000;	????	
 a88:	00 00       	.word	0x0000;	????	
 a8a:	36 00       	.word	0x0036;	????	
 a8c:	01 00       	.word	0x0001;	????	
 a8e:	5f 36       	jge	$-832    	;abs 0x74e
 a90:	00 e4       	xor	r4,	r0	
 a92:	00 01       	.word	0x0100;	????	
 a94:	00 5c       	add	r12,	r0	
 a96:	f0 00       	.word	0x00f0;	????	
 a98:	f6 00       	.word	0x00f6;	????	
 a9a:	01 00       	.word	0x0001;	????	
 a9c:	5c 00       	.word	0x005c;	????	
 a9e:	00 00       	.word	0x0000;	????	
 aa0:	00 2a       	jnc	$-1022   	;abs 0x6a2
 aa2:	00 04       	.word	0x0400;	????	
 aa4:	01 01       	.word	0x0101;	????	
 aa6:	00 5a       	add	r10,	r0	
 aa8:	00 00       	.word	0x0000;	????	
 aaa:	00 00       	.word	0x0000;	????	
 aac:	18 00       	.word	0x0018;	????	
 aae:	38 00       	.word	0x0038;	????	
 ab0:	01 00       	.word	0x0001;	????	
 ab2:	5d 38       	jl	$+188    	;abs 0xb6e
 ab4:	00 3a       	jl	$-1022   	;abs 0x6b6
 ab6:	00 08       	.word	0x0800;	????	
 ab8:	00 7e       	subc	r14,	r0	
 aba:	01 31       	jn	$+516    	;abs 0xcbe
 abc:	24 7d       	subc	@r13,	r4	
 abe:	00 22       	jnz	$-1022   	;abs 0x6c0
 ac0:	9f 3a       	jl	$-704    	;abs 0x800
 ac2:	00 3c       	jmp	$+2      	;abs 0xac4
 ac4:	00 08       	.word	0x0800;	????	
 ac6:	00 7e       	subc	r14,	r0	
 ac8:	00 31       	jn	$+514    	;abs 0xcca
 aca:	24 7d       	subc	@r13,	r4	
 acc:	00 22       	jnz	$-1022   	;abs 0x6ce
 ace:	9f 3e       	jmp	$-704    	;abs 0x80e
 ad0:	00 f0       	and	r0,	r0	
 ad2:	00 01       	.word	0x0100;	????	
 ad4:	00 5d       	add	r13,	r0	
 ad6:	f0 00       	.word	0x00f0;	????	
 ad8:	f4 00       	.word	0x00f4;	????	
 ada:	08 00       	.word	0x0008;	????	
 adc:	7e 01       	.word	0x017e;	????	
 ade:	31 24       	jz	$+100    	;abs 0xb42
 ae0:	7d 00       	.word	0x007d;	????	
 ae2:	22 9f       	cmp	@r15,	r2	
 ae4:	00 00       	.word	0x0000;	????	
 ae6:	00 00       	.word	0x0000;	????	
 ae8:	18 00       	.word	0x0018;	????	
 aea:	38 00       	.word	0x0038;	????	
 aec:	02 00       	.word	0x0002;	????	
 aee:	30 9f       	cmp	@r15+,	r0	
 af0:	38 00       	.word	0x0038;	????	
 af2:	3e 00       	.word	0x003e;	????	
 af4:	01 00       	.word	0x0001;	????	
 af6:	55 3e       	jmp	$-852    	;abs 0x7a2
 af8:	00 50       	rla	r0		
 afa:	00 02       	.word	0x0200;	????	
 afc:	00 30       	jn	$+2      	;abs 0xafe
 afe:	9f 50 00 fa 	add	-1536(r0),256(r15);PC rel. 0x0500, 0x0100(r15)
 b02:	00 01 
 b04:	00 55       	add	r5,	r0	
 b06:	00 00       	.word	0x0000;	????	
 b08:	00 00       	.word	0x0000;	????	
 b0a:	38 00       	.word	0x0038;	????	
 b0c:	3a 00       	.word	0x003a;	????	
 b0e:	01 00       	.word	0x0001;	????	
 b10:	5e 3a       	jl	$-834    	;abs 0x7ce
 b12:	00 3c       	jmp	$+2      	;abs 0xb14
 b14:	00 03       	.word	0x0300;	????	
 b16:	00 7e       	subc	r14,	r0	
 b18:	7f 9f       	cmp.b	@r15+,	r15	
 b1a:	46 00       	.word	0x0046;	????	
 b1c:	5c 00       	.word	0x005c;	????	
 b1e:	01 00       	.word	0x0001;	????	
 b20:	5e 82 00 96 	sub.b	&0x9600,r14	
 b24:	00 01       	.word	0x0100;	????	
 b26:	00 5e       	add	r14,	r0	
 b28:	96 00       	.word	0x0096;	????	
 b2a:	b4 00       	.word	0x00b4;	????	
 b2c:	03 00       	.word	0x0003;	????	
 b2e:	74 7f       	subc.b	@r15+,	r4	
 b30:	9f b4 00 08 	bit	2048(r4),257(r15);0x0800(r4), 0x0101(r15)
 b34:	01 01 
 b36:	00 5e       	add	r14,	r0	
 b38:	00 00       	.word	0x0000;	????	
 b3a:	00 00       	.word	0x0000;	????	
 b3c:	46 00       	.word	0x0046;	????	
 b3e:	5c 00       	.word	0x005c;	????	
 b40:	08 00       	.word	0x0008;	????	
 b42:	7e 01       	.word	0x017e;	????	
 b44:	31 24       	jz	$+100    	;abs 0xba8
 b46:	7d 00       	.word	0x007d;	????	
 b48:	22 9f       	cmp	@r15,	r2	
 b4a:	84 00       	.word	0x0084;	????	
 b4c:	96 00       	.word	0x0096;	????	
 b4e:	08 00       	.word	0x0008;	????	
 b50:	7e 01       	.word	0x017e;	????	
 b52:	31 24       	jz	$+100    	;abs 0xbb6
 b54:	7d 00       	.word	0x007d;	????	
 b56:	22 9f       	cmp	@r15,	r2	
 b58:	96 00       	.word	0x0096;	????	
 b5a:	b4 00       	.word	0x00b4;	????	
 b5c:	08 00       	.word	0x0008;	????	
 b5e:	74 00       	.word	0x0074;	????	
 b60:	31 24       	jz	$+100    	;abs 0xbc4
 b62:	7d 00       	.word	0x007d;	????	
 b64:	22 9f       	cmp	@r15,	r2	
 b66:	00 00       	.word	0x0000;	????	
 b68:	00 00       	.word	0x0000;	????	
 b6a:	00 00       	.word	0x0000;	????	
 b6c:	02 00       	.word	0x0002;	????	
 b6e:	02 00       	.word	0x0002;	????	
 b70:	71 02       	.word	0x0271;	????	
 b72:	02 00       	.word	0x0002;	????	
 b74:	8a 00       	.word	0x008a;	????	
 b76:	02 00       	.word	0x0002;	????	
 b78:	71 04       	.word	0x0471;	????	
 b7a:	00 00       	.word	0x0000;	????	
 b7c:	00 00       	.word	0x0000;	????	
 b7e:	00 00       	.word	0x0000;	????	
 b80:	06 00       	.word	0x0006;	????	
 b82:	01 00       	.word	0x0001;	????	
 b84:	5f 06       	.word	0x065f;	????	
 b86:	00 56       	add	r6,	r0	
 b88:	00 01       	.word	0x0100;	????	
 b8a:	00 5e       	add	r14,	r0	
 b8c:	56 00       	.word	0x0056;	????	
 b8e:	60 00       	.word	0x0060;	????	
 b90:	03 00       	.word	0x0003;	????	
 b92:	7e 7f       	subc.b	@r15+,	r14	
 b94:	9f 60 00 8a 	addc	-30208(r0),256(r15);PC rel. 0x9596, 0x0100(r15)
 b98:	00 01 
 b9a:	00 5e       	add	r14,	r0	
 b9c:	00 00       	.word	0x0000;	????	
 b9e:	00 00       	.word	0x0000;	????	
 ba0:	04 00       	.word	0x0004;	????	
 ba2:	34 00       	.word	0x0034;	????	
 ba4:	02 00       	.word	0x0002;	????	
 ba6:	30 9f       	cmp	@r15+,	r0	
 ba8:	34 00       	.word	0x0034;	????	
 baa:	3a 00       	.word	0x003a;	????	
 bac:	02 00       	.word	0x0002;	????	
 bae:	31 9f       	cmp	@r15+,	r1	
 bb0:	3a 00       	.word	0x003a;	????	
 bb2:	44 00       	.word	0x0044;	????	
 bb4:	02 00       	.word	0x0002;	????	
 bb6:	30 9f       	cmp	@r15+,	r0	
 bb8:	44 00       	.word	0x0044;	????	
 bba:	88 00       	.word	0x0088;	????	
 bbc:	01 00       	.word	0x0001;	????	
 bbe:	5b 00       	.word	0x005b;	????	
 bc0:	00 00       	.word	0x0000;	????	
 bc2:	00 04       	.word	0x0400;	????	
 bc4:	00 54       	add	r4,	r0	
 bc6:	00 02       	.word	0x0200;	????	
 bc8:	00 30       	jn	$+2      	;abs 0xbca
 bca:	9f 54 00 60 	add	24576(r4),256(r15);0x6000(r4), 0x0100(r15)
 bce:	00 01 
 bd0:	00 5d       	add	r13,	r0	
 bd2:	60 00       	.word	0x0060;	????	
 bd4:	70 00       	.word	0x0070;	????	
 bd6:	01 00       	.word	0x0001;	????	
 bd8:	5f 78 00 7a 	subc.b	31232(r8),r15	;0x7a00(r8)
 bdc:	00 01       	.word	0x0100;	????	
 bde:	00 5d       	add	r13,	r0	
 be0:	7a 00       	.word	0x007a;	????	
 be2:	80 00       	.word	0x0080;	????	
 be4:	01 00       	.word	0x0001;	????	
 be6:	5f 80 00 82 	sub.b	-32256(r0),r15	;PC rel. 0x8de8
 bea:	00 04       	.word	0x0400;	????	
 bec:	00 7f       	subc	r15,	r0	
 bee:	00 20       	jnz	$+2      	;abs 0xbf0
 bf0:	9f 82 00 84 	sub	&0x8400,256(r15);0x0100(r15)
 bf4:	00 01 
 bf6:	00 5f       	add	r15,	r0	
 bf8:	84 00       	.word	0x0084;	????	
 bfa:	86 00       	.word	0x0086;	????	
 bfc:	02 00       	.word	0x0002;	????	
 bfe:	30 9f       	cmp	@r15+,	r0	
 c00:	00 00       	.word	0x0000;	????	
	...

Disassembly of section .debug_ranges:

00000000 <.debug_ranges>:
   0:	28 c1       	bic	@r1,	r8	
   2:	2c c5       	bic	@r5,	r12	
   4:	3e c0 1e c1 	bic	#-16098,r14	;#0xc11e
   8:	00 00       	.word	0x0000;	????	
   a:	00 00       	.word	0x0000;	????	
   c:	38 00       	.word	0x0038;	????	
   e:	f0 00       	.word	0x00f0;	????	
  10:	f4 00       	.word	0x00f4;	????	
  12:	f6 00       	.word	0x00f6;	????	
  14:	00 00       	.word	0x0000;	????	
	...
